libndn-cxx.so.0.5.0 libndn1 #MINVER#
 _ZGVN5boost4asio6detail10call_stackINS1_14strand_service11strand_implEhE4top_E@Base 0.4.1
 _ZGVN5boost4asio6detail10call_stackINS1_15task_io_serviceENS1_27task_io_service_thread_infoEE4top_E@Base 0.4.1
 _ZGVN5boost4asio6detail12service_baseINS0_21stream_socket_serviceINS0_2ip3tcpEEEE2idE@Base 0.4.1
 _ZGVN5boost4asio6detail12service_baseINS0_21stream_socket_serviceINS0_5local15stream_protocolEEEE2idE@Base 0.4.1
 _ZGVN5boost4asio6detail12service_baseINS0_22deadline_timer_serviceIN3ndn4time12steady_clockENS0_11time_traitsIS6_EEEEE2idE@Base 0.4.1
 _ZGVN5boost4asio6detail12service_baseINS0_22deadline_timer_serviceINS_10posix_time5ptimeENS0_11time_traitsIS5_EEEEE2idE@Base 0.4.1
 _ZGVN5boost4asio6detail12service_baseINS0_2ip16resolver_serviceINS3_3tcpEEEE2idE@Base 0.4.1
 _ZGVN5boost4asio6detail12service_baseINS0_2ip16resolver_serviceINS3_3udpEEEE2idE@Base 0.4.1
 _ZGVN5boost4asio6detail12service_baseINS0_5posix25stream_descriptor_serviceEE2idE@Base 0.4.1
 _ZGVN5boost4asio6detail12service_baseINS1_13epoll_reactorEE2idE@Base 0.4.1
 _ZGVN5boost4asio6detail12service_baseINS1_14strand_serviceEE2idE@Base 0.4.1
 _ZGVN5boost4asio6detail12service_baseINS1_15task_io_serviceEE2idE@Base 0.4.1
 _ZGVN5boost6chrono14duration_punctIcE2idE@Base 0.4.1
 _ZGVN5boost9date_time10time_facetINS_10posix_time5ptimeEcSt19ostreambuf_iteratorIcSt11char_traitsIcEEE2idE@Base 0.4.1
 _ZGVN5boost9date_time16time_input_facetINS_10posix_time5ptimeEcSt19istreambuf_iteratorIcSt11char_traitsIcEEE2idE@Base 0.4.1
 _ZGVZN5boost3log11v2_mt_posix3aux24type_sequence_dispatcherINS_3mpl7vector2INSt7__cxx1112basic_stringIcSt11char_traitsIcESaIcEEENS7_IwS8_IwESaIwEEEEEE19get_dispatching_mapINS1_9binder1stINS1_10output_funERNS1_11expressions3aux10stream_refINS1_24basic_formatting_ostreamIcS9_SA_EEEEEEEERKNS_5arrayISt4pairINS_9typeindex14stl_type_indexEPvELm2EEEvE8instance@Base 0.4.1
 _ZGVZN5boost3log11v2_mt_posix3aux24type_sequence_dispatcherINS_3mpl7vector2INSt7__cxx1112basic_stringIcSt11char_traitsIcESaIcEEENS7_IwS8_IwESaIwEEEEEE19get_dispatching_mapINS2_21value_ref_initializerINS1_9value_refISF_NS1_11expressions3tag7messageEEEEEEERKNS_5arrayISt4pairINS_9typeindex14stl_type_indexEPvELm2EEEvE8instance@Base 0.4.1
 _ZGVZN5boost4asio5error17get_misc_categoryEvE8instance@Base 0.4.1
 _ZGVZN5boost4asio5error18get_netdb_categoryEvE8instance@Base 0.4.1
 _ZGVZN5boost4asio5error21get_addrinfo_categoryEvE8instance@Base 0.4.1
 _ZGVZN5boost6chrono12clock_stringINS0_12system_clockEcE5sinceB5cxx11EvE3str@Base 0.4.1
 _ZGVZNK8CryptoPP9SingletonINS_18DL_Algorithm_ECDSAINS_3ECPEEENS_9NewObjectIS3_EELi0EE3RefEvE9s_pObject@Base 0.4.1
 _ZGVZNK8CryptoPP9SingletonINS_37DL_SignatureMessageEncodingMethod_DSAENS_9NewObjectIS1_EELi0EE3RefEvE9s_pObject@Base 0.4.1
 _ZGVZNK8CryptoPP9SingletonINS_39PKCS1v15_SignatureMessageEncodingMethodENS_9NewObjectIS1_EELi0EE3RefEvE9s_pObject@Base 0.4.1
 _ZN3ndn10ConfigFile14findConfigFileEv@Base 0.4.1
 _ZN3ndn10ConfigFile4openEv@Base 0.4.1
 _ZN3ndn10ConfigFile5ErrorD0Ev@Base 0.4.1
 _ZN3ndn10ConfigFile5ErrorD1Ev@Base 0.4.1
 _ZN3ndn10ConfigFile5ErrorD2Ev@Base 0.4.1
 _ZN3ndn10ConfigFile5closeEv@Base 0.4.1
 _ZN3ndn10ConfigFile5parseB5cxx11Ev@Base 0.4.1
 _ZN3ndn10ConfigFileC1Ev@Base 0.4.1
 _ZN3ndn10ConfigFileC2Ev@Base 0.4.1
 _ZN3ndn10ConfigFileD1Ev@Base 0.4.1
 _ZN3ndn10ConfigFileD2Ev@Base 0.4.1
 _ZN3ndn10KeyLocator10wireDecodeERKNS_5BlockE@Base 0.4.1
 _ZN3ndn10KeyLocator12setKeyDigestERKNS_5BlockE@Base 0.4.1
 _ZN3ndn10KeyLocator12setKeyDigestERKSt10shared_ptrIKNS_6BufferEE@Base 0.4.1
 _ZN3ndn10KeyLocator5ErrorD0Ev@Base 0.4.1
 _ZN3ndn10KeyLocator5ErrorD1Ev@Base 0.4.1
 _ZN3ndn10KeyLocator5ErrorD2Ev@Base 0.4.1
 _ZN3ndn10KeyLocator5clearEv@Base 0.4.1
 _ZN3ndn10KeyLocator7setNameERKNS_4NameE@Base 0.4.1
 _ZN3ndn10KeyLocatorC1ERKNS_4NameE@Base 0.4.1
 _ZN3ndn10KeyLocatorC1ERKNS_5BlockE@Base 0.4.1
 _ZN3ndn10KeyLocatorC1Ev@Base 0.4.1
 _ZN3ndn10KeyLocatorC2ERKNS_4NameE@Base 0.4.1
 _ZN3ndn10KeyLocatorC2ERKNS_5BlockE@Base 0.4.1
 _ZN3ndn10KeyLocatorC2Ev@Base 0.4.1
 _ZN3ndn10KeyLocatorD1Ev@Base 0.4.1
 _ZN3ndn10KeyLocatorD2Ev@Base 0.4.1
 _ZN3ndn11fromHexCharEh@Base 0.4.1
 _ZN3ndn12DigestSha2565ErrorD0Ev@Base 0.4.1
 _ZN3ndn12DigestSha2565ErrorD1Ev@Base 0.4.1
 _ZN3ndn12DigestSha2565ErrorD2Ev@Base 0.4.1
 _ZN3ndn12DigestSha256C1ERKNS_9SignatureE@Base 0.4.1
 _ZN3ndn12DigestSha256C1Ev@Base 0.4.1
 _ZN3ndn12DigestSha256C2ERKNS_9SignatureE@Base 0.4.1
 _ZN3ndn12DigestSha256C2Ev@Base 0.4.1
 _ZN3ndn12RegexMatcher14recursiveMatchEmRKNS_4NameEmm@Base 0.4.1
 _ZN3ndn12RegexMatcher5ErrorD0Ev@Base 0.4.1
 _ZN3ndn12RegexMatcher5ErrorD1Ev@Base 0.4.1
 _ZN3ndn12RegexMatcher5ErrorD2Ev@Base 0.4.1
 _ZN3ndn12RegexMatcher5matchERKNS_4NameEmm@Base 0.4.1
 _ZN3ndn12RegexMatcherC1ERKNSt7__cxx1112basic_stringIcSt11char_traitsIcESaIcEEERKNS0_13RegexExprTypeESt10shared_ptrINS_19RegexBackrefManagerEE@Base 0.4.1
 _ZN3ndn12RegexMatcherC2ERKNSt7__cxx1112basic_stringIcSt11char_traitsIcESaIcEEERKNS0_13RegexExprTypeESt10shared_ptrINS_19RegexBackrefManagerEE@Base 0.4.1
 _ZN3ndn12RegexMatcherD0Ev@Base 0.4.1
 _ZN3ndn12RegexMatcherD1Ev@Base 0.4.1
 _ZN3ndn12RegexMatcherD2Ev@Base 0.4.1
 _ZN3ndn12TcpTransport27getSocketHostAndPortFromUriERKNSt7__cxx1112basic_stringIcSt11char_traitsIcESaIcEEE@Base 0.4.1
 _ZN3ndn12TcpTransport4sendERKNS_5BlockE@Base 0.4.1
 _ZN3ndn12TcpTransport4sendERKNS_5BlockES3_@Base 0.4.1
 _ZN3ndn12TcpTransport5closeEv@Base 0.4.1
 _ZN3ndn12TcpTransport5pauseEv@Base 0.4.1
 _ZN3ndn12TcpTransport6createERKNSt7__cxx1112basic_stringIcSt11char_traitsIcESaIcEEE@Base 0.4.1
 _ZN3ndn12TcpTransport6resumeEv@Base 0.4.1
 _ZN3ndn12TcpTransport7connectERN5boost4asio10io_serviceERKSt8functionIFvRKNS_5BlockEEE@Base 0.4.1
 _ZN3ndn12TcpTransportC1ERKNSt7__cxx1112basic_stringIcSt11char_traitsIcESaIcEEES8_@Base 0.4.1
 _ZN3ndn12TcpTransportC2ERKNSt7__cxx1112basic_stringIcSt11char_traitsIcESaIcEEES8_@Base 0.4.1
 _ZN3ndn12TcpTransportD0Ev@Base 0.4.1
 _ZN3ndn12TcpTransportD1Ev@Base 0.4.1
 _ZN3ndn12TcpTransportD2Ev@Base 0.4.1
 _ZN3ndn13BERDecodeTimeERN8CryptoPP22BufferedTransformationERN5boost6chrono10time_pointINS_4time12system_clockENS4_8durationIlNS3_5ratioILl1ELl1000000000EEEEEEE@Base 0.4.1
 _ZN3ndn13OBufferStream3bufEv@Base 0.4.1
 _ZN3ndn13OBufferStreamC1Ev@Base 0.4.1
 _ZN3ndn13OBufferStreamC2Ev@Base 0.4.1
 _ZN3ndn13OBufferStreamD0Ev@Base 0.4.1
 _ZN3ndn13OBufferStreamD1Ev@Base 0.4.1
 _ZN3ndn13OBufferStreamD2Ev@Base 0.4.1
 _ZN3ndn13SignatureInfo10wireDecodeERKNS_5BlockE@Base 0.4.1
 _ZN3ndn13SignatureInfo13setKeyLocatorERKNS_10KeyLocatorE@Base 0.4.1
 _ZN3ndn13SignatureInfo15unsetKeyLocatorEv@Base 0.4.1
 _ZN3ndn13SignatureInfo16setSignatureTypeENS_3tlv18SignatureTypeValueE@Base 0.4.1
 _ZN3ndn13SignatureInfo17setValidityPeriodERKNS_8security14ValidityPeriodE@Base 0.4.1
 _ZN3ndn13SignatureInfo19unsetValidityPeriodEv@Base 0.4.1
 _ZN3ndn13SignatureInfo21appendTypeSpecificTlvERKNS_5BlockE@Base 0.4.1
 _ZN3ndn13SignatureInfo5ErrorD0Ev@Base 0.4.1
 _ZN3ndn13SignatureInfo5ErrorD1Ev@Base 0.4.1
 _ZN3ndn13SignatureInfo5ErrorD2Ev@Base 0.4.1
 _ZN3ndn13SignatureInfoC1ENS_3tlv18SignatureTypeValueE@Base 0.4.1
 _ZN3ndn13SignatureInfoC1ENS_3tlv18SignatureTypeValueERKNS_10KeyLocatorE@Base 0.4.1
 _ZN3ndn13SignatureInfoC1ERKNS_5BlockE@Base 0.4.1
 _ZN3ndn13SignatureInfoC1Ev@Base 0.4.1
 _ZN3ndn13SignatureInfoC2ENS_3tlv18SignatureTypeValueE@Base 0.4.1
 _ZN3ndn13SignatureInfoC2ENS_3tlv18SignatureTypeValueERKNS_10KeyLocatorE@Base 0.4.1
 _ZN3ndn13SignatureInfoC2ERKNS_5BlockE@Base 0.4.1
 _ZN3ndn13SignatureInfoC2Ev@Base 0.4.1
 _ZN3ndn13SignatureInfoD1Ev@Base 0.4.1
 _ZN3ndn13SignatureInfoD2Ev@Base 0.4.1
 _ZN3ndn13UnixTransport20getSocketNameFromUriERKNSt7__cxx1112basic_stringIcSt11char_traitsIcESaIcEEE@Base 0.4.1
 _ZN3ndn13UnixTransport4sendERKNS_5BlockE@Base 0.4.1
 _ZN3ndn13UnixTransport4sendERKNS_5BlockES3_@Base 0.4.1
 _ZN3ndn13UnixTransport5closeEv@Base 0.4.1
 _ZN3ndn13UnixTransport5pauseEv@Base 0.4.1
 _ZN3ndn13UnixTransport6createERKNSt7__cxx1112basic_stringIcSt11char_traitsIcESaIcEEE@Base 0.4.1
 _ZN3ndn13UnixTransport6resumeEv@Base 0.4.1
 _ZN3ndn13UnixTransport7connectERN5boost4asio10io_serviceERKSt8functionIFvRKNS_5BlockEEE@Base 0.4.1
 _ZN3ndn13UnixTransportC1ERKNSt7__cxx1112basic_stringIcSt11char_traitsIcESaIcEEE@Base 0.4.1
 _ZN3ndn13UnixTransportC2ERKNSt7__cxx1112basic_stringIcSt11char_traitsIcESaIcEEE@Base 0.4.1
 _ZN3ndn13UnixTransportD0Ev@Base 0.4.1
 _ZN3ndn13UnixTransportD1Ev@Base 0.4.1
 _ZN3ndn13UnixTransportD2Ev@Base 0.4.1
 _ZN3ndn14InterestFilter5ErrorD0Ev@Base 0.4.1
 _ZN3ndn14InterestFilter5ErrorD1Ev@Base 0.4.1
 _ZN3ndn14InterestFilter5ErrorD2Ev@Base 0.4.1
 _ZN3ndn14InterestFilterC1EPKc@Base 0.4.1
 _ZN3ndn14InterestFilterC1ERKNS_4NameE@Base 0.4.1
 _ZN3ndn14InterestFilterC1ERKNS_4NameERKNSt7__cxx1112basic_stringIcSt11char_traitsIcESaIcEEE@Base 0.4.1
 _ZN3ndn14InterestFilterC1ERKNSt7__cxx1112basic_stringIcSt11char_traitsIcESaIcEEE@Base 0.4.1
 _ZN3ndn14InterestFilterC2EPKc@Base 0.4.1
 _ZN3ndn14InterestFilterC2ERKNS_4NameE@Base 0.4.1
 _ZN3ndn14InterestFilterC2ERKNS_4NameERKNSt7__cxx1112basic_stringIcSt11char_traitsIcESaIcEEE@Base 0.4.1
 _ZN3ndn14InterestFilterC2ERKNSt7__cxx1112basic_stringIcSt11char_traitsIcESaIcEEE@Base 0.4.1
 _ZN3ndn14InterestFilterD1Ev@Base 0.4.1
 _ZN3ndn14InterestFilterD2Ev@Base 0.4.1
 _ZN3ndn15PendingInterestC1ESt10shared_ptrIKNS_8InterestEERKSt8functionIFvRS3_RKNS_4DataEEERKS5_IFvS6_RKNS_2lp4NackEEERKS5_IFvS6_EERNS_4util9scheduler9SchedulerE@Base 0.4.1
 _ZN3ndn15PendingInterestC2ESt10shared_ptrIKNS_8InterestEERKSt8functionIFvRS3_RKNS_4DataEEERKS5_IFvS6_RKNS_2lp4NackEEERKS5_IFvS6_EERNS_4util9scheduler9SchedulerE@Base 0.4.1
 _ZN3ndn15RegexTopMatcher17getItemFromExpandERKNSt7__cxx1112basic_stringIcSt11char_traitsIcESaIcEEERm@Base 0.4.1
 _ZN3ndn15RegexTopMatcher18convertSpecialCharERKNSt7__cxx1112basic_stringIcSt11char_traitsIcESaIcEEE@Base 0.4.1
 _ZN3ndn15RegexTopMatcher5matchERKNS_4NameE@Base 0.4.1
 _ZN3ndn15RegexTopMatcher5matchERKNS_4NameEmm@Base 0.4.1
 _ZN3ndn15RegexTopMatcher6expandERKNSt7__cxx1112basic_stringIcSt11char_traitsIcESaIcEEE@Base 0.4.1
 _ZN3ndn15RegexTopMatcher7compileEv@Base 0.4.1
 _ZN3ndn15RegexTopMatcher8fromNameERKNS_4NameEb@Base 0.4.1
 _ZN3ndn15RegexTopMatcherC1ERKNSt7__cxx1112basic_stringIcSt11char_traitsIcESaIcEEES8_@Base 0.4.1
 _ZN3ndn15RegexTopMatcherC1ERKS0_@Base 0.4.1
 _ZN3ndn15RegexTopMatcherC2ERKNSt7__cxx1112basic_stringIcSt11char_traitsIcESaIcEEES8_@Base 0.4.1
 _ZN3ndn15RegexTopMatcherC2ERKS0_@Base 0.4.1
 _ZN3ndn15RegexTopMatcherD0Ev@Base 0.4.1
 _ZN3ndn15RegexTopMatcherD1Ev@Base 0.4.1
 _ZN3ndn15RegexTopMatcherD2Ev@Base 0.4.1
 _ZN3ndn15SecRuleRelative13matchDataNameERKNS_4DataE@Base 0.4.1
 _ZN3ndn15SecRuleRelative15matchSignerNameERKNS_4DataE@Base 0.4.1
 _ZN3ndn15SecRuleRelative5ErrorD0Ev@Base 0.4.1
 _ZN3ndn15SecRuleRelative5ErrorD1Ev@Base 0.4.1
 _ZN3ndn15SecRuleRelative5ErrorD2Ev@Base 0.4.1
 _ZN3ndn15SecRuleRelative7compareERKNS_4NameES3_@Base 0.4.1
 _ZN3ndn15SecRuleRelative7satisfyERKNS_4DataE@Base 0.4.1
 _ZN3ndn15SecRuleRelative7satisfyERKNS_4NameES3_@Base 0.4.1
 _ZN3ndn15SecRuleRelativeC1ERKNSt7__cxx1112basic_stringIcSt11char_traitsIcESaIcEEES8_S8_S8_S8_b@Base 0.4.1
 _ZN3ndn15SecRuleRelativeC2ERKNSt7__cxx1112basic_stringIcSt11char_traitsIcESaIcEEES8_S8_S8_S8_b@Base 0.4.1
 _ZN3ndn15SecRuleRelativeD0Ev@Base 0.4.1
 _ZN3ndn15SecRuleRelativeD1Ev@Base 0.4.1
 _ZN3ndn15SecRuleRelativeD2Ev@Base 0.4.1
 _ZN3ndn15SecRuleSpecific13matchDataNameERKNS_4DataE@Base 0.4.1
 _ZN3ndn15SecRuleSpecific15matchSignerNameERKNS_4DataE@Base 0.4.1
 _ZN3ndn15SecRuleSpecific7satisfyERKNS_4DataE@Base 0.4.1
 _ZN3ndn15SecRuleSpecific7satisfyERKNS_4NameES3_@Base 0.4.1
 _ZN3ndn15SecRuleSpecificC1ERKS0_@Base 0.4.1
 _ZN3ndn15SecRuleSpecificC1ESt10shared_ptrINS_15RegexTopMatcherEE@Base 0.4.1
 _ZN3ndn15SecRuleSpecificC1ESt10shared_ptrINS_15RegexTopMatcherEES3_@Base 0.4.1
 _ZN3ndn15SecRuleSpecificC2ERKS0_@Base 0.4.1
 _ZN3ndn15SecRuleSpecificC2ESt10shared_ptrINS_15RegexTopMatcherEE@Base 0.4.1
 _ZN3ndn15SecRuleSpecificC2ESt10shared_ptrINS_15RegexTopMatcherEES3_@Base 0.4.1
 _ZN3ndn15SecRuleSpecificD0Ev@Base 0.4.1
 _ZN3ndn15SecRuleSpecificD1Ev@Base 0.4.1
 _ZN3ndn15SecRuleSpecificD2Ev@Base 0.4.1
 _ZN3ndn16AesKeyParamsInfo12checkKeySizeEj@Base 0.4.1
 _ZN3ndn16AesKeyParamsInfo14getDefaultSizeEv@Base 0.4.1
 _ZN3ndn16RsaKeyParamsInfo12checkKeySizeEj@Base 0.4.1
 _ZN3ndn16RsaKeyParamsInfo14getDefaultSizeEv@Base 0.4.1
 _ZN3ndn17StringHelperErrorD0Ev@Base 0.4.1
 _ZN3ndn17StringHelperErrorD1Ev@Base 0.4.1
 _ZN3ndn17StringHelperErrorD2Ev@Base 0.4.1
 _ZN3ndn18EcdsaKeyParamsInfo12checkKeySizeEj@Base 0.4.1
 _ZN3ndn18EcdsaKeyParamsInfo14getDefaultSizeEv@Base 0.4.1
 _ZN3ndn18RegexPseudoMatcher7compileEv@Base 0.4.1
 _ZN3ndn18RegexPseudoMatcherD0Ev@Base 0.4.1
 _ZN3ndn18RegexPseudoMatcherD1Ev@Base 0.4.1
 _ZN3ndn18RegexPseudoMatcherD2Ev@Base 0.4.1
 _ZN3ndn18RegexRepeatMatcher14recursiveMatchEmRKNS_4NameEmm@Base 0.4.1
 _ZN3ndn18RegexRepeatMatcher15parseRepetitionEv@Base 0.4.1
 _ZN3ndn18RegexRepeatMatcher5matchERKNS_4NameEmm@Base 0.4.1
 _ZN3ndn18RegexRepeatMatcher7compileEv@Base 0.4.1
 _ZN3ndn18RegexRepeatMatcherD0Ev@Base 0.4.1
 _ZN3ndn18RegexRepeatMatcherD1Ev@Base 0.4.1
 _ZN3ndn18RegexRepeatMatcherD2Ev@Base 0.4.1
 _ZN3ndn19RegexBackrefManagerD0Ev@Base 0.4.1
 _ZN3ndn19RegexBackrefManagerD1Ev@Base 0.4.1
 _ZN3ndn19RegexBackrefManagerD2Ev@Base 0.4.1
 _ZN3ndn19RegexBackrefMatcher7compileEv@Base 0.4.1
 _ZN3ndn19RegexBackrefMatcherD0Ev@Base 0.4.1
 _ZN3ndn19RegexBackrefMatcherD1Ev@Base 0.4.1
 _ZN3ndn19RegexBackrefMatcherD2Ev@Base 0.4.1
 _ZN3ndn19StreamTransportImplINS_12TcpTransportEN5boost4asio2ip3tcpEE10asyncWriteEv@Base 0.4.1
 _ZN3ndn19StreamTransportImplINS_12TcpTransportEN5boost4asio2ip3tcpEE12asyncReceiveEv@Base 0.4.1
 _ZN3ndn19StreamTransportImplINS_12TcpTransportEN5boost4asio2ip3tcpEE14connectHandlerERKNS2_6system10error_codeE@Base 0.4.1
 _ZN3ndn19StreamTransportImplINS_12TcpTransportEN5boost4asio2ip3tcpEE16handleAsyncWriteERKNS2_6system10error_codeESt14_List_iteratorINSt7__cxx114listINS_5BlockESaISE_EEEE@Base 0.4.1
 _ZN3ndn19StreamTransportImplINS_12TcpTransportEN5boost4asio2ip3tcpEE18handleAsyncReceiveERKNS2_6system10error_codeEm@Base 0.4.1
 _ZN3ndn19StreamTransportImplINS_12TcpTransportEN5boost4asio2ip3tcpEE21connectTimeoutHandlerERKNS2_6system10error_codeE@Base 0.4.1
 _ZN3ndn19StreamTransportImplINS_13UnixTransportEN5boost4asio5local15stream_protocolEE10asyncWriteEv@Base 0.4.1
 _ZN3ndn19StreamTransportImplINS_13UnixTransportEN5boost4asio5local15stream_protocolEE12asyncReceiveEv@Base 0.4.1
 _ZN3ndn19StreamTransportImplINS_13UnixTransportEN5boost4asio5local15stream_protocolEE14connectHandlerERKNS2_6system10error_codeE@Base 0.4.1
 _ZN3ndn19StreamTransportImplINS_13UnixTransportEN5boost4asio5local15stream_protocolEE16handleAsyncWriteERKNS2_6system10error_codeESt14_List_iteratorINSt7__cxx114listINS_5BlockESaISE_EEEE@Base 0.4.1
 _ZN3ndn19StreamTransportImplINS_13UnixTransportEN5boost4asio5local15stream_protocolEE18handleAsyncReceiveERKNS2_6system10error_codeEm@Base 0.4.1
 _ZN3ndn19StreamTransportImplINS_13UnixTransportEN5boost4asio5local15stream_protocolEE21connectTimeoutHandlerERKNS2_6system10error_codeE@Base 0.4.1
 _ZN3ndn19StreamTransportImplINS_13UnixTransportEN5boost4asio5local15stream_protocolEE7connectERKNS4_14basic_endpointIS5_EE@Base 0.4.1
 _ZN3ndn20DEREncodeGeneralTimeERN8CryptoPP22BufferedTransformationERKN5boost6chrono10time_pointINS_4time12system_clockENS4_8durationIlNS3_5ratioILl1ELl1000000000EEEEEEE@Base 0.4.1
 _ZN3ndn21RegexComponentMatcher5matchERKNS_4NameEmm@Base 0.4.1
 _ZN3ndn21RegexComponentMatcher7compileEv@Base 0.4.1
 _ZN3ndn21RegexComponentMatcherD0Ev@Base 0.4.1
 _ZN3ndn21RegexComponentMatcherD1Ev@Base 0.4.1
 _ZN3ndn21RegexComponentMatcherD2Ev@Base 0.4.1
 _ZN3ndn21SimplePublicKeyParamsINS_16RsaKeyParamsInfoEED0Ev@Base 0.4.1
 _ZN3ndn21SimplePublicKeyParamsINS_16RsaKeyParamsInfoEED1Ev@Base 0.4.1
 _ZN3ndn21SimplePublicKeyParamsINS_16RsaKeyParamsInfoEED2Ev@Base 0.4.1
 _ZN3ndn21SimplePublicKeyParamsINS_18EcdsaKeyParamsInfoEED0Ev@Base 0.4.1
 _ZN3ndn21SimplePublicKeyParamsINS_18EcdsaKeyParamsInfoEED1Ev@Base 0.4.1
 _ZN3ndn21SimplePublicKeyParamsINS_18EcdsaKeyParamsInfoEED2Ev@Base 0.4.1
 _ZN3ndn22SignatureSha256WithRsa15unsetKeyLocatorEv@Base 0.4.1
 _ZN3ndn22SignatureSha256WithRsa5ErrorD0Ev@Base 0.4.1
 _ZN3ndn22SignatureSha256WithRsa5ErrorD1Ev@Base 0.4.1
 _ZN3ndn22SignatureSha256WithRsa5ErrorD2Ev@Base 0.4.1
 _ZN3ndn22SignatureSha256WithRsaC1ERKNS_10KeyLocatorE@Base 0.4.1
 _ZN3ndn22SignatureSha256WithRsaC1ERKNS_9SignatureE@Base 0.4.1
 _ZN3ndn22SignatureSha256WithRsaC2ERKNS_10KeyLocatorE@Base 0.4.1
 _ZN3ndn22SignatureSha256WithRsaC2ERKNS_9SignatureE@Base 0.4.1
 _ZN3ndn23RegexPatternListMatcher14extractPatternEmPm@Base 0.4.1
 _ZN3ndn23RegexPatternListMatcher17extractRepetitionEm@Base 0.4.1
 _ZN3ndn23RegexPatternListMatcher17extractSubPatternEccm@Base 0.4.1
 _ZN3ndn23RegexPatternListMatcher7compileEv@Base 0.4.1
 _ZN3ndn23RegexPatternListMatcherC1ERKNSt7__cxx1112basic_stringIcSt11char_traitsIcESaIcEEESt10shared_ptrINS_19RegexBackrefManagerEE@Base 0.4.1
 _ZN3ndn23RegexPatternListMatcherC2ERKNSt7__cxx1112basic_stringIcSt11char_traitsIcESaIcEEESt10shared_ptrINS_19RegexBackrefManagerEE@Base 0.4.1
 _ZN3ndn23RegexPatternListMatcherD0Ev@Base 0.4.1
 _ZN3ndn23RegexPatternListMatcherD1Ev@Base 0.4.1
 _ZN3ndn23RegexPatternListMatcherD2Ev@Base 0.4.1
 _ZN3ndn24RegexComponentSetMatcher16extractComponentEm@Base 0.4.1
 _ZN3ndn24RegexComponentSetMatcher22compileSingleComponentEv@Base 0.4.1
 _ZN3ndn24RegexComponentSetMatcher25compileMultipleComponentsEmm@Base 0.4.1
 _ZN3ndn24RegexComponentSetMatcher5matchERKNS_4NameEmm@Base 0.4.1
 _ZN3ndn24RegexComponentSetMatcher7compileEv@Base 0.4.1
 _ZN3ndn24RegexComponentSetMatcherD0Ev@Base 0.4.1
 _ZN3ndn24RegexComponentSetMatcherD1Ev@Base 0.4.1
 _ZN3ndn24RegexComponentSetMatcherD2Ev@Base 0.4.1
 _ZN3ndn24SignatureSha256WithEcdsa15unsetKeyLocatorEv@Base 0.4.1
 _ZN3ndn24SignatureSha256WithEcdsa5ErrorD0Ev@Base 0.4.1
 _ZN3ndn24SignatureSha256WithEcdsa5ErrorD1Ev@Base 0.4.1
 _ZN3ndn24SignatureSha256WithEcdsa5ErrorD2Ev@Base 0.4.1
 _ZN3ndn24SignatureSha256WithEcdsaC1ERKNS_10KeyLocatorE@Base 0.4.1
 _ZN3ndn24SignatureSha256WithEcdsaC1ERKNS_9SignatureE@Base 0.4.1
 _ZN3ndn24SignatureSha256WithEcdsaC2ERKNS_10KeyLocatorE@Base 0.4.1
 _ZN3ndn24SignatureSha256WithEcdsaC2ERKNS_9SignatureE@Base 0.4.1
 _ZN3ndn2io4loadINS_8security2v119IdentityCertificateEEESt10shared_ptrIT_ERKNSt7__cxx1112basic_stringIcSt11char_traitsIcESaIcEEENS0_10IoEncodingE@Base 0.4.1
 _ZN3ndn2io4loadINS_8security2v119IdentityCertificateEEESt10shared_ptrIT_ERSiNS0_10IoEncodingE@Base 0.4.1
 _ZN3ndn2io5ErrorD0Ev@Base 0.4.1
 _ZN3ndn2io5ErrorD1Ev@Base 0.4.1
 _ZN3ndn2io5ErrorD2Ev@Base 0.4.1
 _ZN3ndn2io9loadBlockERSiNS0_10IoEncodingE@Base 0.4.1
 _ZN3ndn2io9saveBlockERKNS_5BlockERSoNS0_10IoEncodingE@Base 0.4.1
 _ZN3ndn2lp10NackHeader10wireDecodeERKNS_5BlockE@Base 0.4.1
 _ZN3ndn2lp10NackHeader9setReasonENS0_10NackReasonE@Base 0.4.1
 _ZN3ndn2lp10NackHeaderC1ERKNS_5BlockE@Base 0.4.1
 _ZN3ndn2lp10NackHeaderC1Ev@Base 0.4.1
 _ZN3ndn2lp10NackHeaderC2ERKNS_5BlockE@Base 0.4.1
 _ZN3ndn2lp10NackHeaderC2Ev@Base 0.4.1
 _ZN3ndn2lp11CachePolicy10wireDecodeERKNS_5BlockE@Base 0.4.1
 _ZN3ndn2lp11CachePolicy5ErrorD0Ev@Base 0.4.1
 _ZN3ndn2lp11CachePolicy5ErrorD1Ev@Base 0.4.1
 _ZN3ndn2lp11CachePolicy5ErrorD2Ev@Base 0.4.1
 _ZN3ndn2lp11CachePolicy9setPolicyENS0_15CachePolicyTypeE@Base 0.4.1
 _ZN3ndn2lp11CachePolicyC1ERKNS_5BlockE@Base 0.4.1
 _ZN3ndn2lp11CachePolicyC1Ev@Base 0.4.1
 _ZN3ndn2lp11CachePolicyC2ERKNS_5BlockE@Base 0.4.1
 _ZN3ndn2lp11CachePolicyC2Ev@Base 0.4.1
 _ZN3ndn2lp4NackC1EONS_8InterestE@Base 0.4.1
 _ZN3ndn2lp4NackC1ERKNS_8InterestE@Base 0.4.1
 _ZN3ndn2lp4NackC2EONS_8InterestE@Base 0.4.1
 _ZN3ndn2lp4NackC2ERKNS_8InterestE@Base 0.4.1
 _ZN3ndn2lp6Packet10comparePosERKNS_5BlockEm@Base 0.4.1
 _ZN3ndn2lp6Packet10wireDecodeERKNS_5BlockE@Base 0.4.1
 _ZN3ndn2lp6Packet3addINS0_6detail9FieldDeclINS0_19field_location_tags6HeaderENS0_10NackHeaderELm800ELb0EEEEERS1_RKNT_9ValueTypeE@Base 0.4.1
 _ZN3ndn2lp6Packet3addINS0_6detail9FieldDeclINS0_19field_location_tags6HeaderENS0_11CachePolicyELm820ELb0EEEEERS1_RKNT_9ValueTypeE@Base 0.4.1
 _ZN3ndn2lp6Packet3addINS0_6detail9FieldDeclINS0_19field_location_tags6HeaderEmLm816ELb0EEEEERS1_RKNT_9ValueTypeE@Base 0.4.1
 _ZN3ndn2lp6Packet3addINS0_6detail9FieldDeclINS0_19field_location_tags6HeaderEmLm817ELb0EEEEERS1_RKNT_9ValueTypeE@Base 0.4.1
 _ZN3ndn2lp6Packet3addINS0_6detail9FieldDeclINS0_19field_location_tags8FragmentESt4pairIN9__gnu_cxx17__normal_iteratorIPKhSt6vectorIhSaIhEEEESF_ELm80ELb0EEEEERS1_RKNT_9ValueTypeE@Base 0.4.1
 _ZN3ndn2lp6Packet5ErrorD0Ev@Base 0.4.1
 _ZN3ndn2lp6Packet5ErrorD1Ev@Base 0.4.1
 _ZN3ndn2lp6Packet5ErrorD2Ev@Base 0.4.1
 _ZN3ndn2lp6PacketC1ERKNS_5BlockE@Base 0.4.1
 _ZN3ndn2lp6PacketC1Ev@Base 0.4.1
 _ZN3ndn2lp6PacketC2ERKNS_5BlockE@Base 0.4.1
 _ZN3ndn2lp6PacketC2Ev@Base 0.4.1
 _ZN3ndn2lp6detail9FieldInfoC1Em@Base 0.4.1
 _ZN3ndn2lp6detail9FieldInfoC1Ev@Base 0.4.1
 _ZN3ndn2lp6detail9FieldInfoC2Em@Base 0.4.1
 _ZN3ndn2lp6detail9FieldInfoC2Ev@Base 0.4.1
 _ZN3ndn2lplsERSoNS0_10NackReasonE@Base 0.4.1
 _ZN3ndn2lplsERSoNS0_15CachePolicyTypeE@Base 0.4.1
 _ZN3ndn31StreamTransportWithResolverImplINS_12TcpTransportEN5boost4asio2ip3tcpEE14resolveHandlerERKNS2_6system10error_codeENS4_23basic_resolver_iteratorIS5_EERKSt10shared_ptrINS4_14basic_resolverIS5_NS4_16resolver_serviceIS5_EEEEE@Base 0.4.1
 _ZN3ndn31StreamTransportWithResolverImplINS_12TcpTransportEN5boost4asio2ip3tcpEE7connectERKNS4_20basic_resolver_queryIS5_EE@Base 0.4.1
 _ZN3ndn3Oid6decodeERN8CryptoPP22BufferedTransformationE@Base 0.4.1
 _ZN3ndn3OidC1EPKc@Base 0.4.1
 _ZN3ndn3OidC1ERKNSt7__cxx1112basic_stringIcSt11char_traitsIcESaIcEEE@Base 0.4.1
 _ZN3ndn3OidC2EPKc@Base 0.4.1
 _ZN3ndn3OidC2ERKNSt7__cxx1112basic_stringIcSt11char_traitsIcESaIcEEE@Base 0.4.1
 _ZN3ndn3OidD1Ev@Base 0.4.1
 _ZN3ndn3OidD2Ev@Base 0.4.1
 _ZN3ndn3TagD0Ev@Base 0.4.1
 _ZN3ndn3TagD1Ev@Base 0.4.1
 _ZN3ndn3TagD2Ev@Base 0.4.1
 _ZN3ndn3dns11syncResolveERKNSt7__cxx1112basic_stringIcSt11char_traitsIcESaIcEEERN5boost4asio10io_serviceERKSt8functionIFbRKNSA_2ip7addressEEE@Base 0.4.1
 _ZN3ndn3dns12asyncResolveERKNSt7__cxx1112basic_stringIcSt11char_traitsIcESaIcEEERKSt8functionIFvRKN5boost4asio2ip7addressEEERKS9_IFvS8_EERNSB_10io_serviceERKS9_IFbSF_EENSA_6chrono8durationIlNSA_5ratioILl1ELl1000000000EEEEE@Base 0.4.1
 _ZN3ndn3dns5ErrorD0Ev@Base 0.4.1
 _ZN3ndn3dns5ErrorD1Ev@Base 0.4.1
 _ZN3ndn3dns5ErrorD2Ev@Base 0.4.1
 _ZN3ndn3dns8Resolver12asyncResolveERKN5boost4asio2ip20basic_resolver_queryINS4_3udpEEERKSt8functionIFvRKNS4_7addressEEERKSA_IFvRKNSt7__cxx1112basic_stringIcSt11char_traitsIcESaIcEEEEENS2_6chrono8durationIlNS2_5ratioILl1ELl1000000000EEEEERKSt10shared_ptrIS1_E@Base 0.4.1
 _ZN3ndn3dns8Resolver15onResolveResultERKN5boost6system10error_codeENS2_4asio2ip23basic_resolver_iteratorINS8_3udpEEERKSt10shared_ptrIS1_E@Base 0.4.1
 _ZN3ndn3dns8Resolver16onResolveTimeoutERKSt10shared_ptrIS1_E@Base 0.4.1
 _ZN3ndn3dns8ResolverD1Ev@Base 0.4.1
 _ZN3ndn3dns8ResolverD2Ev@Base 0.4.1
 _ZN3ndn3nfd10Controller10ERROR_NACKE@Base 0.4.1
 _ZN3ndn3nfd10Controller12ERROR_LBOUNDE@Base 0.4.1
 _ZN3ndn3nfd10Controller12ERROR_SERVERE@Base 0.4.1
 _ZN3ndn3nfd10Controller12fetchDatasetERKNS_4NameERKSt8functionIFvRKSt10shared_ptrIKNS_6BufferEEEERKS5_IFvjRKNSt7__cxx1112basic_stringIcSt11char_traitsIcESaIcEEEEERKNS0_14CommandOptionsE@Base 0.4.1
 _ZN3ndn3nfd10Controller12startCommandERKSt10shared_ptrINS0_14ControlCommandEERKNS0_17ControlParametersERKSt8functionIFvS9_EERKSA_IFvRKNS_4mgmt15ControlResponseEEERKNS0_14CommandOptionsE@Base 0.4.1
 _ZN3ndn3nfd10Controller13ERROR_TIMEOUTE@Base 0.4.1
 _ZN3ndn3nfd10Controller15s_validatorNullE@Base 0.4.1
 _ZN3ndn3nfd10Controller16ERROR_VALIDATIONE@Base 0.4.1
 _ZN3ndn3nfd10Controller22processCommandResponseERKNS_4DataERKSt10shared_ptrINS0_14ControlCommandEERKSt8functionIFvRKNS0_17ControlParametersEEERKSA_IFvRKNS_4mgmt15ControlResponseEEE@Base 0.4.1
 _ZN3ndn3nfd10Controller24processDatasetFetchErrorERKSt8functionIFvjRKNSt7__cxx1112basic_stringIcSt11char_traitsIcESaIcEEEEEjS8_@Base 0.4.1
 _ZN3ndn3nfd10Controller31processValidatedCommandResponseERKNS_4DataERKSt10shared_ptrINS0_14ControlCommandEERKSt8functionIFvRKNS0_17ControlParametersEEERKSA_IFvRKNS_4mgmt15ControlResponseEEE@Base 0.4.1
 _ZN3ndn3nfd10ControllerC1ERNS_4FaceERNS_8security8KeyChainERNS4_9ValidatorE@Base 0.4.1
 _ZN3ndn3nfd10ControllerC2ERNS_4FaceERNS_8security8KeyChainERNS4_9ValidatorE@Base 0.4.1
 _ZN3ndn3nfd10FaceStatus10wireDecodeERKNS_5BlockE@Base 0.4.1
 _ZN3ndn3nfd10FaceStatus11setNInBytesEm@Base 0.4.1
 _ZN3ndn3nfd10FaceStatus11setNInDatasEm@Base 0.4.1
 _ZN3ndn3nfd10FaceStatus11setNInNacksEm@Base 0.4.1
 _ZN3ndn3nfd10FaceStatus12setNOutBytesEm@Base 0.4.1
 _ZN3ndn3nfd10FaceStatus12setNOutDatasEm@Base 0.4.1
 _ZN3ndn3nfd10FaceStatus12setNOutNacksEm@Base 0.4.1
 _ZN3ndn3nfd10FaceStatus15setNInInterestsEm@Base 0.4.1
 _ZN3ndn3nfd10FaceStatus16setNOutInterestsEm@Base 0.4.1
 _ZN3ndn3nfd10FaceStatus19setExpirationPeriodERKN5boost6chrono8durationIlNS2_5ratioILl1ELl1000EEEEE@Base 0.4.1
 _ZN3ndn3nfd10FaceStatusC1ERKNS_5BlockE@Base 0.4.1
 _ZN3ndn3nfd10FaceStatusC1Ev@Base 0.4.1
 _ZN3ndn3nfd10FaceStatusC2ERKNS_5BlockE@Base 0.4.1
 _ZN3ndn3nfd10FaceStatusC2Ev@Base 0.4.1
 _ZN3ndn3nfd10FaceTraitsINS0_10FaceStatusEE5ErrorD0Ev@Base 0.4.1
 _ZN3ndn3nfd10FaceTraitsINS0_10FaceStatusEE5ErrorD1Ev@Base 0.4.1
 _ZN3ndn3nfd10FaceTraitsINS0_10FaceStatusEE5ErrorD2Ev@Base 0.4.1
 _ZN3ndn3nfd10FaceTraitsINS0_10FaceStatusEED1Ev@Base 0.4.1
 _ZN3ndn3nfd10FaceTraitsINS0_10FaceStatusEED2Ev@Base 0.4.1
 _ZN3ndn3nfd10FaceTraitsINS0_21FaceEventNotificationEE5ErrorD0Ev@Base 0.4.1
 _ZN3ndn3nfd10FaceTraitsINS0_21FaceEventNotificationEE5ErrorD1Ev@Base 0.4.1
 _ZN3ndn3nfd10FaceTraitsINS0_21FaceEventNotificationEE5ErrorD2Ev@Base 0.4.1
 _ZN3ndn3nfd10FaceTraitsINS0_21FaceEventNotificationEED1Ev@Base 0.4.1
 _ZN3ndn3nfd10FaceTraitsINS0_21FaceEventNotificationEED2Ev@Base 0.4.1
 _ZN3ndn3nfd10FibDatasetC1Ev@Base 0.4.1
 _ZN3ndn3nfd10FibDatasetC2Ev@Base 0.4.1
 _ZN3ndn3nfd10RibDatasetC1Ev@Base 0.4.1
 _ZN3ndn3nfd10RibDatasetC2Ev@Base 0.4.1
 _ZN3ndn3nfd11FaceDatasetC1Ev@Base 0.4.1
 _ZN3ndn3nfd11FaceDatasetC2Ev@Base 0.4.1
 _ZN3ndn3nfd13ChannelStatus10wireDecodeERKNS_5BlockE@Base 0.4.1
 _ZN3ndn3nfd13ChannelStatus11setLocalUriENSt7__cxx1112basic_stringIcSt11char_traitsIcESaIcEEE@Base 0.4.1
 _ZN3ndn3nfd13ChannelStatus5ErrorD0Ev@Base 0.4.1
 _ZN3ndn3nfd13ChannelStatus5ErrorD1Ev@Base 0.4.1
 _ZN3ndn3nfd13ChannelStatus5ErrorD2Ev@Base 0.4.1
 _ZN3ndn3nfd13ChannelStatusC1ERKNS_5BlockE@Base 0.4.1
 _ZN3ndn3nfd13ChannelStatusC1Ev@Base 0.4.1
 _ZN3ndn3nfd13ChannelStatusC2ERKNS_5BlockE@Base 0.4.1
 _ZN3ndn3nfd13ChannelStatusC2Ev@Base 0.4.1
 _ZN3ndn3nfd13NextHopRecord10wireDecodeERKNS_5BlockE@Base 0.4.1
 _ZN3ndn3nfd13NextHopRecord5ErrorD0Ev@Base 0.4.1
 _ZN3ndn3nfd13NextHopRecord5ErrorD1Ev@Base 0.4.1
 _ZN3ndn3nfd13NextHopRecord5ErrorD2Ev@Base 0.4.1
 _ZN3ndn3nfd13NextHopRecord7setCostEm@Base 0.4.1
 _ZN3ndn3nfd13NextHopRecord9setFaceIdEm@Base 0.4.1
 _ZN3ndn3nfd13NextHopRecordC1ERKNS_5BlockE@Base 0.4.1
 _ZN3ndn3nfd13NextHopRecordC1Ev@Base 0.4.1
 _ZN3ndn3nfd13NextHopRecordC2ERKNS_5BlockE@Base 0.4.1
 _ZN3ndn3nfd13NextHopRecordC2Ev@Base 0.4.1
 _ZN3ndn3nfd13StatusDataset16ParseResultErrorD0Ev@Base 0.4.1
 _ZN3ndn3nfd13StatusDataset16ParseResultErrorD1Ev@Base 0.4.1
 _ZN3ndn3nfd13StatusDataset16ParseResultErrorD2Ev@Base 0.4.1
 _ZN3ndn3nfd13StatusDatasetC1ERKNS_4NameE@Base 0.4.1
 _ZN3ndn3nfd13StatusDatasetC2ERKNS_4NameE@Base 0.4.1
 _ZN3ndn3nfd14ChannelDatasetC1Ev@Base 0.4.1
 _ZN3ndn3nfd14ChannelDatasetC2Ev@Base 0.4.1
 _ZN3ndn3nfd14CommandOptions10setTimeoutERKN5boost6chrono8durationIlNS2_5ratioILl1ELl1000EEEEE@Base 0.4.1
 _ZN3ndn3nfd14CommandOptions14DEFAULT_PREFIXE@Base 0.4.1
 _ZN3ndn3nfd14CommandOptions14setSigningInfoERKNS_8security11SigningInfoE@Base 0.4.1
 _ZN3ndn3nfd14CommandOptions15DEFAULT_TIMEOUTE@Base 0.4.1
 _ZN3ndn3nfd14CommandOptions9setPrefixERKNS_4NameE@Base 0.4.1
 _ZN3ndn3nfd14CommandOptionsC1Ev@Base 0.4.1
 _ZN3ndn3nfd14CommandOptionsC2Ev@Base 0.4.1
 _ZN3ndn3nfd14CommandOptionsD1Ev@Base 0.4.1
 _ZN3ndn3nfd14CommandOptionsD2Ev@Base 0.4.1
 _ZN3ndn3nfd14ControlCommand13ArgumentErrorD0Ev@Base 0.4.1
 _ZN3ndn3nfd14ControlCommand13ArgumentErrorD1Ev@Base 0.4.1
 _ZN3ndn3nfd14ControlCommand13ArgumentErrorD2Ev@Base 0.4.1
 _ZN3ndn3nfd14ControlCommand14FieldValidatorC1Ev@Base 0.4.1
 _ZN3ndn3nfd14ControlCommand14FieldValidatorC2Ev@Base 0.4.1
 _ZN3ndn3nfd14ControlCommandC1ERKNSt7__cxx1112basic_stringIcSt11char_traitsIcESaIcEEES9_@Base 0.4.1
 _ZN3ndn3nfd14ControlCommandC2ERKNSt7__cxx1112basic_stringIcSt11char_traitsIcESaIcEEES9_@Base 0.4.1
 _ZN3ndn3nfd14ControlCommandD0Ev@Base 0.4.1
 _ZN3ndn3nfd14ControlCommandD1Ev@Base 0.4.1
 _ZN3ndn3nfd14ControlCommandD2Ev@Base 0.4.1
 _ZN3ndn3nfd14StrategyChoice10wireDecodeERKNS_5BlockE@Base 0.4.1
 _ZN3ndn3nfd14StrategyChoice11setStrategyERKNS_4NameE@Base 0.4.1
 _ZN3ndn3nfd14StrategyChoice5ErrorD0Ev@Base 0.4.1
 _ZN3ndn3nfd14StrategyChoice5ErrorD1Ev@Base 0.4.1
 _ZN3ndn3nfd14StrategyChoice5ErrorD2Ev@Base 0.4.1
 _ZN3ndn3nfd14StrategyChoice7setNameERKNS_4NameE@Base 0.4.1
 _ZN3ndn3nfd14StrategyChoiceC1ERKNS_5BlockE@Base 0.4.1
 _ZN3ndn3nfd14StrategyChoiceC1Ev@Base 0.4.1
 _ZN3ndn3nfd14StrategyChoiceC2ERKNS_5BlockE@Base 0.4.1
 _ZN3ndn3nfd14StrategyChoiceC2Ev@Base 0.4.1
 _ZN3ndn3nfd14StrategyChoiceD1Ev@Base 0.4.1
 _ZN3ndn3nfd14StrategyChoiceD2Ev@Base 0.4.1
 _ZN3ndn3nfd15FaceDatasetBaseC1ERKNS_4NameE@Base 0.4.1
 _ZN3ndn3nfd15FaceDatasetBaseC2ERKNS_4NameE@Base 0.4.1
 _ZN3ndn3nfd15FaceQueryFilter10wireDecodeERKNS_5BlockE@Base 0.4.1
 _ZN3ndn3nfd15FaceQueryFilter11setLinkTypeENS0_8LinkTypeE@Base 0.4.1
 _ZN3ndn3nfd15FaceQueryFilter11setLocalUriERKNSt7__cxx1112basic_stringIcSt11char_traitsIcESaIcEEE@Base 0.4.1
 _ZN3ndn3nfd15FaceQueryFilter11unsetFaceIdEv@Base 0.4.1
 _ZN3ndn3nfd15FaceQueryFilter12setFaceScopeENS0_9FaceScopeE@Base 0.4.1
 _ZN3ndn3nfd15FaceQueryFilter12setRemoteUriERKNSt7__cxx1112basic_stringIcSt11char_traitsIcESaIcEEE@Base 0.4.1
 _ZN3ndn3nfd15FaceQueryFilter12setUriSchemeERKNSt7__cxx1112basic_stringIcSt11char_traitsIcESaIcEEE@Base 0.4.1
 _ZN3ndn3nfd15FaceQueryFilter13unsetLinkTypeEv@Base 0.4.1
 _ZN3ndn3nfd15FaceQueryFilter13unsetLocalUriEv@Base 0.4.1
 _ZN3ndn3nfd15FaceQueryFilter14unsetFaceScopeEv@Base 0.4.1
 _ZN3ndn3nfd15FaceQueryFilter14unsetRemoteUriEv@Base 0.4.1
 _ZN3ndn3nfd15FaceQueryFilter14unsetUriSchemeEv@Base 0.4.1
 _ZN3ndn3nfd15FaceQueryFilter18setFacePersistencyENS0_15FacePersistencyE@Base 0.4.1
 _ZN3ndn3nfd15FaceQueryFilter20unsetFacePersistencyEv@Base 0.4.1
 _ZN3ndn3nfd15FaceQueryFilter5ErrorD0Ev@Base 0.4.1
 _ZN3ndn3nfd15FaceQueryFilter5ErrorD1Ev@Base 0.4.1
 _ZN3ndn3nfd15FaceQueryFilter5ErrorD2Ev@Base 0.4.1
 _ZN3ndn3nfd15FaceQueryFilter9setFaceIdEm@Base 0.4.1
 _ZN3ndn3nfd15FaceQueryFilterC1ERKNS_5BlockE@Base 0.4.1
 _ZN3ndn3nfd15FaceQueryFilterC1Ev@Base 0.4.1
 _ZN3ndn3nfd15FaceQueryFilterC2ERKNS_5BlockE@Base 0.4.1
 _ZN3ndn3nfd15FaceQueryFilterC2Ev@Base 0.4.1
 _ZN3ndn3nfd15ForwarderStatus10wireDecodeERKNS_5BlockE@Base 0.4.1
 _ZN3ndn3nfd15ForwarderStatus11setNInDatasEm@Base 0.4.1
 _ZN3ndn3nfd15ForwarderStatus11setNInNacksEm@Base 0.4.1
 _ZN3ndn3nfd15ForwarderStatus12setNOutDatasEm@Base 0.4.1
 _ZN3ndn3nfd15ForwarderStatus12setNOutNacksEm@Base 0.4.1
 _ZN3ndn3nfd15ForwarderStatus13setNCsEntriesEm@Base 0.4.1
 _ZN3ndn3nfd15ForwarderStatus13setNfdVersionERKNSt7__cxx1112basic_stringIcSt11char_traitsIcESaIcEEE@Base 0.4.1
 _ZN3ndn3nfd15ForwarderStatus14setNFibEntriesEm@Base 0.4.1
 _ZN3ndn3nfd15ForwarderStatus14setNPitEntriesEm@Base 0.4.1
 _ZN3ndn3nfd15ForwarderStatus15setNInInterestsEm@Base 0.4.1
 _ZN3ndn3nfd15ForwarderStatus16setNOutInterestsEm@Base 0.4.1
 _ZN3ndn3nfd15ForwarderStatus17setStartTimestampERKN5boost6chrono10time_pointINS_4time12system_clockENS3_8durationIlNS2_5ratioILl1ELl1000000000EEEEEEE@Base 0.4.1
 _ZN3ndn3nfd15ForwarderStatus19setCurrentTimestampERKN5boost6chrono10time_pointINS_4time12system_clockENS3_8durationIlNS2_5ratioILl1ELl1000000000EEEEEEE@Base 0.4.1
 _ZN3ndn3nfd15ForwarderStatus19setNNameTreeEntriesEm@Base 0.4.1
 _ZN3ndn3nfd15ForwarderStatus23setNMeasurementsEntriesEm@Base 0.4.1
 _ZN3ndn3nfd15ForwarderStatus5ErrorD0Ev@Base 0.4.1
 _ZN3ndn3nfd15ForwarderStatus5ErrorD1Ev@Base 0.4.1
 _ZN3ndn3nfd15ForwarderStatus5ErrorD2Ev@Base 0.4.1
 _ZN3ndn3nfd15ForwarderStatusC1ERKNS_5BlockE@Base 0.4.1
 _ZN3ndn3nfd15ForwarderStatusC1Ev@Base 0.4.1
 _ZN3ndn3nfd15ForwarderStatusC2ERKNS_5BlockE@Base 0.4.1
 _ZN3ndn3nfd15ForwarderStatusC2Ev@Base 0.4.1
 _ZN3ndn3nfd16FaceQueryDatasetC1ERKNS0_15FaceQueryFilterE@Base 0.4.1
 _ZN3ndn3nfd16FaceQueryDatasetC2ERKNS0_15FaceQueryFilterE@Base 0.4.1
 _ZN3ndn3nfd17ControlParameters10setFlagBitEmbb@Base 0.4.1
 _ZN3ndn3nfd17ControlParameters10wireDecodeERKNS_5BlockE@Base 0.4.1
 _ZN3ndn3nfd17ControlParameters12unsetFlagBitEm@Base 0.4.1
 _ZN3ndn3nfd17ControlParameters5ErrorD0Ev@Base 0.4.1
 _ZN3ndn3nfd17ControlParameters5ErrorD1Ev@Base 0.4.1
 _ZN3ndn3nfd17ControlParameters5ErrorD2Ev@Base 0.4.1
 _ZN3ndn3nfd17ControlParametersC1ERKNS_5BlockE@Base 0.4.1
 _ZN3ndn3nfd17ControlParametersC1Ev@Base 0.4.1
 _ZN3ndn3nfd17ControlParametersC2ERKNS_5BlockE@Base 0.4.1
 _ZN3ndn3nfd17ControlParametersC2Ev@Base 0.4.1
 _ZN3ndn3nfd17ControlParametersD1Ev@Base 0.4.1
 _ZN3ndn3nfd17ControlParametersD2Ev@Base 0.4.1
 _ZN3ndn3nfd17FaceCreateCommandC1Ev@Base 0.4.1
 _ZN3ndn3nfd17FaceCreateCommandC2Ev@Base 0.4.1
 _ZN3ndn3nfd17FaceCreateCommandD0Ev@Base 0.4.1
 _ZN3ndn3nfd17FaceCreateCommandD1Ev@Base 0.4.1
 _ZN3ndn3nfd17FaceCreateCommandD2Ev@Base 0.4.1
 _ZN3ndn3nfd17FaceUpdateCommandC1Ev@Base 0.4.1
 _ZN3ndn3nfd17FaceUpdateCommandC2Ev@Base 0.4.1
 _ZN3ndn3nfd17FaceUpdateCommandD0Ev@Base 0.4.1
 _ZN3ndn3nfd17FaceUpdateCommandD1Ev@Base 0.4.1
 _ZN3ndn3nfd17FaceUpdateCommandD2Ev@Base 0.4.1
 _ZN3ndn3nfd18FaceDestroyCommandC1Ev@Base 0.4.1
 _ZN3ndn3nfd18FaceDestroyCommandC2Ev@Base 0.4.1
 _ZN3ndn3nfd18FaceDestroyCommandD0Ev@Base 0.4.1
 _ZN3ndn3nfd18FaceDestroyCommandD1Ev@Base 0.4.1
 _ZN3ndn3nfd18FaceDestroyCommandD2Ev@Base 0.4.1
 _ZN3ndn3nfd18RibRegisterCommandC1Ev@Base 0.4.1
 _ZN3ndn3nfd18RibRegisterCommandC2Ev@Base 0.4.1
 _ZN3ndn3nfd18RibRegisterCommandD0Ev@Base 0.4.1
 _ZN3ndn3nfd18RibRegisterCommandD1Ev@Base 0.4.1
 _ZN3ndn3nfd18RibRegisterCommandD2Ev@Base 0.4.1
 _ZN3ndn3nfd20FibAddNextHopCommandC1Ev@Base 0.4.1
 _ZN3ndn3nfd20FibAddNextHopCommandC2Ev@Base 0.4.1
 _ZN3ndn3nfd20FibAddNextHopCommandD0Ev@Base 0.4.1
 _ZN3ndn3nfd20FibAddNextHopCommandD1Ev@Base 0.4.1
 _ZN3ndn3nfd20FibAddNextHopCommandD2Ev@Base 0.4.1
 _ZN3ndn3nfd20RibUnregisterCommandC1Ev@Base 0.4.1
 _ZN3ndn3nfd20RibUnregisterCommandC2Ev@Base 0.4.1
 _ZN3ndn3nfd20RibUnregisterCommandD0Ev@Base 0.4.1
 _ZN3ndn3nfd20RibUnregisterCommandD1Ev@Base 0.4.1
 _ZN3ndn3nfd20RibUnregisterCommandD2Ev@Base 0.4.1
 _ZN3ndn3nfd21FaceEventNotification10wireDecodeERKNS_5BlockE@Base 0.4.1
 _ZN3ndn3nfd21FaceEventNotification7setKindENS0_13FaceEventKindE@Base 0.4.1
 _ZN3ndn3nfd21FaceEventNotificationC1ERKNS_5BlockE@Base 0.4.1
 _ZN3ndn3nfd21FaceEventNotificationC1Ev@Base 0.4.1
 _ZN3ndn3nfd21FaceEventNotificationC2ERKNS_5BlockE@Base 0.4.1
 _ZN3ndn3nfd21FaceEventNotificationC2Ev@Base 0.4.1
 _ZN3ndn3nfd21StrategyChoiceDatasetC1Ev@Base 0.4.1
 _ZN3ndn3nfd21StrategyChoiceDatasetC2Ev@Base 0.4.1
 _ZN3ndn3nfd23FaceLocalControlCommandC1ERKNSt7__cxx1112basic_stringIcSt11char_traitsIcESaIcEEE@Base 0.4.1
 _ZN3ndn3nfd23FaceLocalControlCommandC2ERKNSt7__cxx1112basic_stringIcSt11char_traitsIcESaIcEEE@Base 0.4.1
 _ZN3ndn3nfd23FaceLocalControlCommandD0Ev@Base 0.4.1
 _ZN3ndn3nfd23FaceLocalControlCommandD1Ev@Base 0.4.1
 _ZN3ndn3nfd23FaceLocalControlCommandD2Ev@Base 0.4.1
 _ZN3ndn3nfd23FibRemoveNextHopCommandC1Ev@Base 0.4.1
 _ZN3ndn3nfd23FibRemoveNextHopCommandC2Ev@Base 0.4.1
 _ZN3ndn3nfd23FibRemoveNextHopCommandD0Ev@Base 0.4.1
 _ZN3ndn3nfd23FibRemoveNextHopCommandD1Ev@Base 0.4.1
 _ZN3ndn3nfd23FibRemoveNextHopCommandD2Ev@Base 0.4.1
 _ZN3ndn3nfd24StrategyChoiceSetCommandC1Ev@Base 0.4.1
 _ZN3ndn3nfd24StrategyChoiceSetCommandC2Ev@Base 0.4.1
 _ZN3ndn3nfd24StrategyChoiceSetCommandD0Ev@Base 0.4.1
 _ZN3ndn3nfd24StrategyChoiceSetCommandD1Ev@Base 0.4.1
 _ZN3ndn3nfd24StrategyChoiceSetCommandD2Ev@Base 0.4.1
 _ZN3ndn3nfd26StrategyChoiceUnsetCommandC1Ev@Base 0.4.1
 _ZN3ndn3nfd26StrategyChoiceUnsetCommandC2Ev@Base 0.4.1
 _ZN3ndn3nfd26StrategyChoiceUnsetCommandD0Ev@Base 0.4.1
 _ZN3ndn3nfd26StrategyChoiceUnsetCommandD1Ev@Base 0.4.1
 _ZN3ndn3nfd26StrategyChoiceUnsetCommandD2Ev@Base 0.4.1
 _ZN3ndn3nfd29FaceEnableLocalControlCommandC1Ev@Base 0.4.1
 _ZN3ndn3nfd29FaceEnableLocalControlCommandC2Ev@Base 0.4.1
 _ZN3ndn3nfd29FaceEnableLocalControlCommandD0Ev@Base 0.4.1
 _ZN3ndn3nfd29FaceEnableLocalControlCommandD1Ev@Base 0.4.1
 _ZN3ndn3nfd29FaceEnableLocalControlCommandD2Ev@Base 0.4.1
 _ZN3ndn3nfd29ForwarderGeneralStatusDatasetC1Ev@Base 0.4.1
 _ZN3ndn3nfd29ForwarderGeneralStatusDatasetC2Ev@Base 0.4.1
 _ZN3ndn3nfd30FaceDisableLocalControlCommandC1Ev@Base 0.4.1
 _ZN3ndn3nfd30FaceDisableLocalControlCommandC2Ev@Base 0.4.1
 _ZN3ndn3nfd30FaceDisableLocalControlCommandD0Ev@Base 0.4.1
 _ZN3ndn3nfd30FaceDisableLocalControlCommandD1Ev@Base 0.4.1
 _ZN3ndn3nfd30FaceDisableLocalControlCommandD2Ev@Base 0.4.1
 _ZN3ndn3nfd5Route10wireDecodeERKNS_5BlockE@Base 0.4.1
 _ZN3ndn3nfd5Route26INFINITE_EXPIRATION_PERIODE@Base 0.4.1
 _ZN3ndn3nfd5Route5ErrorD0Ev@Base 0.4.1
 _ZN3ndn3nfd5Route5ErrorD1Ev@Base 0.4.1
 _ZN3ndn3nfd5Route5ErrorD2Ev@Base 0.4.1
 _ZN3ndn3nfd5RouteC1ERKNS_5BlockE@Base 0.4.1
 _ZN3ndn3nfd5RouteC1Ev@Base 0.4.1
 _ZN3ndn3nfd5RouteC2ERKNS_5BlockE@Base 0.4.1
 _ZN3ndn3nfd5RouteC2Ev@Base 0.4.1
 _ZN3ndn3nfd8FibEntry10wireDecodeERKNS_5BlockE@Base 0.4.1
 _ZN3ndn3nfd8FibEntry16addNextHopRecordERKNS0_13NextHopRecordE@Base 0.4.1
 _ZN3ndn3nfd8FibEntry5ErrorD0Ev@Base 0.4.1
 _ZN3ndn3nfd8FibEntry5ErrorD1Ev@Base 0.4.1
 _ZN3ndn3nfd8FibEntry5ErrorD2Ev@Base 0.4.1
 _ZN3ndn3nfd8FibEntry9setPrefixERKNS_4NameE@Base 0.4.1
 _ZN3ndn3nfd8FibEntryC1ERKNS_5BlockE@Base 0.4.1
 _ZN3ndn3nfd8FibEntryC1Ev@Base 0.4.1
 _ZN3ndn3nfd8FibEntryC2ERKNS_5BlockE@Base 0.4.1
 _ZN3ndn3nfd8FibEntryC2Ev@Base 0.4.1
 _ZN3ndn3nfd8FibEntryD1Ev@Base 0.4.1
 _ZN3ndn3nfd8FibEntryD2Ev@Base 0.4.1
 _ZN3ndn3nfd8RibEntry10wireDecodeERKNS_5BlockE@Base 0.4.1
 _ZN3ndn3nfd8RibEntry5ErrorD0Ev@Base 0.4.1
 _ZN3ndn3nfd8RibEntry5ErrorD1Ev@Base 0.4.1
 _ZN3ndn3nfd8RibEntry5ErrorD2Ev@Base 0.4.1
 _ZN3ndn3nfd8RibEntryC1ERKNS_5BlockE@Base 0.4.1
 _ZN3ndn3nfd8RibEntryC1Ev@Base 0.4.1
 _ZN3ndn3nfd8RibEntryC2ERKNS_5BlockE@Base 0.4.1
 _ZN3ndn3nfd8RibEntryC2Ev@Base 0.4.1
 _ZN3ndn3nfd8RibEntryD1Ev@Base 0.4.1
 _ZN3ndn3nfd8RibEntryD2Ev@Base 0.4.1
 _ZN3ndn3nfdlsERSoNS0_10RouteFlagsE@Base 0.4.1
 _ZN3ndn3nfdlsERSoNS0_11RouteOriginE@Base 0.4.1
 _ZN3ndn3nfdlsERSoNS0_15FacePersistencyE@Base 0.4.1
 _ZN3ndn3nfdlsERSoNS0_8LinkTypeE@Base 0.4.1
 _ZN3ndn3nfdlsERSoNS0_9FaceScopeE@Base 0.4.1
 _ZN3ndn3nfdlsERSoRKNS0_10FaceStatusE@Base 0.4.1
 _ZN3ndn3nfdlsERSoRKNS0_15FaceQueryFilterE@Base 0.4.1
 _ZN3ndn3nfdlsERSoRKNS0_17ControlParametersE@Base 0.4.1
 _ZN3ndn3nfdlsERSoRKNS0_21FaceEventNotificationE@Base 0.4.1
 _ZN3ndn3nfdlsERSoRKNS0_5RouteE@Base 0.4.1
 _ZN3ndn3nfdlsERSoRKNS0_8RibEntryE@Base 0.4.1
 _ZN3ndn3oid14ATTRIBUTE_NAMEE@Base 0.4.1
 _ZN3ndn3oid3RSAE@Base 0.4.1
 _ZN3ndn3oid5ECDSAE@Base 0.4.1
 _ZN3ndn3tlv13readVarNumberIN9__gnu_cxx17__normal_iteratorIPKhSt6vectorIhSaIhEEEEEEmRT_RKSA_@Base 0.4.1
 _ZN3ndn3tlv5ErrorD0Ev@Base 0.4.1
 _ZN3ndn3tlv5ErrorD1Ev@Base 0.4.1
 _ZN3ndn3tlv5ErrorD2Ev@Base 0.4.1
 _ZN3ndn4Data10setContentEPKhm@Base 0.4.1
 _ZN3ndn4Data10setContentERKNS_5BlockE@Base 0.4.1
 _ZN3ndn4Data10setContentERKSt10shared_ptrIKNS_6BufferEE@Base 0.4.1
 _ZN3ndn4Data10wireDecodeERKNS_5BlockE@Base 0.4.1
 _ZN3ndn4Data11setMetaInfoERKNS_8MetaInfoE@Base 0.4.1
 _ZN3ndn4Data12setSignatureERKNS_9SignatureE@Base 0.4.1
 _ZN3ndn4Data14setContentTypeEj@Base 0.4.1
 _ZN3ndn4Data15setFinalBlockIdERKNS_4name9ComponentE@Base 0.4.1
 _ZN3ndn4Data17setSignatureValueERKNS_5BlockE@Base 0.4.1
 _ZN3ndn4Data18setFreshnessPeriodERKN5boost6chrono8durationIlNS1_5ratioILl1ELl1000EEEEE@Base 0.4.1
 _ZN3ndn4Data5ErrorD0Ev@Base 0.4.1
 _ZN3ndn4Data5ErrorD1Ev@Base 0.4.1
 _ZN3ndn4Data5ErrorD2Ev@Base 0.4.1
 _ZN3ndn4Data7setNameERKNS_4NameE@Base 0.4.1
 _ZN3ndn4Data9onChangedEv@Base 0.4.1
 _ZN3ndn4DataC1ERKNS_4NameE@Base 0.4.1
 _ZN3ndn4DataC1ERKNS_5BlockE@Base 0.4.1
 _ZN3ndn4DataC1ERKS0_@Base 0.4.1
 _ZN3ndn4DataC1Ev@Base 0.4.1
 _ZN3ndn4DataC2ERKNS_4NameE@Base 0.4.1
 _ZN3ndn4DataC2ERKNS_5BlockE@Base 0.4.1
 _ZN3ndn4DataC2ERKS0_@Base 0.4.1
 _ZN3ndn4DataC2Ev@Base 0.4.1
 _ZN3ndn4DataD1Ev@Base 0.4.1
 _ZN3ndn4DataD2Ev@Base 0.4.1
 _ZN3ndn4Face12getTransportEv@Base 0.4.1
 _ZN3ndn4Face13asyncShutdownEv@Base 0.4.1
 _ZN3ndn4Face14registerPrefixERKNS_4NameERKSt8functionIFvS3_EERKS4_IFvS3_RKNSt7__cxx1112basic_stringIcSt11char_traitsIcESaIcEEEEERKNS_8security11SigningInfoEm@Base 0.4.1
 _ZN3ndn4Face14registerPrefixERKNS_4NameERKSt8functionIFvS3_EERKS4_IFvS3_RKNSt7__cxx1112basic_stringIcSt11char_traitsIcESaIcEEEEERKNS_8security2v119IdentityCertificateEm@Base 0.4.1
 _ZN3ndn4Face14registerPrefixERKNS_4NameERKSt8functionIFvS3_EERKS4_IFvS3_RKNSt7__cxx1112basic_stringIcSt11char_traitsIcESaIcEEEEES3_m@Base 0.4.1
 _ZN3ndn4Face15doProcessEventsERKN5boost6chrono8durationIlNS1_5ratioILl1ELl1000EEEEEb@Base 0.4.1
 _ZN3ndn4Face15expressInterestERKNS_4NameERKNS_8InterestERKSt8functionIFvS6_RNS_4DataEEERKS7_IFvS6_EE@Base 0.4.1
 _ZN3ndn4Face15expressInterestERKNS_8InterestERKSt8functionIFvS3_RKNS_4DataEEERKS4_IFvS3_RKNS_2lp4NackEEERKS4_IFvS3_EE@Base 0.4.1
 _ZN3ndn4Face15expressInterestERKNS_8InterestERKSt8functionIFvS3_RNS_4DataEEERKS4_IFvS3_EE@Base 0.4.1
 _ZN3ndn4Face16onReceiveElementERKNS_5BlockE@Base 0.4.1
 _ZN3ndn4Face16unregisterPrefixEPKNS_18RegisteredPrefixIdERKSt8functionIFvvEERKS4_IFvRKNSt7__cxx1112basic_stringIcSt11char_traitsIcESaIcEEEEE@Base 0.4.1
 _ZN3ndn4Face17setInterestFilterERKNS_14InterestFilterERKSt8functionIFvS3_RKNS_8InterestEEE@Base 0.4.1
 _ZN3ndn4Face17setInterestFilterERKNS_14InterestFilterERKSt8functionIFvS3_RKNS_8InterestEEERKS4_IFvRKNS_4NameEEERKS4_IFvSE_RKNSt7__cxx1112basic_stringIcSt11char_traitsIcESaIcEEEEERKNS_8security11SigningInfoEm@Base 0.4.1
 _ZN3ndn4Face17setInterestFilterERKNS_14InterestFilterERKSt8functionIFvS3_RKNS_8InterestEEERKS4_IFvRKNS_4NameEEERKS4_IFvSE_RKNSt7__cxx1112basic_stringIcSt11char_traitsIcESaIcEEEEERKNS_8security2v119IdentityCertificateEm@Base 0.4.1
 _ZN3ndn4Face17setInterestFilterERKNS_14InterestFilterERKSt8functionIFvS3_RKNS_8InterestEEERKS4_IFvRKNS_4NameEEERKS4_IFvSE_RKNSt7__cxx1112basic_stringIcSt11char_traitsIcESaIcEEEEESE_m@Base 0.4.1
 _ZN3ndn4Face17setInterestFilterERKNS_14InterestFilterERKSt8functionIFvS3_RKNS_8InterestEEERKS4_IFvRKNS_4NameERKNSt7__cxx1112basic_stringIcSt11char_traitsIcESaIcEEEEERKNS_8security11SigningInfoEm@Base 0.4.1
 _ZN3ndn4Face17setInterestFilterERKNS_14InterestFilterERKSt8functionIFvS3_RKNS_8InterestEEERKS4_IFvRKNS_4NameERKNSt7__cxx1112basic_stringIcSt11char_traitsIcESaIcEEEEERKNS_8security2v119IdentityCertificateEm@Base 0.4.1
 _ZN3ndn4Face17setInterestFilterERKNS_14InterestFilterERKSt8functionIFvS3_RKNS_8InterestEEERKS4_IFvRKNS_4NameERKNSt7__cxx1112basic_stringIcSt11char_traitsIcESaIcEEEEESE_m@Base 0.4.1
 _ZN3ndn4Face19unsetInterestFilterEPKNS_16InterestFilterIdE@Base 0.4.1
 _ZN3ndn4Face19unsetInterestFilterEPKNS_18RegisteredPrefixIdE@Base 0.4.1
 _ZN3ndn4Face20makeDefaultTransportEv@Base 0.4.1
 _ZN3ndn4Face21removePendingInterestEPKNS_17PendingInterestIdE@Base 0.4.1
 _ZN3ndn4Face25removeAllPendingInterestsEv@Base 0.4.1
 _ZN3ndn4Face3putERKNS_2lp4NackE@Base 0.4.1
 _ZN3ndn4Face3putERKNS_4DataE@Base 0.4.1
 _ZN3ndn4Face4Impl14registerPrefixERKNS_4NameESt10shared_ptrINS_20InterestFilterRecordEERKSt8functionIFvS4_EERKS8_IFvS4_RKNSt7__cxx1112basic_stringIcSt11char_traitsIcESaIcEEEEEmRKNS_3nfd14CommandOptionsE@Base 0.4.1
 _ZN3ndn4Face4Impl15ensureConnectedEb@Base 0.4.1
 _ZN3ndn4Face4Impl20asyncExpressInterestESt10shared_ptrIKNS_8InterestEERKSt8functionIFvRS4_RKNS_4DataEEERKS6_IFvS7_RKNS_2lp4NackEEERKS6_IFvS7_EE@Base 0.4.1
 _ZN3ndn4Face4Impl20nackPendingInterestsERKNS_2lp4NackE@Base 0.4.1
 _ZN3ndn4Face4Impl21asyncUnregisterPrefixEPKNS_18RegisteredPrefixIdERKSt8functionIFvvEERKS5_IFvRKNSt7__cxx1112basic_stringIcSt11char_traitsIcESaIcEEEEE@Base 0.4.1
 _ZN3ndn4Face4Impl23satisfyPendingInterestsERKNS_4DataE@Base 0.4.1
 _ZN3ndn4Face5ErrorD0Ev@Base 0.4.1
 _ZN3ndn4Face5ErrorD1Ev@Base 0.4.1
 _ZN3ndn4Face5ErrorD2Ev@Base 0.4.1
 _ZN3ndn4Face8shutdownEv@Base 0.4.1
 _ZN3ndn4Face9constructESt10shared_ptrINS_9TransportEERNS_8security8KeyChainE@Base 0.4.1
 _ZN3ndn4FaceC1ERKNSt7__cxx1112basic_stringIcSt11char_traitsIcESaIcEEES8_@Base 0.4.1
 _ZN3ndn4FaceC1ERN5boost4asio10io_serviceE@Base 0.4.1
 _ZN3ndn4FaceC1ESt10shared_ptrINS_9TransportEE@Base 0.4.1
 _ZN3ndn4FaceC1ESt10shared_ptrINS_9TransportEERN5boost4asio10io_serviceE@Base 0.4.1
 _ZN3ndn4FaceC1ESt10shared_ptrINS_9TransportEERN5boost4asio10io_serviceERNS_8security8KeyChainE@Base 0.4.1
 _ZN3ndn4FaceC1ESt10shared_ptrINS_9TransportEERNS_8security8KeyChainE@Base 0.4.1
 _ZN3ndn4FaceC2ERKNSt7__cxx1112basic_stringIcSt11char_traitsIcESaIcEEES8_@Base 0.4.1
 _ZN3ndn4FaceC2ERN5boost4asio10io_serviceE@Base 0.4.1
 _ZN3ndn4FaceC2ESt10shared_ptrINS_9TransportEE@Base 0.4.1
 _ZN3ndn4FaceC2ESt10shared_ptrINS_9TransportEERN5boost4asio10io_serviceE@Base 0.4.1
 _ZN3ndn4FaceC2ESt10shared_ptrINS_9TransportEERN5boost4asio10io_serviceERNS_8security8KeyChainE@Base 0.4.1
 _ZN3ndn4FaceC2ESt10shared_ptrINS_9TransportEERNS_8security8KeyChainE@Base 0.4.1
 _ZN3ndn4FaceD1Ev@Base 0.4.1
 _ZN3ndn4FaceD2Ev@Base 0.4.1
 _ZN3ndn4Link10wireDecodeERKNS_5BlockE@Base 0.4.1
 _ZN3ndn4Link13addDelegationEjRKNS_4NameE@Base 0.4.1
 _ZN3ndn4Link13decodeContentEv@Base 0.4.1
 _ZN3ndn4Link13encodeContentEv@Base 0.4.1
 _ZN3ndn4Link16removeDelegationERKNS_4NameE@Base 0.4.1
 _ZN3ndn4Link21getDelegationFromWireERKNS_5BlockEm@Base 0.4.1
 _ZN3ndn4Link22findDelegationFromWireERKNS_5BlockERKNS_4NameE@Base 0.4.1
 _ZN3ndn4Link24countDelegationsFromWireERKNS_5BlockE@Base 0.4.1
 _ZN3ndn4Link24removeDelegationNoEncodeERKNS_4NameE@Base 0.4.1
 _ZN3ndn4Link5ErrorD0Ev@Base 0.4.1
 _ZN3ndn4Link5ErrorD1Ev@Base 0.4.1
 _ZN3ndn4Link5ErrorD2Ev@Base 0.4.1
 _ZN3ndn4LinkC1ERKNS_4NameE@Base 0.4.1
 _ZN3ndn4LinkC1ERKNS_4NameESt16initializer_listISt4pairIjS1_EE@Base 0.4.1
 _ZN3ndn4LinkC1ERKNS_5BlockE@Base 0.4.1
 _ZN3ndn4LinkC2ERKNS_4NameE@Base 0.4.1
 _ZN3ndn4LinkC2ERKNS_4NameESt16initializer_listISt4pairIjS1_EE@Base 0.4.1
 _ZN3ndn4LinkC2ERKNS_5BlockE@Base 0.4.1
 _ZN3ndn4Name10wireDecodeERKNS_5BlockE@Base 0.4.1
 _ZN3ndn4Name12appendNumberEm@Base 0.4.1
 _ZN3ndn4Name13appendSegmentEm@Base 0.4.1
 _ZN3ndn4Name13appendVersionEm@Base 0.4.1
 _ZN3ndn4Name13appendVersionEv@Base 0.4.1
 _ZN3ndn4Name15appendTimestampERKN5boost6chrono10time_pointINS_4time12system_clockENS2_8durationIlNS1_5ratioILl1ELl1000000000EEEEEEE@Base 0.4.1
 _ZN3ndn4Name19appendSegmentOffsetEm@Base 0.4.1
 _ZN3ndn4Name20appendSequenceNumberEm@Base 0.4.1
 _ZN3ndn4Name22appendNumberWithMarkerEhm@Base 0.4.1
 _ZN3ndn4Name26appendImplicitSha256DigestEPKhm@Base 0.4.1
 _ZN3ndn4Name26appendImplicitSha256DigestERKSt10shared_ptrIKNS_6BufferEE@Base 0.4.1
 _ZN3ndn4Name4nposE@Base 0.4.1
 _ZN3ndn4Name5ErrorD0Ev@Base 0.4.1
 _ZN3ndn4Name5ErrorD1Ev@Base 0.4.1
 _ZN3ndn4Name5ErrorD2Ev@Base 0.4.1
 _ZN3ndn4Name6appendEPKc@Base 0.4.1
 _ZN3ndn4Name6appendERKS0_@Base 0.4.1
 _ZN3ndn4NameC1ENSt7__cxx1112basic_stringIcSt11char_traitsIcESaIcEEE@Base 0.4.1
 _ZN3ndn4NameC1EPKc@Base 0.4.1
 _ZN3ndn4NameC1ERKNS_5BlockE@Base 0.4.1
 _ZN3ndn4NameC1ERKS0_@Base 0.4.1
 _ZN3ndn4NameC1Ev@Base 0.4.1
 _ZN3ndn4NameC2ENSt7__cxx1112basic_stringIcSt11char_traitsIcESaIcEEE@Base 0.4.1
 _ZN3ndn4NameC2EPKc@Base 0.4.1
 _ZN3ndn4NameC2ERKNS_5BlockE@Base 0.4.1
 _ZN3ndn4NameC2ERKS0_@Base 0.4.1
 _ZN3ndn4NameC2Ev@Base 0.4.1
 _ZN3ndn4NameD1Ev@Base 0.4.1
 _ZN3ndn4NameD2Ev@Base 0.4.1
 _ZN3ndn4mgmt10Dispatcher10sendOnFaceERKNS_4DataE@Base 0.4.1
 _ZN3ndn4mgmt10Dispatcher12addTopPrefixERKNS_4NameEbRKNS_8security11SigningInfoE@Base 0.4.1
 _ZN3ndn4mgmt10Dispatcher12queryStorageERKNS_4NameERKNS_8InterestERKSt8functionIFvS4_S7_EE@Base 0.4.1
 _ZN3ndn4mgmt10Dispatcher15removeTopPrefixERKNS_4NameE@Base 0.4.1
 _ZN3ndn4mgmt10Dispatcher16addStatusDatasetERKNS_4NameERKSt8functionIFvS4_RKNS_8InterestEPKNS0_17ControlParametersERKS5_IFvRKNSt7__cxx1112basic_stringIcSt11char_traitsIcESaIcEEEEERKS5_IFvNS0_11RejectReplyEEEEERKS5_IFvS4_S8_RNS0_20StatusDatasetContextEEE@Base 0.4.1
 _ZN3ndn4mgmt10Dispatcher16postNotificationERKNS_5BlockERKNS_4NameE@Base 0.4.1
 _ZN3ndn4mgmt10Dispatcher19sendControlResponseERKNS0_15ControlResponseERKNS_8InterestEb@Base 0.4.1
 _ZN3ndn4mgmt10Dispatcher21addNotificationStreamERKNS_4NameE@Base 0.4.1
 _ZN3ndn4mgmt10Dispatcher22isOverlappedWithOthersERKNS_4NameE@Base 0.4.1
 _ZN3ndn4mgmt10Dispatcher24sendStatusDatasetSegmentERKNS_4NameERKNS_5BlockEN5boost6chrono8durationIlNS8_5ratioILl1ELl1000EEEEEb@Base 0.4.1
 _ZN3ndn4mgmt10Dispatcher26afterAuthorizationRejectedENS0_11RejectReplyERKNS_8InterestE@Base 0.4.1
 _ZN3ndn4mgmt10Dispatcher28processStatusDatasetInterestERKNS_4NameERKNS_8InterestERKSt8functionIFvS4_S7_PKNS0_17ControlParametersERKS8_IFvRKNSt7__cxx1112basic_stringIcSt11char_traitsIcESaIcEEEEERKS8_IFvNS0_11RejectReplyEEEEERKS8_IFvSJ_S4_S7_SB_EERKS8_IFvSO_S7_EE@Base 0.4.1
 _ZN3ndn4mgmt10Dispatcher29processControlCommandInterestERKNS_4NameES4_RKNS_8InterestERKSt8functionIFSt10shared_ptrINS0_17ControlParametersEERKNS_4name9ComponentEEERKS8_IFvS4_S7_PKSA_RKS8_IFvRKNSt7__cxx1112basic_stringIcSt11char_traitsIcESaIcEEEEERKS8_IFvNS0_11RejectReplyEEEEERKS8_IFvST_S4_S7_SL_EERKS8_IFvSY_S7_EE@Base 0.4.1
 _ZN3ndn4mgmt10Dispatcher38processAuthorizedStatusDatasetInterestERKNSt7__cxx1112basic_stringIcSt11char_traitsIcESaIcEEERKNS_4NameERKNS_8InterestERKSt8functionIFvSC_SF_RNS0_20StatusDatasetContextEEE@Base 0.4.1
 _ZN3ndn4mgmt10Dispatcher39processAuthorizedControlCommandInterestERKNSt7__cxx1112basic_stringIcSt11char_traitsIcESaIcEEERKNS_4NameERKNS_8InterestEPKNS0_17ControlParametersERKSt8functionIFbRSH_EERKSJ_IFvSC_SF_SK_RKSJ_IFvRKNS0_15ControlResponseEEEEE@Base 0.4.1
 _ZN3ndn4mgmt10Dispatcher8sendDataERKNS_4NameERKNS_5BlockERKNS_8MetaInfoENS1_15SendDestinationEN5boost6chrono8durationIlNSC_5ratioILl1ELl1000EEEEE@Base 0.4.1
 _ZN3ndn4mgmt10DispatcherC1ERNS_4FaceERNS_8security8KeyChainERKNS4_11SigningInfoEm@Base 0.4.1
 _ZN3ndn4mgmt10DispatcherC2ERNS_4FaceERNS_8security8KeyChainERKNS4_11SigningInfoEm@Base 0.4.1
 _ZN3ndn4mgmt10DispatcherD0Ev@Base 0.4.1
 _ZN3ndn4mgmt10DispatcherD1Ev@Base 0.4.1
 _ZN3ndn4mgmt10DispatcherD2Ev@Base 0.4.1
 _ZN3ndn4mgmt15ControlResponse10wireDecodeERKNS_5BlockE@Base 0.4.1
 _ZN3ndn4mgmt15ControlResponse5ErrorD0Ev@Base 0.4.1
 _ZN3ndn4mgmt15ControlResponse5ErrorD1Ev@Base 0.4.1
 _ZN3ndn4mgmt15ControlResponse5ErrorD2Ev@Base 0.4.1
 _ZN3ndn4mgmt15ControlResponseC1ERKNS_5BlockE@Base 0.4.1
 _ZN3ndn4mgmt15ControlResponseC1EjRKNSt7__cxx1112basic_stringIcSt11char_traitsIcESaIcEEE@Base 0.4.1
 _ZN3ndn4mgmt15ControlResponseC1Ev@Base 0.4.1
 _ZN3ndn4mgmt15ControlResponseC2ERKNS_5BlockE@Base 0.4.1
 _ZN3ndn4mgmt15ControlResponseC2EjRKNSt7__cxx1112basic_stringIcSt11char_traitsIcESaIcEEE@Base 0.4.1
 _ZN3ndn4mgmt15ControlResponseC2Ev@Base 0.4.1
 _ZN3ndn4mgmt15ControlResponseD1Ev@Base 0.4.1
 _ZN3ndn4mgmt15ControlResponseD2Ev@Base 0.4.1
 _ZN3ndn4mgmt20StatusDatasetContext3endEv@Base 0.4.1
 _ZN3ndn4mgmt20StatusDatasetContext6appendERKNS_5BlockE@Base 0.4.1
 _ZN3ndn4mgmt20StatusDatasetContext6rejectERKNS0_15ControlResponseE@Base 0.4.1
 _ZN3ndn4mgmt20StatusDatasetContext9setExpiryERKN5boost6chrono8durationIlNS2_5ratioILl1ELl1000EEEEE@Base 0.4.1
 _ZN3ndn4mgmt20StatusDatasetContext9setPrefixERKNS_4NameE@Base 0.4.1
 _ZN3ndn4mgmt20StatusDatasetContextC1ERKNS_8InterestERKSt8functionIFvRKNS_4NameERKNS_5BlockEN5boost6chrono8durationIlNSC_5ratioILl1ELl1000EEEEEbEERKS5_IFvRKNS0_15ControlResponseEEE@Base 0.4.1
 _ZN3ndn4mgmt20StatusDatasetContextC2ERKNS_8InterestERKSt8functionIFvRKNS_4NameERKNS_5BlockEN5boost6chrono8durationIlNSC_5ratioILl1ELl1000EEEEEbEERKS5_IFvRKNS0_15ControlResponseEEE@Base 0.4.1
 _ZN3ndn4mgmt20StatusDatasetContextD1Ev@Base 0.4.1
 _ZN3ndn4mgmt20StatusDatasetContextD2Ev@Base 0.4.1
 _ZN3ndn4mgmt26makeAcceptAllAuthorizationB5cxx11Ev@Base 0.4.1
 _ZN3ndn4mgmtlsERSoRKNS0_15ControlResponseE@Base 0.4.1
 _ZN3ndn4name9Component10fromNumberEm@Base 0.4.1
 _ZN3ndn4name9Component10wireDecodeERKNS_5BlockE@Base 0.4.1
 _ZN3ndn4name9Component11fromSegmentEm@Base 0.4.1
 _ZN3ndn4name9Component11fromVersionEm@Base 0.4.1
 _ZN3ndn4name9Component13fromTimestampERKN5boost6chrono10time_pointINS_4time12system_clockENS3_8durationIlNS2_5ratioILl1ELl1000000000EEEEEEE@Base 0.4.1
 _ZN3ndn4name9Component17fromEscapedStringEPKcmm@Base 0.4.1
 _ZN3ndn4name9Component17fromSegmentOffsetEm@Base 0.4.1
 _ZN3ndn4name9Component18fromSequenceNumberEm@Base 0.4.1
 _ZN3ndn4name9Component20fromNumberWithMarkerEhm@Base 0.4.1
 _ZN3ndn4name9Component24fromImplicitSha256DigestEPKhm@Base 0.4.1
 _ZN3ndn4name9Component24fromImplicitSha256DigestERKSt10shared_ptrIKNS_6BufferEE@Base 0.4.1
 _ZN3ndn4name9Component5ErrorD0Ev@Base 0.4.1
 _ZN3ndn4name9Component5ErrorD1Ev@Base 0.4.1
 _ZN3ndn4name9Component5ErrorD2Ev@Base 0.4.1
 _ZN3ndn4name9ComponentC1EPKc@Base 0.4.1
 _ZN3ndn4name9ComponentC1EPKhm@Base 0.4.1
 _ZN3ndn4name9ComponentC1ERKNS_5BlockE@Base 0.4.1
 _ZN3ndn4name9ComponentC1ERKNS_6BufferE@Base 0.4.1
 _ZN3ndn4name9ComponentC1ERKNSt7__cxx1112basic_stringIcSt11char_traitsIcESaIcEEE@Base 0.4.1
 _ZN3ndn4name9ComponentC1ERKSt10shared_ptrIKNS_6BufferEE@Base 0.4.1
 _ZN3ndn4name9ComponentC1Ev@Base 0.4.1
 _ZN3ndn4name9ComponentC2EPKc@Base 0.4.1
 _ZN3ndn4name9ComponentC2EPKhm@Base 0.4.1
 _ZN3ndn4name9ComponentC2ERKNS_5BlockE@Base 0.4.1
 _ZN3ndn4name9ComponentC2ERKNS_6BufferE@Base 0.4.1
 _ZN3ndn4name9ComponentC2ERKNSt7__cxx1112basic_stringIcSt11char_traitsIcESaIcEEE@Base 0.4.1
 _ZN3ndn4name9ComponentC2ERKSt10shared_ptrIKNS_6BufferEE@Base 0.4.1
 _ZN3ndn4name9ComponentC2Ev@Base 0.4.1
 _ZN3ndn4name9ComponentD1Ev@Base 0.4.1
 _ZN3ndn4name9ComponentD2Ev@Base 0.4.1
 _ZN3ndn4time10fromStringERKNSt7__cxx1112basic_stringIcSt11char_traitsIcESaIcEEES8_RKSt6locale@Base 0.4.1
 _ZN3ndn4time11toIsoStringB5cxx11ERKN5boost6chrono10time_pointINS0_12system_clockENS2_8durationIlNS1_5ratioILl1ELl1000000000EEEEEEE@Base 0.4.1
 _ZN3ndn4time12getUnixEpochEv@Base 0.4.1
 _ZN3ndn4time12steady_clock17to_posix_durationERKN5boost6chrono8durationIlNS2_5ratioILl1ELl1000000000EEEEE@Base 0.4.1
 _ZN3ndn4time12steady_clock3nowEv@Base 0.4.1
 _ZN3ndn4time12system_clock11from_time_tEl@Base 0.4.1
 _ZN3ndn4time12system_clock3nowEv@Base 0.4.1
 _ZN3ndn4time12system_clock9to_time_tERKN5boost6chrono10time_pointIS1_NS3_8durationIlNS2_5ratioILl1ELl1000000000EEEEEEE@Base 0.4.1
 _ZN3ndn4time13UnitTestClockINS0_12steady_clockEE6setNowERKN5boost6chrono8durationIlNS4_5ratioILl1ELl1000000000EEEEE@Base 0.4.1
 _ZN3ndn4time13UnitTestClockINS0_12steady_clockEE7advanceERKN5boost6chrono8durationIlNS4_5ratioILl1ELl1000000000EEEEE@Base 0.4.1
 _ZN3ndn4time13UnitTestClockINS0_12steady_clockEEC1ERKN5boost6chrono8durationIlNS4_5ratioILl1ELl1000000000EEEEE@Base 0.4.1
 _ZN3ndn4time13UnitTestClockINS0_12steady_clockEEC2ERKN5boost6chrono8durationIlNS4_5ratioILl1ELl1000000000EEEEE@Base 0.4.1
 _ZN3ndn4time13UnitTestClockINS0_12steady_clockEED0Ev@Base 0.4.1
 _ZN3ndn4time13UnitTestClockINS0_12steady_clockEED1Ev@Base 0.4.1
 _ZN3ndn4time13UnitTestClockINS0_12steady_clockEED2Ev@Base 0.4.1
 _ZN3ndn4time13UnitTestClockINS0_12system_clockEE6setNowERKN5boost6chrono8durationIlNS4_5ratioILl1ELl1000000000EEEEE@Base 0.4.1
 _ZN3ndn4time13UnitTestClockINS0_12system_clockEE7advanceERKN5boost6chrono8durationIlNS4_5ratioILl1ELl1000000000EEEEE@Base 0.4.1
 _ZN3ndn4time13UnitTestClockINS0_12system_clockEEC1ERKN5boost6chrono8durationIlNS4_5ratioILl1ELl1000000000EEEEE@Base 0.4.1
 _ZN3ndn4time13UnitTestClockINS0_12system_clockEEC2ERKN5boost6chrono8durationIlNS4_5ratioILl1ELl1000000000EEEEE@Base 0.4.1
 _ZN3ndn4time13UnitTestClockINS0_12system_clockEED0Ev@Base 0.4.1
 _ZN3ndn4time13UnitTestClockINS0_12system_clockEED1Ev@Base 0.4.1
 _ZN3ndn4time13UnitTestClockINS0_12system_clockEED2Ev@Base 0.4.1
 _ZN3ndn4time13fromIsoStringERKNSt7__cxx1112basic_stringIcSt11char_traitsIcESaIcEEE@Base 0.4.1
 _ZN3ndn4time15setCustomClocksESt10shared_ptrINS0_11CustomClockINS0_12steady_clockEEEES1_INS2_INS0_12system_clockEEEE@Base 0.4.1
 _ZN3ndn4time15toUnixTimestampERKN5boost6chrono10time_pointINS0_12system_clockENS2_8durationIlNS1_5ratioILl1ELl1000000000EEEEEEE@Base 0.4.1
 _ZN3ndn4time17fromUnixTimestampERKN5boost6chrono8durationIlNS1_5ratioILl1ELl1000EEEEE@Base 0.4.1
 _ZN3ndn4time8toStringERKN5boost6chrono10time_pointINS0_12system_clockENS2_8durationIlNS1_5ratioILl1ELl1000000000EEEEEEERKNSt7__cxx1112basic_stringIcSt11char_traitsIcESaIcEEERKSt6locale@Base 0.4.1
 _ZN3ndn4trimERNSt7__cxx1112basic_stringIcSt11char_traitsIcESaIcEEE@Base 0.4.1
 _ZN3ndn4util13parseLogLevelERKNSt7__cxx1112basic_stringIcSt11char_traitsIcESaIcEEE@Base 0.4.1
 _ZN3ndn4util14IndentedStream9StreamBuf4syncEv@Base 0.4.1
 _ZN3ndn4util14IndentedStream9StreamBufC1ERSoRKNSt7__cxx1112basic_stringIcSt11char_traitsIcESaIcEEE@Base 0.4.1
 _ZN3ndn4util14IndentedStream9StreamBufC2ERSoRKNSt7__cxx1112basic_stringIcSt11char_traitsIcESaIcEEE@Base 0.4.1
 _ZN3ndn4util14IndentedStream9StreamBufD0Ev@Base 0.4.1
 _ZN3ndn4util14IndentedStream9StreamBufD1Ev@Base 0.4.1
 _ZN3ndn4util14IndentedStream9StreamBufD2Ev@Base 0.4.1
 _ZN3ndn4util14IndentedStreamC1ERSoRKNSt7__cxx1112basic_stringIcSt11char_traitsIcESaIcEEE@Base 0.4.1
 _ZN3ndn4util14IndentedStreamC2ERSoRKNSt7__cxx1112basic_stringIcSt11char_traitsIcESaIcEEE@Base 0.4.1
 _ZN3ndn4util14IndentedStreamD0Ev@Base 0.4.1
 _ZN3ndn4util14IndentedStreamD1Ev@Base 0.4.1
 _ZN3ndn4util14IndentedStreamD2Ev@Base 0.4.1
 _ZN3ndn4util14NetworkMonitor4Impl18onReceiveRtNetlinkERKN5boost6system10error_codeEm@Base 0.4.1
 _ZN3ndn4util14NetworkMonitor4ImplC1ERS1_RN5boost4asio10io_serviceE@Base 0.4.1
 _ZN3ndn4util14NetworkMonitor4ImplC2ERS1_RN5boost4asio10io_serviceE@Base 0.4.1
 _ZN3ndn4util14NetworkMonitor5ErrorD0Ev@Base 0.4.1
 _ZN3ndn4util14NetworkMonitor5ErrorD1Ev@Base 0.4.1
 _ZN3ndn4util14NetworkMonitor5ErrorD2Ev@Base 0.4.1
 _ZN3ndn4util14NetworkMonitorC1ERN5boost4asio10io_serviceE@Base 0.4.1
 _ZN3ndn4util14NetworkMonitorC2ERN5boost4asio10io_serviceE@Base 0.4.1
 _ZN3ndn4util14NetworkMonitorD1Ev@Base 0.4.1
 _ZN3ndn4util14NetworkMonitorD2Ev@Base 0.4.1
 _ZN3ndn4util14SegmentFetcher16fetchNextSegmentERKNS_8InterestERKNS_4NameEmSt10shared_ptrIS1_E@Base 0.4.1
 _ZN3ndn4util14SegmentFetcher17afterNackReceivedERKNS_8InterestERKNS_2lp4NackEjSt10shared_ptrIS1_E@Base 0.4.1
 _ZN3ndn4util14SegmentFetcher17fetchFirstSegmentERKNS_8InterestESt10shared_ptrIS1_E@Base 0.4.1
 _ZN3ndn4util14SegmentFetcher17reExpressInterestENS_8InterestEjSt10shared_ptrIS1_E@Base 0.4.1
 _ZN3ndn4util14SegmentFetcher20afterSegmentReceivedERKNS_8InterestERKNS_4DataEbSt10shared_ptrIS1_E@Base 0.4.1
 _ZN3ndn4util14SegmentFetcher22MAX_INTEREST_REEXPRESSE@Base 0.4.1
 _ZN3ndn4util14SegmentFetcher22afterValidationFailureESt10shared_ptrIKNS_4DataEE@Base 0.4.1
 _ZN3ndn4util14SegmentFetcher22afterValidationSuccessESt10shared_ptrIKNS_4DataEEbRKNS_8InterestES2_IS1_E@Base 0.4.1
 _ZN3ndn4util14SegmentFetcher5fetchERNS_4FaceERKNS_8InterestERNS_8security9ValidatorERKSt8functionIFvRKSt10shared_ptrIKNS_6BufferEEEERKSA_IFvjRKNSt7__cxx1112basic_stringIcSt11char_traitsIcESaIcEEEEE@Base 0.4.1
 _ZN3ndn4util14SegmentFetcher5fetchERNS_4FaceERKNS_8InterestESt10shared_ptrINS_8security9ValidatorEERKSt8functionIFvRKS7_IKNS_6BufferEEEERKSB_IFvjRKNSt7__cxx1112basic_stringIcSt11char_traitsIcESaIcEEEEE@Base 0.4.1
 _ZN3ndn4util14SegmentFetcherC1ERNS_4FaceESt10shared_ptrINS_8security9ValidatorEERKSt8functionIFvRKS4_IKNS_6BufferEEEERKS8_IFvjRKNSt7__cxx1112basic_stringIcSt11char_traitsIcESaIcEEEEE@Base 0.4.1
 _ZN3ndn4util14SegmentFetcherC2ERNS_4FaceESt10shared_ptrINS_8security9ValidatorEERKSt8functionIFvRKS4_IKNS_6BufferEEEERKS8_IFvjRKNSt7__cxx1112basic_stringIcSt11char_traitsIcESaIcEEEEE@Base 0.4.1
 _ZN3ndn4util14SegmentFetcherD1Ev@Base 0.4.1
 _ZN3ndn4util14SegmentFetcherD2Ev@Base 0.4.1
 _ZN3ndn4util15DummyClientFace15doProcessEventsERKN5boost6chrono8durationIlNS2_5ratioILl1ELl1000EEEEEb@Base 0.4.1
 _ZN3ndn4util15DummyClientFace19enablePacketLoggingEv@Base 0.4.1
 _ZN3ndn4util15DummyClientFace23enableRegistrationReplyEv@Base 0.4.1
 _ZN3ndn4util15DummyClientFace7receiveINS_2lp4NackEEEvRKT_@Base 0.4.1
 _ZN3ndn4util15DummyClientFace7receiveINS_4DataEEEvRKT_@Base 0.4.1
 _ZN3ndn4util15DummyClientFace7receiveINS_8InterestEEEvRKT_@Base 0.4.1
 _ZN3ndn4util15DummyClientFace9Transport4sendERKNS_5BlockE@Base 0.4.1
 _ZN3ndn4util15DummyClientFace9Transport4sendERKNS_5BlockES5_@Base 0.4.1
 _ZN3ndn4util15DummyClientFace9Transport5closeEv@Base 0.4.1
 _ZN3ndn4util15DummyClientFace9Transport5pauseEv@Base 0.4.1
 _ZN3ndn4util15DummyClientFace9Transport6resumeEv@Base 0.4.1
 _ZN3ndn4util15DummyClientFace9TransportD0Ev@Base 0.4.1
 _ZN3ndn4util15DummyClientFace9TransportD1Ev@Base 0.4.1
 _ZN3ndn4util15DummyClientFace9TransportD2Ev@Base 0.4.1
 _ZN3ndn4util15DummyClientFace9constructERKNS1_7OptionsE@Base 0.4.1
 _ZN3ndn4util15DummyClientFaceC1ERKNS1_7OptionsE@Base 0.4.1
 _ZN3ndn4util15DummyClientFaceC1ERN5boost4asio10io_serviceERKNS1_7OptionsE@Base 0.4.1
 _ZN3ndn4util15DummyClientFaceC1ERN5boost4asio10io_serviceERNS_8security8KeyChainERKNS1_7OptionsE@Base 0.4.1
 _ZN3ndn4util15DummyClientFaceC1ERNS_8security8KeyChainERKNS1_7OptionsE@Base 0.4.1
 _ZN3ndn4util15DummyClientFaceC2ERKNS1_7OptionsE@Base 0.4.1
 _ZN3ndn4util15DummyClientFaceC2ERN5boost4asio10io_serviceERKNS1_7OptionsE@Base 0.4.1
 _ZN3ndn4util15DummyClientFaceC2ERN5boost4asio10io_serviceERNS_8security8KeyChainERKNS1_7OptionsE@Base 0.4.1
 _ZN3ndn4util15DummyClientFaceC2ERNS_8security8KeyChainERKNS1_7OptionsE@Base 0.4.1
 _ZN3ndn4util15InMemoryStorage11ZERO_WINDOWE@Base 0.4.1
 _ZN3ndn4util15InMemoryStorage11afterAccessEPNS0_20InMemoryStorageEntryE@Base 0.4.1
 _ZN3ndn4util15InMemoryStorage11afterInsertEPNS0_20InMemoryStorageEntryE@Base 0.4.1
 _ZN3ndn4util15InMemoryStorage11beforeEraseEPNS0_20InMemoryStorageEntryE@Base 0.4.1
 _ZN3ndn4util15InMemoryStorage11setCapacityEm@Base 0.4.1
 _ZN3ndn4util15InMemoryStorage14const_iteratorC1EPKNS_4DataEPKN5boost11multi_index21multi_index_containerIPNS0_20InMemoryStorageEntryENS7_10indexed_byINS7_14ordered_uniqueINS7_3tagINS1_10byFullNameEN4mpl_2naESG_SG_SG_SG_SG_SG_SG_SG_SG_SG_SG_SG_SG_SG_SG_SG_SG_SG_EENS7_13const_mem_funIS9_RKNS_4NameEXadL_ZNKS9_11getFullNameEvEEEESt4lessISJ_EEESG_SG_SG_SG_SG_SG_SG_SG_SG_SG_SG_SG_SG_SG_SG_SG_SG_SG_SG_EESaISA_EEENS7_6detail19bidir_node_iteratorINSV_18ordered_index_nodeINSV_19null_augment_policyENSV_15index_node_baseISA_SR_EEEEEE@Base 0.4.1
 _ZN3ndn4util15InMemoryStorage14const_iteratorC2EPKNS_4DataEPKN5boost11multi_index21multi_index_containerIPNS0_20InMemoryStorageEntryENS7_10indexed_byINS7_14ordered_uniqueINS7_3tagINS1_10byFullNameEN4mpl_2naESG_SG_SG_SG_SG_SG_SG_SG_SG_SG_SG_SG_SG_SG_SG_SG_SG_SG_EENS7_13const_mem_funIS9_RKNS_4NameEXadL_ZNKS9_11getFullNameEvEEEESt4lessISJ_EEESG_SG_SG_SG_SG_SG_SG_SG_SG_SG_SG_SG_SG_SG_SG_SG_SG_SG_SG_EESaISA_EEENS7_6detail19bidir_node_iteratorINSV_18ordered_index_nodeINSV_19null_augment_policyENSV_15index_node_baseISA_SR_EEEEEE@Base 0.4.1
 _ZN3ndn4util15InMemoryStorage14const_iteratordeEv@Base 0.4.1
 _ZN3ndn4util15InMemoryStorage14const_iteratoreqERKS2_@Base 0.4.1
 _ZN3ndn4util15InMemoryStorage14const_iteratorneERKS2_@Base 0.4.1
 _ZN3ndn4util15InMemoryStorage14const_iteratorppEi@Base 0.4.1
 _ZN3ndn4util15InMemoryStorage14const_iteratorppEv@Base 0.4.1
 _ZN3ndn4util15InMemoryStorage14const_iteratorptEv@Base 0.4.1
 _ZN3ndn4util15InMemoryStorage15INFINITE_WINDOWE@Base 0.4.1
 _ZN3ndn4util15InMemoryStorage4findERKNS_4NameE@Base 0.4.1
 _ZN3ndn4util15InMemoryStorage4findERKNS_8InterestE@Base 0.4.1
 _ZN3ndn4util15InMemoryStorage4initEv@Base 0.4.1
 _ZN3ndn4util15InMemoryStorage5ErrorD0Ev@Base 0.4.1
 _ZN3ndn4util15InMemoryStorage5ErrorD1Ev@Base 0.4.1
 _ZN3ndn4util15InMemoryStorage5ErrorD2Ev@Base 0.4.1
 _ZN3ndn4util15InMemoryStorage5eraseERKNS_4NameEb@Base 0.4.1
 _ZN3ndn4util15InMemoryStorage6insertERKNS_4DataERKN5boost6chrono8durationIlNS5_5ratioILl1ELl1000EEEEE@Base 0.4.1
 _ZN3ndn4util15InMemoryStorage9eraseImplERKNS_4NameE@Base 0.4.1
 _ZN3ndn4util15InMemoryStorage9freeEntryEN5boost11multi_index6detail19bidir_node_iteratorINS4_18ordered_index_nodeINS4_19null_augment_policyENS4_15index_node_baseIPNS0_20InMemoryStorageEntryESaISA_EEEEEEE@Base 0.4.1
 _ZN3ndn4util15InMemoryStorageC1ERN5boost4asio10io_serviceEm@Base 0.4.1
 _ZN3ndn4util15InMemoryStorageC1Em@Base 0.4.1
 _ZN3ndn4util15InMemoryStorageC2ERN5boost4asio10io_serviceEm@Base 0.4.1
 _ZN3ndn4util15InMemoryStorageC2Em@Base 0.4.1
 _ZN3ndn4util15InMemoryStorageD0Ev@Base 0.4.1
 _ZN3ndn4util15InMemoryStorageD1Ev@Base 0.4.1
 _ZN3ndn4util15InMemoryStorageD2Ev@Base 0.4.1
 _ZN3ndn4util16Sqlite3Statement4bindEiPKcmPFvPvE@Base 0.4.1
 _ZN3ndn4util16Sqlite3Statement4bindEiPKvmPFvPvE@Base 0.4.1
 _ZN3ndn4util16Sqlite3Statement4bindEiRKNS_5BlockEPFvPvE@Base 0.4.1
 _ZN3ndn4util16Sqlite3Statement4bindEiRKNSt7__cxx1112basic_stringIcSt11char_traitsIcESaIcEEEPFvPvE@Base 0.4.1
 _ZN3ndn4util16Sqlite3Statement4bindEii@Base 0.4.1
 _ZN3ndn4util16Sqlite3Statement4stepEv@Base 0.4.1
 _ZN3ndn4util16Sqlite3Statement6getIntEi@Base 0.4.1
 _ZN3ndn4util16Sqlite3Statement7getBlobEi@Base 0.4.1
 _ZN3ndn4util16Sqlite3Statement7getSizeEi@Base 0.4.1
 _ZN3ndn4util16Sqlite3Statement8getBlockEi@Base 0.4.1
 _ZN3ndn4util16Sqlite3Statement9getStringB5cxx11Ei@Base 0.4.1
 _ZN3ndn4util16Sqlite3StatementC1EP7sqlite3RKNSt7__cxx1112basic_stringIcSt11char_traitsIcESaIcEEE@Base 0.4.1
 _ZN3ndn4util16Sqlite3StatementC2EP7sqlite3RKNSt7__cxx1112basic_stringIcSt11char_traitsIcESaIcEEE@Base 0.4.1
 _ZN3ndn4util16Sqlite3StatementD1Ev@Base 0.4.1
 _ZN3ndn4util16Sqlite3StatementD2Ev@Base 0.4.1
 _ZN3ndn4util16Sqlite3StatementcvP12sqlite3_stmtEv@Base 0.4.1
 _ZN3ndn4util18InMemoryStorageLfu11afterAccessEPNS0_20InMemoryStorageEntryE@Base 0.4.1
 _ZN3ndn4util18InMemoryStorageLfu11afterInsertEPNS0_20InMemoryStorageEntryE@Base 0.4.1
 _ZN3ndn4util18InMemoryStorageLfu11beforeEraseEPNS0_20InMemoryStorageEntryE@Base 0.4.1
 _ZN3ndn4util18InMemoryStorageLfu18incrementFrequencyERNS1_12CleanupEntryE@Base 0.4.1
 _ZN3ndn4util18InMemoryStorageLfu9evictItemEv@Base 0.4.1
 _ZN3ndn4util18InMemoryStorageLfuC1ERN5boost4asio10io_serviceEm@Base 0.4.1
 _ZN3ndn4util18InMemoryStorageLfuC1Em@Base 0.4.1
 _ZN3ndn4util18InMemoryStorageLfuC2ERN5boost4asio10io_serviceEm@Base 0.4.1
 _ZN3ndn4util18InMemoryStorageLfuC2Em@Base 0.4.1
 _ZN3ndn4util18InMemoryStorageLfuD0Ev@Base 0.4.1
 _ZN3ndn4util18InMemoryStorageLfuD1Ev@Base 0.4.1
 _ZN3ndn4util18InMemoryStorageLfuD2Ev@Base 0.4.1
 _ZN3ndn4util18InMemoryStorageLru11afterAccessEPNS0_20InMemoryStorageEntryE@Base 0.4.1
 _ZN3ndn4util18InMemoryStorageLru11afterInsertEPNS0_20InMemoryStorageEntryE@Base 0.4.1
 _ZN3ndn4util18InMemoryStorageLru11beforeEraseEPNS0_20InMemoryStorageEntryE@Base 0.4.1
 _ZN3ndn4util18InMemoryStorageLru9evictItemEv@Base 0.4.1
 _ZN3ndn4util18InMemoryStorageLruC1ERN5boost4asio10io_serviceEm@Base 0.4.1
 _ZN3ndn4util18InMemoryStorageLruC1Em@Base 0.4.1
 _ZN3ndn4util18InMemoryStorageLruC2ERN5boost4asio10io_serviceEm@Base 0.4.1
 _ZN3ndn4util18InMemoryStorageLruC2Em@Base 0.4.1
 _ZN3ndn4util18InMemoryStorageLruD0Ev@Base 0.4.1
 _ZN3ndn4util18InMemoryStorageLruD1Ev@Base 0.4.1
 _ZN3ndn4util18InMemoryStorageLruD2Ev@Base 0.4.1
 _ZN3ndn4util19InMemoryStorageFifo11afterInsertEPNS0_20InMemoryStorageEntryE@Base 0.4.1
 _ZN3ndn4util19InMemoryStorageFifo11beforeEraseEPNS0_20InMemoryStorageEntryE@Base 0.4.1
 _ZN3ndn4util19InMemoryStorageFifo9evictItemEv@Base 0.4.1
 _ZN3ndn4util19InMemoryStorageFifoC1ERN5boost4asio10io_serviceEm@Base 0.4.1
 _ZN3ndn4util19InMemoryStorageFifoC1Em@Base 0.4.1
 _ZN3ndn4util19InMemoryStorageFifoC2ERN5boost4asio10io_serviceEm@Base 0.4.1
 _ZN3ndn4util19InMemoryStorageFifoC2Em@Base 0.4.1
 _ZN3ndn4util19InMemoryStorageFifoD0Ev@Base 0.4.1
 _ZN3ndn4util19InMemoryStorageFifoD1Ev@Base 0.4.1
 _ZN3ndn4util19InMemoryStorageFifoD2Ev@Base 0.4.1
 _ZN3ndn4util19TcpCanonizeProviderD0Ev@Base 0.4.1
 _ZN3ndn4util19TcpCanonizeProviderD1Ev@Base 0.4.1
 _ZN3ndn4util19TcpCanonizeProviderD2Ev@Base 0.4.1
 _ZN3ndn4util19UdpCanonizeProviderD0Ev@Base 0.4.1
 _ZN3ndn4util19UdpCanonizeProviderD1Ev@Base 0.4.1
 _ZN3ndn4util19UdpCanonizeProviderD2Ev@Base 0.4.1
 _ZN3ndn4util20InMemoryStorageEntry19setMarkStaleEventIdEOSt10unique_ptrINS0_9scheduler13ScopedEventIdESt14default_deleteIS4_EE@Base 0.4.1
 _ZN3ndn4util20InMemoryStorageEntry7releaseEv@Base 0.4.1
 _ZN3ndn4util20InMemoryStorageEntry7setDataERKNS_4DataE@Base 0.4.1
 _ZN3ndn4util20InMemoryStorageEntry9markStaleEv@Base 0.4.1
 _ZN3ndn4util20InMemoryStorageEntryC1Ev@Base 0.4.1
 _ZN3ndn4util20InMemoryStorageEntryC2Ev@Base 0.4.1
 _ZN3ndn4util21EtherCanonizeProviderD0Ev@Base 0.4.1
 _ZN3ndn4util21EtherCanonizeProviderD1Ev@Base 0.4.1
 _ZN3ndn4util21EtherCanonizeProviderD2Ev@Base 0.4.1
 _ZN3ndn4util22IpHostCanonizeProviderIN5boost4asio2ip3tcpEED0Ev@Base 0.4.1
 _ZN3ndn4util22IpHostCanonizeProviderIN5boost4asio2ip3tcpEED1Ev@Base 0.4.1
 _ZN3ndn4util22IpHostCanonizeProviderIN5boost4asio2ip3tcpEED2Ev@Base 0.4.1
 _ZN3ndn4util22IpHostCanonizeProviderIN5boost4asio2ip3udpEED0Ev@Base 0.4.1
 _ZN3ndn4util22IpHostCanonizeProviderIN5boost4asio2ip3udpEED1Ev@Base 0.4.1
 _ZN3ndn4util22IpHostCanonizeProviderIN5boost4asio2ip3udpEED2Ev@Base 0.4.1
 _ZN3ndn4util25InMemoryStoragePersistent9evictItemEv@Base 0.4.1
 _ZN3ndn4util25InMemoryStoragePersistentC1ERN5boost4asio10io_serviceE@Base 0.4.1
 _ZN3ndn4util25InMemoryStoragePersistentC1Ev@Base 0.4.1
 _ZN3ndn4util25InMemoryStoragePersistentC2ERN5boost4asio10io_serviceE@Base 0.4.1
 _ZN3ndn4util25InMemoryStoragePersistentC2Ev@Base 0.4.1
 _ZN3ndn4util25InMemoryStoragePersistentD0Ev@Base 0.4.1
 _ZN3ndn4util25InMemoryStoragePersistentD1Ev@Base 0.4.1
 _ZN3ndn4util25InMemoryStoragePersistentD2Ev@Base 0.4.1
 _ZN3ndn4util32CanonizeProviderTableInitializerclINS0_19TcpCanonizeProviderEEEvPT_@Base 0.4.1
 _ZN3ndn4util32CanonizeProviderTableInitializerclINS0_19UdpCanonizeProviderEEEvPT_@Base 0.4.1
 _ZN3ndn4util32CanonizeProviderTableInitializerclINS0_21EtherCanonizeProviderEEEvPT_@Base 0.4.1
 _ZN3ndn4util6DigestIN8CryptoPP6SHA256EE13computeDigestEPKhm@Base 0.4.1
 _ZN3ndn4util6DigestIN8CryptoPP6SHA256EE13computeDigestEv@Base 0.4.1
 _ZN3ndn4util6DigestIN8CryptoPP6SHA256EE5ErrorC1ERKNSt7__cxx1112basic_stringIcSt11char_traitsIcESaIcEEE@Base 0.4.1
 _ZN3ndn4util6DigestIN8CryptoPP6SHA256EE5ErrorC2ERKNSt7__cxx1112basic_stringIcSt11char_traitsIcESaIcEEE@Base 0.4.1
 _ZN3ndn4util6DigestIN8CryptoPP6SHA256EE5ErrorD0Ev@Base 0.4.1
 _ZN3ndn4util6DigestIN8CryptoPP6SHA256EE5ErrorD1Ev@Base 0.4.1
 _ZN3ndn4util6DigestIN8CryptoPP6SHA256EE5ErrorD2Ev@Base 0.4.1
 _ZN3ndn4util6DigestIN8CryptoPP6SHA256EE5resetEv@Base 0.4.1
 _ZN3ndn4util6DigestIN8CryptoPP6SHA256EE6updateEPKhm@Base 0.4.1
 _ZN3ndn4util6DigestIN8CryptoPP6SHA256EE8finalizeEv@Base 0.4.1
 _ZN3ndn4util6DigestIN8CryptoPP6SHA256EE8toStringB5cxx11Ev@Base 0.4.1
 _ZN3ndn4util6DigestIN8CryptoPP6SHA256EEC1ERSi@Base 0.4.1
 _ZN3ndn4util6DigestIN8CryptoPP6SHA256EEC1Ev@Base 0.4.1
 _ZN3ndn4util6DigestIN8CryptoPP6SHA256EEC2ERSi@Base 0.4.1
 _ZN3ndn4util6DigestIN8CryptoPP6SHA256EEC2Ev@Base 0.4.1
 _ZN3ndn4util6DigestIN8CryptoPP6SHA256EEeqERS4_@Base 0.4.1
 _ZN3ndn4util6DigestIN8CryptoPP6SHA256EElsERKNS_5BlockE@Base 0.4.1
 _ZN3ndn4util6DigestIN8CryptoPP6SHA256EElsERKNSt7__cxx1112basic_stringIcSt11char_traitsIcESaIcEEE@Base 0.4.1
 _ZN3ndn4util6DigestIN8CryptoPP6SHA256EElsERS4_@Base 0.4.1
 _ZN3ndn4util6DigestIN8CryptoPP6SHA256EElsEm@Base 0.4.1
 _ZN3ndn4util6DigestIN8CryptoPP6SHA256EEneERS4_@Base 0.4.1
 _ZN3ndn4util6LoggerC1ERKNSt7__cxx1112basic_stringIcSt11char_traitsIcESaIcEEE@Base 0.4.1
 _ZN3ndn4util6LoggerC2ERKNSt7__cxx1112basic_stringIcSt11char_traitsIcESaIcEEE@Base 0.4.1
 _ZN3ndn4util6LoggerD1Ev@Base 0.4.1
 _ZN3ndn4util6LoggerD2Ev@Base 0.4.1
 _ZN3ndn4util6signal10Connection10disconnectEv@Base 0.4.1
 _ZN3ndn4util6signal10ConnectionC1ESt8weak_ptrISt8functionIFvvEEE@Base 0.4.1
 _ZN3ndn4util6signal10ConnectionC1Ev@Base 0.4.1
 _ZN3ndn4util6signal10ConnectionC2ESt8weak_ptrISt8functionIFvvEEE@Base 0.4.1
 _ZN3ndn4util6signal10ConnectionC2Ev@Base 0.4.1
 _ZN3ndn4util6signal16ScopedConnection10disconnectEv@Base 0.4.1
 _ZN3ndn4util6signal16ScopedConnection7releaseEv@Base 0.4.1
 _ZN3ndn4util6signal16ScopedConnectionC1EOS2_@Base 0.4.1
 _ZN3ndn4util6signal16ScopedConnectionC1ERKNS1_10ConnectionE@Base 0.4.1
 _ZN3ndn4util6signal16ScopedConnectionC1Ev@Base 0.4.1
 _ZN3ndn4util6signal16ScopedConnectionC2EOS2_@Base 0.4.1
 _ZN3ndn4util6signal16ScopedConnectionC2ERKNS1_10ConnectionE@Base 0.4.1
 _ZN3ndn4util6signal16ScopedConnectionC2Ev@Base 0.4.1
 _ZN3ndn4util6signal16ScopedConnectionD1Ev@Base 0.4.1
 _ZN3ndn4util6signal16ScopedConnectionD2Ev@Base 0.4.1
 _ZN3ndn4util6signal16ScopedConnectionaSERKNS1_10ConnectionE@Base 0.4.1
 _ZN3ndn4util6signal6SignalINS0_14NetworkMonitorEJEEclEv@Base 0.4.1
 _ZN3ndn4util6signal6SignalINS0_15DummyClientFace9TransportEJNS_5BlockEEE10disconnectESt14_List_iteratorINS6_4SlotEE@Base 0.4.1
 _ZN3ndn4util6signal6SignalINS0_15DummyClientFace9TransportEJNS_5BlockEEE7connectERKSt8functionIFvRKS5_EE@Base 0.4.1
 _ZN3ndn4util6signal6SignalINS0_15DummyClientFace9TransportEJNS_5BlockEEEclERKS5_@Base 0.4.1
 _ZN3ndn4util6signal6SignalINS0_15DummyClientFaceEJNS_2lp4NackEEE10disconnectESt14_List_iteratorINS6_4SlotEE@Base 0.4.1
 _ZN3ndn4util6signal6SignalINS0_15DummyClientFaceEJNS_2lp4NackEEE7connectERKSt8functionIFvRKS5_EE@Base 0.4.1
 _ZN3ndn4util6signal6SignalINS0_15DummyClientFaceEJNS_2lp4NackEEEclERKS5_@Base 0.4.1
 _ZN3ndn4util6signal6SignalINS0_15DummyClientFaceEJNS_4DataEEE10disconnectESt14_List_iteratorINS5_4SlotEE@Base 0.4.1
 _ZN3ndn4util6signal6SignalINS0_15DummyClientFaceEJNS_4DataEEE7connectERKSt8functionIFvRKS4_EE@Base 0.4.1
 _ZN3ndn4util6signal6SignalINS0_15DummyClientFaceEJNS_4DataEEEclERKS4_@Base 0.4.1
 _ZN3ndn4util6signal6SignalINS0_15DummyClientFaceEJNS_8InterestEEE10disconnectESt14_List_iteratorINS5_4SlotEE@Base 0.4.1
 _ZN3ndn4util6signal6SignalINS0_15DummyClientFaceEJNS_8InterestEEE7connectERKSt8functionIFvRKS4_EE@Base 0.4.1
 _ZN3ndn4util6signal6SignalINS0_15DummyClientFaceEJNS_8InterestEEEclERKS4_@Base 0.4.1
 _ZN3ndn4util6signal6SignalINS_26ContainerWithOnEmptySignalISt10shared_ptrINS_15PendingInterestEEEEJEE10disconnectESt14_List_iteratorINS8_4SlotEE@Base 0.4.1
 _ZN3ndn4util6signal6SignalINS_26ContainerWithOnEmptySignalISt10shared_ptrINS_15PendingInterestEEEEJEE7connectERKSt8functionIFvvEE@Base 0.4.1
 _ZN3ndn4util6signal6SignalINS_26ContainerWithOnEmptySignalISt10shared_ptrINS_15PendingInterestEEEEJEEclEv@Base 0.4.1
 _ZN3ndn4util6signal6SignalINS_26ContainerWithOnEmptySignalISt10shared_ptrINS_16RegisteredPrefixEEEEJEE10disconnectESt14_List_iteratorINS8_4SlotEE@Base 0.4.1
 _ZN3ndn4util6signal6SignalINS_26ContainerWithOnEmptySignalISt10shared_ptrINS_16RegisteredPrefixEEEEJEE7connectERKSt8functionIFvvEE@Base 0.4.1
 _ZN3ndn4util6signal6SignalINS_26ContainerWithOnEmptySignalISt10shared_ptrINS_16RegisteredPrefixEEEEJEEclEv@Base 0.4.1
 _ZN3ndn4util7FaceUri11canCanonizeERKNSt7__cxx1112basic_stringIcSt11char_traitsIcESaIcEEE@Base 0.4.1
 _ZN3ndn4util7FaceUri5ErrorD0Ev@Base 0.4.1
 _ZN3ndn4util7FaceUri5ErrorD1Ev@Base 0.4.1
 _ZN3ndn4util7FaceUri5ErrorD2Ev@Base 0.4.1
 _ZN3ndn4util7FaceUri5parseERKNSt7__cxx1112basic_stringIcSt11char_traitsIcESaIcEEE@Base 0.4.1
 _ZN3ndn4util7FaceUri6fromFdEi@Base 0.4.1
 _ZN3ndn4util7FaceUri7fromDevERKNSt7__cxx1112basic_stringIcSt11char_traitsIcESaIcEEE@Base 0.4.1
 _ZN3ndn4util7FaceUriC1EPKc@Base 0.4.1
 _ZN3ndn4util7FaceUriC1ERKN5boost4asio2ip14basic_endpointINS4_3tcpEEE@Base 0.4.1
 _ZN3ndn4util7FaceUriC1ERKN5boost4asio2ip14basic_endpointINS4_3tcpEEERKNSt7__cxx1112basic_stringIcSt11char_traitsIcESaIcEEE@Base 0.4.1
 _ZN3ndn4util7FaceUriC1ERKN5boost4asio2ip14basic_endpointINS4_3udpEEE@Base 0.4.1
 _ZN3ndn4util7FaceUriC1ERKN5boost4asio5local14basic_endpointINS4_15stream_protocolEEE@Base 0.4.1
 _ZN3ndn4util7FaceUriC1ERKNS0_8ethernet7AddressE@Base 0.4.1
 _ZN3ndn4util7FaceUriC1ERKNSt7__cxx1112basic_stringIcSt11char_traitsIcESaIcEEE@Base 0.4.1
 _ZN3ndn4util7FaceUriC1Ev@Base 0.4.1
 _ZN3ndn4util7FaceUriC2EPKc@Base 0.4.1
 _ZN3ndn4util7FaceUriC2ERKN5boost4asio2ip14basic_endpointINS4_3tcpEEE@Base 0.4.1
 _ZN3ndn4util7FaceUriC2ERKN5boost4asio2ip14basic_endpointINS4_3tcpEEERKNSt7__cxx1112basic_stringIcSt11char_traitsIcESaIcEEE@Base 0.4.1
 _ZN3ndn4util7FaceUriC2ERKN5boost4asio2ip14basic_endpointINS4_3udpEEE@Base 0.4.1
 _ZN3ndn4util7FaceUriC2ERKN5boost4asio5local14basic_endpointINS4_15stream_protocolEEE@Base 0.4.1
 _ZN3ndn4util7FaceUriC2ERKNS0_8ethernet7AddressE@Base 0.4.1
 _ZN3ndn4util7FaceUriC2ERKNSt7__cxx1112basic_stringIcSt11char_traitsIcESaIcEEE@Base 0.4.1
 _ZN3ndn4util7FaceUriC2Ev@Base 0.4.1
 _ZN3ndn4util7FaceUriD1Ev@Base 0.4.1
 _ZN3ndn4util7FaceUriD2Ev@Base 0.4.1
 _ZN3ndn4util7Logging12setLevelImplERKNSt7__cxx1112basic_stringIcSt11char_traitsIcESaIcEEE@Base 0.4.1
 _ZN3ndn4util7Logging12setLevelImplERKNSt7__cxx1112basic_stringIcSt11char_traitsIcESaIcEEENS0_8LogLevelE@Base 0.4.1
 _ZN3ndn4util7Logging13addLoggerImplERNS0_6LoggerE@Base 0.4.1
 _ZN3ndn4util7Logging14setDestinationERSo@Base 0.4.1
 _ZN3ndn4util7Logging15setDefaultLevelENS0_8LogLevelE@Base 0.4.1
 _ZN3ndn4util7Logging18setDestinationImplESt10shared_ptrISoE@Base 0.4.1
 _ZN3ndn4util7Logging3getEv@Base 0.4.1
 _ZN3ndn4util7Logging9flushImplEv@Base 0.4.1
 _ZN3ndn4util7LoggingC1Ev@Base 0.4.1
 _ZN3ndn4util7LoggingC2Ev@Base 0.4.1
 _ZN3ndn4util7LoggingD1Ev@Base 0.4.1
 _ZN3ndn4util7LoggingD2Ev@Base 0.4.1
 _ZN3ndn4util8ethernet19getBroadcastAddressEv@Base 0.4.1
 _ZN3ndn4util8ethernet26getDefaultMulticastAddressEv@Base 0.4.1
 _ZN3ndn4util8ethernet7Address10fromStringERKNSt7__cxx1112basic_stringIcSt11char_traitsIcESaIcEEE@Base 0.4.1
 _ZN3ndn4util8ethernet7AddressC1EPKh@Base 0.4.1
 _ZN3ndn4util8ethernet7AddressC1Ehhhhhh@Base 0.4.1
 _ZN3ndn4util8ethernet7AddressC1Ev@Base 0.4.1
 _ZN3ndn4util8ethernet7AddressC2EPKh@Base 0.4.1
 _ZN3ndn4util8ethernet7AddressC2Ehhhhhh@Base 0.4.1
 _ZN3ndn4util8ethernet7AddressC2Ev@Base 0.4.1
 _ZN3ndn4util8ethernetlsERSoRKNS1_7AddressE@Base 0.4.1
 _ZN3ndn4util9scheduler13ScopedEventId6cancelEv@Base 0.4.1
 _ZN3ndn4util9scheduler13ScopedEventId7releaseEv@Base 0.4.1
 _ZN3ndn4util9scheduler13ScopedEventIdC1EOS2_@Base 0.4.1
 _ZN3ndn4util9scheduler13ScopedEventIdC1ERNS1_9SchedulerE@Base 0.4.1
 _ZN3ndn4util9scheduler13ScopedEventIdC2EOS2_@Base 0.4.1
 _ZN3ndn4util9scheduler13ScopedEventIdC2ERNS1_9SchedulerE@Base 0.4.1
 _ZN3ndn4util9scheduler13ScopedEventIdD1Ev@Base 0.4.1
 _ZN3ndn4util9scheduler13ScopedEventIdD2Ev@Base 0.4.1
 _ZN3ndn4util9scheduler13ScopedEventIdaSERKNS1_7EventIdE@Base 0.4.1
 _ZN3ndn4util9scheduler9Scheduler11cancelEventERKNS1_7EventIdE@Base 0.4.1
 _ZN3ndn4util9scheduler9Scheduler12executeEventERKN5boost6system10error_codeE@Base 0.4.1
 _ZN3ndn4util9scheduler9Scheduler12scheduleNextEv@Base 0.4.1
 _ZN3ndn4util9scheduler9Scheduler13scheduleEventERKN5boost6chrono8durationIlNS3_5ratioILl1ELl1000000000EEEEERKSt8functionIFvvEE@Base 0.4.1
 _ZN3ndn4util9scheduler9Scheduler15cancelAllEventsEv@Base 0.4.1
 _ZN3ndn4util9scheduler9SchedulerC1ERN5boost4asio10io_serviceE@Base 0.4.1
 _ZN3ndn4util9scheduler9SchedulerC2ERN5boost4asio10io_serviceE@Base 0.4.1
 _ZN3ndn4util9scheduler9SchedulerD1Ev@Base 0.4.1
 _ZN3ndn4util9scheduler9SchedulerD2Ev@Base 0.4.1
 _ZN3ndn4util9schedulerlsERSoRKNS1_7EventIdE@Base 0.4.1
 _ZN3ndn4utillsERSoNS0_8LogLevelE@Base 0.4.1
 _ZN3ndn4utillsERSoRKNS0_15LoggerTimestampE@Base 0.4.1
 _ZN3ndn4utillsERSoRKNS0_7FaceUriE@Base 0.4.1
 _ZN3ndn4utillsIN8CryptoPP6SHA256EEERSoS4_RNS0_6DigestIT_EE@Base 0.4.1
 _ZN3ndn5Block10fromBufferEPKhm@Base 0.4.1
 _ZN3ndn5Block10fromBufferESt10shared_ptrIKNS_6BufferEEm@Base 0.4.1
 _ZN3ndn5Block10fromStreamERSi@Base 0.4.1
 _ZN3ndn5Block5ErrorD0Ev@Base 0.4.1
 _ZN3ndn5Block5ErrorD1Ev@Base 0.4.1
 _ZN3ndn5Block5ErrorD2Ev@Base 0.4.1
 _ZN3ndn5Block5eraseEN9__gnu_cxx17__normal_iteratorIPKS0_St6vectorIS0_SaIS0_EEEE@Base 0.4.1
 _ZN3ndn5Block5eraseEN9__gnu_cxx17__normal_iteratorIPKS0_St6vectorIS0_SaIS0_EEEES8_@Base 0.4.1
 _ZN3ndn5Block5resetEv@Base 0.4.1
 _ZN3ndn5Block6encodeEv@Base 0.4.1
 _ZN3ndn5Block6insertEN9__gnu_cxx17__normal_iteratorIPKS0_St6vectorIS0_SaIS0_EEEERS3_@Base 0.4.1
 _ZN3ndn5Block6removeEj@Base 0.4.1
 _ZN3ndn5Block9push_backERKS0_@Base 0.4.1
 _ZN3ndn5Block9resetWireEv@Base 0.4.1
 _ZN3ndn5BlockC1EPKhm@Base 0.4.1
 _ZN3ndn5BlockC1EPKvm@Base 0.4.1
 _ZN3ndn5BlockC1ERKNS_8encoding12EncodingImplILb1EEE@Base 0.4.1
 _ZN3ndn5BlockC1ERKS0_@Base 0.4.1
 _ZN3ndn5BlockC1ERKS0_RKN9__gnu_cxx17__normal_iteratorIPKhSt6vectorIhSaIhEEEESC_b@Base 0.4.1
 _ZN3ndn5BlockC1ERKSt10shared_ptrIKNS_6BufferEE@Base 0.4.1
 _ZN3ndn5BlockC1ERKSt10shared_ptrIKNS_6BufferEERKN9__gnu_cxx17__normal_iteratorIPKhSt6vectorIhSaIhEEEESG_b@Base 0.4.1
 _ZN3ndn5BlockC1ERKSt10shared_ptrIKNS_6BufferEEjRKN9__gnu_cxx17__normal_iteratorIPKhSt6vectorIhSaIhEEEESG_SG_SG_@Base 0.4.1
 _ZN3ndn5BlockC1Ej@Base 0.4.1
 _ZN3ndn5BlockC1EjRKS0_@Base 0.4.1
 _ZN3ndn5BlockC1EjRKSt10shared_ptrIKNS_6BufferEE@Base 0.4.1
 _ZN3ndn5BlockC1Ev@Base 0.4.1
 _ZN3ndn5BlockC2EPKhm@Base 0.4.1
 _ZN3ndn5BlockC2EPKvm@Base 0.4.1
 _ZN3ndn5BlockC2ERKNS_8encoding12EncodingImplILb1EEE@Base 0.4.1
 _ZN3ndn5BlockC2ERKS0_@Base 0.4.1
 _ZN3ndn5BlockC2ERKS0_RKN9__gnu_cxx17__normal_iteratorIPKhSt6vectorIhSaIhEEEESC_b@Base 0.4.1
 _ZN3ndn5BlockC2ERKSt10shared_ptrIKNS_6BufferEE@Base 0.4.1
 _ZN3ndn5BlockC2ERKSt10shared_ptrIKNS_6BufferEERKN9__gnu_cxx17__normal_iteratorIPKhSt6vectorIhSaIhEEEESG_b@Base 0.4.1
 _ZN3ndn5BlockC2ERKSt10shared_ptrIKNS_6BufferEEjRKN9__gnu_cxx17__normal_iteratorIPKhSt6vectorIhSaIhEEEESG_SG_SG_@Base 0.4.1
 _ZN3ndn5BlockC2Ej@Base 0.4.1
 _ZN3ndn5BlockC2EjRKS0_@Base 0.4.1
 _ZN3ndn5BlockC2EjRKSt10shared_ptrIKNS_6BufferEE@Base 0.4.1
 _ZN3ndn5BlockC2Ev@Base 0.4.1
 _ZN3ndn5BlockD1Ev@Base 0.4.1
 _ZN3ndn5BlockD2Ev@Base 0.4.1
 _ZN3ndn5BlockaSEOS0_@Base 0.4.1
 _ZN3ndn5BlockaSERKS0_@Base 0.4.1
 _ZN3ndn5toHexB5cxx11EPKhmb@Base 0.4.1
 _ZN3ndn5toHexB5cxx11ERKNS_6BufferEb@Base 0.4.1
 _ZN3ndn6BufferC1EPKvm@Base 0.4.1
 _ZN3ndn6BufferC1Em@Base 0.4.1
 _ZN3ndn6BufferC1Ev@Base 0.4.1
 _ZN3ndn6BufferC2EPKvm@Base 0.4.1
 _ZN3ndn6BufferC2Em@Base 0.4.1
 _ZN3ndn6BufferC2Ev@Base 0.4.1
 _ZN3ndn6crypto19computeSha256DigestEPKhm@Base 0.4.1
 _ZN3ndn6detail18BufferAppendDevice5writeEPKcl@Base 0.4.1
 _ZN3ndn6detail18BufferAppendDeviceC1ERNS_6BufferE@Base 0.4.1
 _ZN3ndn6detail18BufferAppendDeviceC2ERNS_6BufferE@Base 0.4.1
 _ZN3ndn6random14generateWord32Ev@Base 0.4.1
 _ZN3ndn6random14generateWord64Ev@Base 0.4.1
 _ZN3ndn6random19generateSecureBytesEPhm@Base 0.4.1
 _ZN3ndn6random20generateSecureWord32Ev@Base 0.4.1
 _ZN3ndn6random20generateSecureWord64Ev@Base 0.4.1
 _ZN3ndn7Exclude10excludeOneERKNS_4name9ComponentE@Base 0.4.1
 _ZN3ndn7Exclude10wireDecodeERKNS_5BlockE@Base 0.4.1
 _ZN3ndn7Exclude12excludeAfterERKNS_4name9ComponentE@Base 0.4.1
 _ZN3ndn7Exclude12excludeRangeERKNS0_16ExcludeComponentERKNS_4name9ComponentE@Base 0.4.1
 _ZN3ndn7Exclude12excludeRangeERKNS_4name9ComponentES4_@Base 0.4.1
 _ZN3ndn7Exclude13excludeBeforeERKNS_4name9ComponentE@Base 0.4.1
 _ZN3ndn7Exclude14const_iterator6updateEv@Base 0.4.1
 _ZN3ndn7Exclude14const_iteratorC1ESt16reverse_iteratorISt23_Rb_tree_const_iteratorISt4pairIKNS0_16ExcludeComponentEbEEES9_@Base 0.4.1
 _ZN3ndn7Exclude14const_iteratorC2ESt16reverse_iteratorISt23_Rb_tree_const_iteratorISt4pairIKNS0_16ExcludeComponentEbEEES9_@Base 0.4.1
 _ZN3ndn7Exclude14const_iteratorppEi@Base 0.4.1
 _ZN3ndn7Exclude14const_iteratorppEv@Base 0.4.1
 _ZN3ndn7Exclude16ExcludeComponentC1ERKNS_4name9ComponentE@Base 0.4.1
 _ZN3ndn7Exclude16ExcludeComponentC1Eb@Base 0.4.1
 _ZN3ndn7Exclude16ExcludeComponentC2ERKNS_4name9ComponentE@Base 0.4.1
 _ZN3ndn7Exclude16ExcludeComponentC2Eb@Base 0.4.1
 _ZN3ndn7Exclude5ErrorD0Ev@Base 0.4.1
 _ZN3ndn7Exclude5ErrorD1Ev@Base 0.4.1
 _ZN3ndn7Exclude5ErrorD2Ev@Base 0.4.1
 _ZN3ndn7Exclude5clearEv@Base 0.4.1
 _ZN3ndn7ExcludeC1ERKNS_5BlockE@Base 0.4.1
 _ZN3ndn7ExcludeC1Ev@Base 0.4.1
 _ZN3ndn7ExcludeC2ERKNS_5BlockE@Base 0.4.1
 _ZN3ndn7ExcludeC2Ev@Base 0.4.1
 _ZN3ndn7SecRule5ErrorD0Ev@Base 0.4.1
 _ZN3ndn7SecRule5ErrorD1Ev@Base 0.4.1
 _ZN3ndn7SecRule5ErrorD2Ev@Base 0.4.1
 _ZN3ndn7fromHexERKNSt7__cxx1112basic_stringIcSt11char_traitsIcESaIcEEE@Base 0.4.1
 _ZN3ndn8Interest10wireDecodeERKNS_5BlockE@Base 0.4.1
 _ZN3ndn8Interest12refreshNonceEv@Base 0.4.1
 _ZN3ndn8Interest21setSelectedDelegationERKNS_4NameE@Base 0.4.1
 _ZN3ndn8Interest21setSelectedDelegationEm@Base 0.4.1
 _ZN3ndn8Interest23unsetSelectedDelegationEv@Base 0.4.1
 _ZN3ndn8Interest5ErrorD0Ev@Base 0.4.1
 _ZN3ndn8Interest5ErrorD1Ev@Base 0.4.1
 _ZN3ndn8Interest5ErrorD2Ev@Base 0.4.1
 _ZN3ndn8Interest7setLinkERKNS_5BlockE@Base 0.4.1
 _ZN3ndn8Interest8setNonceEj@Base 0.4.1
 _ZN3ndn8Interest9unsetLinkEv@Base 0.4.1
 _ZN3ndn8InterestC1EOS0_@Base 0.4.1
 _ZN3ndn8InterestC1ERKNS_4NameE@Base 0.4.1
 _ZN3ndn8InterestC1ERKNS_4NameERKN5boost6chrono8durationIlNS4_5ratioILl1ELl1000EEEEE@Base 0.4.1
 _ZN3ndn8InterestC1ERKNS_5BlockE@Base 0.4.1
 _ZN3ndn8InterestC1ERKS0_@Base 0.4.1
 _ZN3ndn8InterestC1Ev@Base 0.4.1
 _ZN3ndn8InterestC2EOS0_@Base 0.4.1
 _ZN3ndn8InterestC2ERKNS_4NameE@Base 0.4.1
 _ZN3ndn8InterestC2ERKNS_4NameERKN5boost6chrono8durationIlNS4_5ratioILl1ELl1000EEEEE@Base 0.4.1
 _ZN3ndn8InterestC2ERKNS_5BlockE@Base 0.4.1
 _ZN3ndn8InterestC2ERKS0_@Base 0.4.1
 _ZN3ndn8InterestC2Ev@Base 0.4.1
 _ZN3ndn8InterestD1Ev@Base 0.4.1
 _ZN3ndn8InterestD2Ev@Base 0.4.1
 _ZN3ndn8MetaInfo10wireDecodeERKNS_5BlockE@Base 0.4.1
 _ZN3ndn8MetaInfo14addAppMetaInfoERKNS_5BlockE@Base 0.4.1
 _ZN3ndn8MetaInfo14setAppMetaInfoERKNSt7__cxx114listINS_5BlockESaIS3_EEE@Base 0.4.1
 _ZN3ndn8MetaInfo15setFinalBlockIdERKNS_4name9ComponentE@Base 0.4.1
 _ZN3ndn8MetaInfo17removeAppMetaInfoEj@Base 0.4.1
 _ZN3ndn8MetaInfo18setFreshnessPeriodERKN5boost6chrono8durationIlNS1_5ratioILl1ELl1000EEEEE@Base 0.4.1
 _ZN3ndn8MetaInfo5ErrorD0Ev@Base 0.4.1
 _ZN3ndn8MetaInfo5ErrorD1Ev@Base 0.4.1
 _ZN3ndn8MetaInfo5ErrorD2Ev@Base 0.4.1
 _ZN3ndn8MetaInfo7setTypeEj@Base 0.4.1
 _ZN3ndn8MetaInfoC1ERKNS_5BlockE@Base 0.4.1
 _ZN3ndn8MetaInfoC1Ev@Base 0.4.1
 _ZN3ndn8MetaInfoC2ERKNS_5BlockE@Base 0.4.1
 _ZN3ndn8MetaInfoC2Ev@Base 0.4.1
 _ZN3ndn8MetaInfoD1Ev@Base 0.4.1
 _ZN3ndn8MetaInfoD2Ev@Base 0.4.1
 _ZN3ndn8encoding10readStringB5cxx11ERKNS_5BlockE@Base 0.4.1
 _ZN3ndn8encoding14makeEmptyBlockEj@Base 0.4.1
 _ZN3ndn8encoding15makeBinaryBlockEjPKcm@Base 0.4.1
 _ZN3ndn8encoding15makeBinaryBlockEjPKhm@Base 0.4.1
 _ZN3ndn8encoding15makeStringBlockEjRKNSt7__cxx1112basic_stringIcSt11char_traitsIcESaIcEEE@Base 0.4.1
 _ZN3ndn8encoding17prependEmptyBlockILb0EEEmRNS0_12EncodingImplIXT_EEEj@Base 0.4.1
 _ZN3ndn8encoding17prependEmptyBlockILb1EEEmRNS0_12EncodingImplIXT_EEEj@Base 0.4.1
 _ZN3ndn8encoding18prependStringBlockILb0EEEmRNS0_12EncodingImplIXT_EEEjRKNSt7__cxx1112basic_stringIcSt11char_traitsIcESaIcEEE@Base 0.4.1
 _ZN3ndn8encoding18prependStringBlockILb1EEEmRNS0_12EncodingImplIXT_EEEjRKNSt7__cxx1112basic_stringIcSt11char_traitsIcESaIcEEE@Base 0.4.1
 _ZN3ndn8encoding22readNonNegativeIntegerERKNS_5BlockE@Base 0.4.1
 _ZN3ndn8encoding27makeNonNegativeIntegerBlockEjm@Base 0.4.1
 _ZN3ndn8encoding30prependNonNegativeIntegerBlockILb0EEEmRNS0_12EncodingImplIXT_EEEjm@Base 0.4.1
 _ZN3ndn8encoding30prependNonNegativeIntegerBlockILb1EEEmRNS0_12EncodingImplIXT_EEEjm@Base 0.4.1
 _ZN3ndn8encoding7Encoder10appendByteEh@Base 0.4.1
 _ZN3ndn8encoding7Encoder11appendBlockERKNS_5BlockE@Base 0.4.1
 _ZN3ndn8encoding7Encoder11prependByteEh@Base 0.4.1
 _ZN3ndn8encoding7Encoder11reserveBackEm@Base 0.4.1
 _ZN3ndn8encoding7Encoder12prependBlockERKNS_5BlockE@Base 0.4.1
 _ZN3ndn8encoding7Encoder12reserveFrontEm@Base 0.4.1
 _ZN3ndn8encoding7Encoder15appendByteArrayEPKhm@Base 0.4.1
 _ZN3ndn8encoding7Encoder15appendVarNumberEm@Base 0.4.1
 _ZN3ndn8encoding7Encoder16prependByteArrayEPKhm@Base 0.4.1
 _ZN3ndn8encoding7Encoder16prependVarNumberEm@Base 0.4.1
 _ZN3ndn8encoding7Encoder20appendByteArrayBlockEjPKhm@Base 0.4.1
 _ZN3ndn8encoding7Encoder21prependByteArrayBlockEjPKhm@Base 0.4.1
 _ZN3ndn8encoding7Encoder24appendNonNegativeIntegerEm@Base 0.4.1
 _ZN3ndn8encoding7Encoder25prependNonNegativeIntegerEm@Base 0.4.1
 _ZN3ndn8encoding7Encoder7reserveEmb@Base 0.4.1
 _ZN3ndn8encoding7EncoderC1ERKNS_5BlockE@Base 0.4.1
 _ZN3ndn8encoding7EncoderC1Emm@Base 0.4.1
 _ZN3ndn8encoding7EncoderC2ERKNS_5BlockE@Base 0.4.1
 _ZN3ndn8encoding7EncoderC2Emm@Base 0.4.1
 _ZN3ndn8encoding9Estimator10appendByteEh@Base 0.4.1
 _ZN3ndn8encoding9Estimator11appendBlockERKNS_5BlockE@Base 0.4.1
 _ZN3ndn8encoding9Estimator11prependByteEh@Base 0.4.1
 _ZN3ndn8encoding9Estimator12prependBlockERKNS_5BlockE@Base 0.4.1
 _ZN3ndn8encoding9Estimator15appendByteArrayEPKhm@Base 0.4.1
 _ZN3ndn8encoding9Estimator15appendVarNumberEm@Base 0.4.1
 _ZN3ndn8encoding9Estimator16prependByteArrayEPKhm@Base 0.4.1
 _ZN3ndn8encoding9Estimator16prependVarNumberEm@Base 0.4.1
 _ZN3ndn8encoding9Estimator20appendByteArrayBlockEjPKhm@Base 0.4.1
 _ZN3ndn8encoding9Estimator21prependByteArrayBlockEjPKhm@Base 0.4.1
 _ZN3ndn8encoding9Estimator24appendNonNegativeIntegerEm@Base 0.4.1
 _ZN3ndn8encoding9Estimator25prependNonNegativeIntegerEm@Base 0.4.1
 _ZN3ndn8encoding9EstimatorC1Emm@Base 0.4.1
 _ZN3ndn8encoding9EstimatorC2Emm@Base 0.4.1
 _ZN3ndn8printHexERSoPKhmb@Base 0.4.1
 _ZN3ndn8printHexERSoRKNS_6BufferEb@Base 0.4.1
 _ZN3ndn8security10PibSqlite311addIdentityERKNS_4NameE@Base 0.4.1
 _ZN3ndn8security10PibSqlite313setTpmLocatorERKNSt7__cxx1112basic_stringIcSt11char_traitsIcESaIcEEE@Base 0.4.1
 _ZN3ndn8security10PibSqlite314addCertificateERKNS0_2v119IdentityCertificateE@Base 0.4.1
 _ZN3ndn8security10PibSqlite314removeIdentityERKNS_4NameE@Base 0.4.1
 _ZN3ndn8security10PibSqlite317removeCertificateERKNS_4NameE@Base 0.4.1
 _ZN3ndn8security10PibSqlite318setDefaultIdentityERKNS_4NameE@Base 0.4.1
 _ZN3ndn8security10PibSqlite323setDefaultKeyOfIdentityERKNS_4NameERKNS_4name9ComponentE@Base 0.4.1
 _ZN3ndn8security10PibSqlite326setDefaultCertificateOfKeyERKNS_4NameERKNS_4name9ComponentES4_@Base 0.4.1
 _ZN3ndn8security10PibSqlite36addKeyERKNS_4NameERKNS_4name9ComponentERKNS0_2v19PublicKeyE@Base 0.4.1
 _ZN3ndn8security10PibSqlite39removeKeyERKNS_4NameERKNS_4name9ComponentE@Base 0.4.1
 _ZN3ndn8security10PibSqlite3C1ERKNSt7__cxx1112basic_stringIcSt11char_traitsIcESaIcEEE@Base 0.4.1
 _ZN3ndn8security10PibSqlite3C2ERKNSt7__cxx1112basic_stringIcSt11char_traitsIcESaIcEEE@Base 0.4.1
 _ZN3ndn8security10PibSqlite3D0Ev@Base 0.4.1
 _ZN3ndn8security10PibSqlite3D1Ev@Base 0.4.1
 _ZN3ndn8security10PibSqlite3D2Ev@Base 0.4.1
 _ZN3ndn8security10SecTpmFile11addAppToAclERKNS_4NameENS_8KeyClassERKNSt7__cxx1112basic_stringIcSt11char_traitsIcESaIcEEENS_7AclTypeE@Base 0.4.1
 _ZN3ndn8security10SecTpmFile12decryptInTpmEPKhmRKNS_4NameEb@Base 0.4.1
 _ZN3ndn8security10SecTpmFile12encryptInTpmEPKhmRKNS_4NameEb@Base 0.4.1
 _ZN3ndn8security10SecTpmFile13setInTerminalEb@Base 0.4.1
 _ZN3ndn8security10SecTpmFile14setTpmPasswordEPKhm@Base 0.4.1
 _ZN3ndn8security10SecTpmFile16resetTpmPasswordEv@Base 0.4.1
 _ZN3ndn8security10SecTpmFile17doesKeyExistInTpmERKNS_4NameENS_8KeyClassE@Base 0.4.1
 _ZN3ndn8security10SecTpmFile18deleteKeyPairInTpmERKNS_4NameE@Base 0.4.1
 _ZN3ndn8security10SecTpmFile19generateRandomBlockEPhm@Base 0.4.1
 _ZN3ndn8security10SecTpmFile19getPublicKeyFromTpmERKNS_4NameE@Base 0.4.1
 _ZN3ndn8security10SecTpmFile20generateKeyPairInTpmERKNS_4NameERKNS_9KeyParamsE@Base 0.4.1
 _ZN3ndn8security10SecTpmFile25generateSymmetricKeyInTpmERKNS_4NameERKNS_9KeyParamsE@Base 0.4.1
 _ZN3ndn8security10SecTpmFile27importPublicKeyPkcs1IntoTpmERKNS_4NameEPKhm@Base 0.4.1
 _ZN3ndn8security10SecTpmFile28exportPrivateKeyPkcs8FromTpmERKNS_4NameE@Base 0.4.1
 _ZN3ndn8security10SecTpmFile28importPrivateKeyPkcs8IntoTpmERKNS_4NameEPKhm@Base 0.4.1
 _ZN3ndn8security10SecTpmFile4Impl13transformNameERKNSt7__cxx1112basic_stringIcSt11char_traitsIcESaIcEEESA_@Base 0.4.1
 _ZN3ndn8security10SecTpmFile4Impl15maintainMappingERKNSt7__cxx1112basic_stringIcSt11char_traitsIcESaIcEEE@Base 0.4.1
 _ZN3ndn8security10SecTpmFile4ImplC1ERKNSt7__cxx1112basic_stringIcSt11char_traitsIcESaIcEEE@Base 0.4.1
 _ZN3ndn8security10SecTpmFile4ImplC2ERKNSt7__cxx1112basic_stringIcSt11char_traitsIcESaIcEEE@Base 0.4.1
 _ZN3ndn8security10SecTpmFile5ErrorD0Ev@Base 0.4.1
 _ZN3ndn8security10SecTpmFile5ErrorD1Ev@Base 0.4.1
 _ZN3ndn8security10SecTpmFile5ErrorD2Ev@Base 0.4.1
 _ZN3ndn8security10SecTpmFile6SCHEMEB5cxx11E@Base 0.4.1
 _ZN3ndn8security10SecTpmFile8isLockedEv@Base 0.4.1
 _ZN3ndn8security10SecTpmFile9getSchemeB5cxx11Ev@Base 0.4.1
 _ZN3ndn8security10SecTpmFile9signInTpmEPKhmRKNS_4NameENS_15DigestAlgorithmE@Base 0.4.1
 _ZN3ndn8security10SecTpmFile9unlockTpmEPKcmb@Base 0.4.1
 _ZN3ndn8security10SecTpmFileC1ERKNSt7__cxx1112basic_stringIcSt11char_traitsIcESaIcEEE@Base 0.4.1
 _ZN3ndn8security10SecTpmFileC2ERKNSt7__cxx1112basic_stringIcSt11char_traitsIcESaIcEEE@Base 0.4.1
 _ZN3ndn8security10SecTpmFileD0Ev@Base 0.4.1
 _ZN3ndn8security10SecTpmFileD1Ev@Base 0.4.1
 _ZN3ndn8security10SecTpmFileD2Ev@Base 0.4.1
 _ZN3ndn8security10SecuredBag10wireDecodeERKNS_5BlockE@Base 0.4.1
 _ZN3ndn8security10SecuredBagC1ERKNS0_2v119IdentityCertificateESt10shared_ptrIKNS_6BufferEE@Base 0.4.1
 _ZN3ndn8security10SecuredBagC1ERKNS_5BlockE@Base 0.4.1
 _ZN3ndn8security10SecuredBagC1Ev@Base 0.4.1
 _ZN3ndn8security10SecuredBagC2ERKNS0_2v119IdentityCertificateESt10shared_ptrIKNS_6BufferEE@Base 0.4.1
 _ZN3ndn8security10SecuredBagC2ERKNS_5BlockE@Base 0.4.1
 _ZN3ndn8security10SecuredBagC2Ev@Base 0.4.1
 _ZN3ndn8security10SecuredBagD0Ev@Base 0.4.1
 _ZN3ndn8security10SecuredBagD1Ev@Base 0.4.1
 _ZN3ndn8security10SecuredBagD2Ev@Base 0.4.1
 _ZN3ndn8security11SigningInfo10EMPTY_NAMEE@Base 0.4.1
 _ZN3ndn8security11SigningInfo16setSha256SigningEv@Base 0.4.1
 _ZN3ndn8security11SigningInfo16setSignatureInfoERKNS_13SignatureInfoE@Base 0.4.1
 _ZN3ndn8security11SigningInfo17setSigningKeyNameERKNS_4NameE@Base 0.4.1
 _ZN3ndn8security11SigningInfo18setSigningCertNameERKNS_4NameE@Base 0.4.1
 _ZN3ndn8security11SigningInfo18setSigningIdentityERKNS_4NameE@Base 0.4.1
 _ZN3ndn8security11SigningInfo20EMPTY_SIGNATURE_INFOE@Base 0.4.1
 _ZN3ndn8security11SigningInfoC1ENS1_10SignerTypeERKNS_4NameERKNS_13SignatureInfoE@Base 0.4.1
 _ZN3ndn8security11SigningInfoC1ERKNSt7__cxx1112basic_stringIcSt11char_traitsIcESaIcEEE@Base 0.4.1
 _ZN3ndn8security11SigningInfoC2ENS1_10SignerTypeERKNS_4NameERKNS_13SignatureInfoE@Base 0.4.1
 _ZN3ndn8security11SigningInfoC2ERKNSt7__cxx1112basic_stringIcSt11char_traitsIcESaIcEEE@Base 0.4.1
 _ZN3ndn8security11SigningInfoD1Ev@Base 0.4.1
 _ZN3ndn8security11SigningInfoD2Ev@Base 0.4.1
 _ZN3ndn8security12KeyContainer14const_iteratorC1ERKNS_4NameESt23_Rb_tree_const_iteratorINS_4name9ComponentEESt10shared_ptrINS0_7PibImplEE@Base 0.4.1
 _ZN3ndn8security12KeyContainer14const_iteratorC2ERKNS_4NameESt23_Rb_tree_const_iteratorINS_4name9ComponentEESt10shared_ptrINS0_7PibImplEE@Base 0.4.1
 _ZN3ndn8security12KeyContainer14const_iteratorD1Ev@Base 0.4.1
 _ZN3ndn8security12KeyContainer14const_iteratorD2Ev@Base 0.4.1
 _ZN3ndn8security12KeyContainer14const_iteratordeEv@Base 0.4.1
 _ZN3ndn8security12KeyContainer14const_iteratoreqERKS2_@Base 0.4.1
 _ZN3ndn8security12KeyContainer14const_iteratorneERKS2_@Base 0.4.1
 _ZN3ndn8security12KeyContainer14const_iteratorppEi@Base 0.4.1
 _ZN3ndn8security12KeyContainer14const_iteratorppEv@Base 0.4.1
 _ZN3ndn8security12KeyContainerC1ERKNS_4NameEOSt3setINS_4name9ComponentESt4lessIS7_ESaIS7_EESt10shared_ptrINS0_7PibImplEE@Base 0.4.1
 _ZN3ndn8security12KeyContainerC1Ev@Base 0.4.1
 _ZN3ndn8security12KeyContainerC2ERKNS_4NameEOSt3setINS_4name9ComponentESt4lessIS7_ESaIS7_EESt10shared_ptrINS0_7PibImplEE@Base 0.4.1
 _ZN3ndn8security12KeyContainerC2Ev@Base 0.4.1
 _ZN3ndn8security12KeyContainerD1Ev@Base 0.4.1
 _ZN3ndn8security12KeyContainerD2Ev@Base 0.4.1
 _ZN3ndn8security12signingByKeyERKNS_4NameE@Base 0.4.1
 _ZN3ndn8security13SecPublicInfo12addPublicKeyERKNS_4NameENS_7KeyTypeERKNS0_2v19PublicKeyE@Base 0.4.1
 _ZN3ndn8security13SecPublicInfo13getNewKeyNameERKNS_4NameEb@Base 0.4.1
 _ZN3ndn8security13SecPublicInfo13getPibLocatorB5cxx11Ev@Base 0.4.1
 _ZN3ndn8security13SecPublicInfo18defaultCertificateEv@Base 0.4.1
 _ZN3ndn8security13SecPublicInfo18setDefaultIdentityERKNS_4NameE@Base 0.4.1
 _ZN3ndn8security13SecPublicInfo21getDefaultCertificateEv@Base 0.4.1
 _ZN3ndn8security13SecPublicInfo25getDefaultCertificateNameEv@Base 0.4.1
 _ZN3ndn8security13SecPublicInfo25refreshDefaultCertificateEv@Base 0.4.1
 _ZN3ndn8security13SecPublicInfo26addCertificateAsKeyDefaultERKNS0_2v119IdentityCertificateE@Base 0.4.1
 _ZN3ndn8security13SecPublicInfo28setDefaultKeyNameForIdentityERKNS_4NameE@Base 0.4.1
 _ZN3ndn8security13SecPublicInfo29addCertificateAsSystemDefaultERKNS0_2v119IdentityCertificateE@Base 0.4.1
 _ZN3ndn8security13SecPublicInfo31addCertificateAsIdentityDefaultERKNS0_2v119IdentityCertificateE@Base 0.4.1
 _ZN3ndn8security13SecPublicInfo31setDefaultCertificateNameForKeyERKNS_4NameE@Base 0.4.1
 _ZN3ndn8security13SecPublicInfo36getDefaultCertificateNameForIdentityERKNS_4NameE@Base 0.4.1
 _ZN3ndn8security13SecPublicInfo5ErrorD0Ev@Base 0.4.1
 _ZN3ndn8security13SecPublicInfo5ErrorD1Ev@Base 0.4.1
 _ZN3ndn8security13SecPublicInfo5ErrorD2Ev@Base 0.4.1
 _ZN3ndn8security13SecPublicInfoC1ERKNSt7__cxx1112basic_stringIcSt11char_traitsIcESaIcEEE@Base 0.4.1
 _ZN3ndn8security13SecPublicInfoC2ERKNSt7__cxx1112basic_stringIcSt11char_traitsIcESaIcEEE@Base 0.4.1
 _ZN3ndn8security13SecPublicInfoD0Ev@Base 0.4.1
 _ZN3ndn8security13SecPublicInfoD1Ev@Base 0.4.1
 _ZN3ndn8security13SecPublicInfoD2Ev@Base 0.4.1
 _ZN3ndn8security13ValidatorNull11checkPolicyERKNS_4DataEiRKSt8functionIFvRKSt10shared_ptrIS3_EEERKS5_IFvS9_RKNSt7__cxx1112basic_stringIcSt11char_traitsIcESaIcEEEEERSt6vectorIS6_INS0_17ValidationRequestEESaISS_EE@Base 0.4.1
 _ZN3ndn8security13ValidatorNull11checkPolicyERKNS_8InterestEiRKSt8functionIFvRKSt10shared_ptrIS3_EEERKS5_IFvS9_RKNSt7__cxx1112basic_stringIcSt11char_traitsIcESaIcEEEEERSt6vectorIS6_INS0_17ValidationRequestEESaISS_EE@Base 0.4.1
 _ZN3ndn8security13ValidatorNullD0Ev@Base 0.4.1
 _ZN3ndn8security13ValidatorNullD1Ev@Base 0.4.1
 _ZN3ndn8security13ValidatorNullD2Ev@Base 0.4.1
 _ZN3ndn8security14ValidatorRegex11checkPolicyERKNS_4DataEiRKSt8functionIFvRKSt10shared_ptrIS3_EEERKS5_IFvS9_RKNSt7__cxx1112basic_stringIcSt11char_traitsIcESaIcEEEEERSt6vectorIS6_INS0_17ValidationRequestEESaISS_EE@Base 0.4.1
 _ZN3ndn8security14ValidatorRegex11checkPolicyERKNS_8InterestEiRKSt8functionIFvRKSt10shared_ptrIS3_EEERKS5_IFvS9_RKNSt7__cxx1112basic_stringIcSt11char_traitsIcESaIcEEEEERSt6vectorIS6_INS0_17ValidationRequestEESaISS_EE@Base 0.4.1
 _ZN3ndn8security14ValidatorRegex14addTrustAnchorESt10shared_ptrINS0_2v119IdentityCertificateEE@Base 0.4.1
 _ZN3ndn8security14ValidatorRegex22onCertificateValidatedERKSt10shared_ptrIKNS_4DataEES7_RKSt8functionIFvS7_EERKS8_IFvS7_RKNSt7__cxx1112basic_stringIcSt11char_traitsIcESaIcEEEEE@Base 0.4.1
 _ZN3ndn8security14ValidatorRegex23addDataVerificationRuleESt10shared_ptrINS_15SecRuleRelativeEE@Base 0.4.1
 _ZN3ndn8security14ValidatorRegex25DEFAULT_CERTIFICATE_CACHEE@Base 0.4.1
 _ZN3ndn8security14ValidatorRegex29onCertificateValidationFailedERKSt10shared_ptrIKNS_4DataEERKNSt7__cxx1112basic_stringIcSt11char_traitsIcESaIcEEES7_RKSt8functionIFvS7_SF_EE@Base 0.4.1
 _ZN3ndn8security14ValidatorRegexC1EPNS_4FaceESt10shared_ptrINS0_16CertificateCacheEEi@Base 0.4.1
 _ZN3ndn8security14ValidatorRegexC1ERNS_4FaceESt10shared_ptrINS0_16CertificateCacheEEi@Base 0.4.1
 _ZN3ndn8security14ValidatorRegexC2EPNS_4FaceESt10shared_ptrINS0_16CertificateCacheEEi@Base 0.4.1
 _ZN3ndn8security14ValidatorRegexC2ERNS_4FaceESt10shared_ptrINS0_16CertificateCacheEEi@Base 0.4.1
 _ZN3ndn8security14ValidatorRegexD0Ev@Base 0.4.1
 _ZN3ndn8security14ValidatorRegexD1Ev@Base 0.4.1
 _ZN3ndn8security14ValidatorRegexD2Ev@Base 0.4.1
 _ZN3ndn8security14ValidityPeriod10wireDecodeERKNS_5BlockE@Base 0.4.1
 _ZN3ndn8security14ValidityPeriod5ErrorD0Ev@Base 0.4.1
 _ZN3ndn8security14ValidityPeriod5ErrorD1Ev@Base 0.4.1
 _ZN3ndn8security14ValidityPeriod5ErrorD2Ev@Base 0.4.1
 _ZN3ndn8security14ValidityPeriod9setPeriodERKN5boost6chrono10time_pointINS_4time12system_clockENS3_8durationIlNS2_5ratioILl1ELl1000000000EEEEEEESD_@Base 0.4.1
 _ZN3ndn8security14ValidityPeriodC1ERKN5boost6chrono10time_pointINS_4time12system_clockENS3_8durationIlNS2_5ratioILl1ELl1000000000EEEEEEESD_@Base 0.4.1
 _ZN3ndn8security14ValidityPeriodC1ERKNS_5BlockE@Base 0.4.1
 _ZN3ndn8security14ValidityPeriodC2ERKN5boost6chrono10time_pointINS_4time12system_clockENS3_8durationIlNS2_5ratioILl1ELl1000000000EEEEEEESD_@Base 0.4.1
 _ZN3ndn8security14ValidityPeriodC2ERKNS_5BlockE@Base 0.4.1
 _ZN3ndn8security15ValidatorConfig11checkPolicyERKNS_4DataEiRKSt8functionIFvRKSt10shared_ptrIS3_EEERKS5_IFvS9_RKNSt7__cxx1112basic_stringIcSt11char_traitsIcESaIcEEEEERSt6vectorIS6_INS0_17ValidationRequestEESaISS_EE@Base 0.4.1
 _ZN3ndn8security15ValidatorConfig11checkPolicyERKNS_8InterestEiRKSt8functionIFvRKSt10shared_ptrIS3_EEERKS5_IFvS9_RKNSt7__cxx1112basic_stringIcSt11char_traitsIcESaIcEEEEERSt6vectorIS6_INS0_17ValidationRequestEESaISS_EE@Base 0.4.1
 _ZN3ndn8security15ValidatorConfig12cleanOldKeysEv@Base 0.4.1
 _ZN3ndn8security15ValidatorConfig12onCertFailedINS_4DataESt8functionIFvRKSt10shared_ptrIKS3_ERKNSt7__cxx1112basic_stringIcSt11char_traitsIcESaIcEEEEEEEvS9_SH_RKS5_IKT_ERKT0_@Base 0.4.1
 _ZN3ndn8security15ValidatorConfig12onCertFailedINS_8InterestESt8functionIFvRKSt10shared_ptrIKS3_ERKNSt7__cxx1112basic_stringIcSt11char_traitsIcESaIcEEEEEEEvRKS5_IKNS_4DataEESH_RKS5_IKT_ERKT0_@Base 0.4.1
 _ZN3ndn8security15ValidatorConfig12onConfigRuleERKN5boost13property_tree11basic_ptreeINSt7__cxx1112basic_stringIcSt11char_traitsIcESaIcEEESA_St4lessISA_EEERKSA_@Base 0.4.1
 _ZN3ndn8security15ValidatorConfig14checkSignatureINS_4DataESt8functionIFvRKSt10shared_ptrIKS3_EEES4_IFvS9_RKNSt7__cxx1112basic_stringIcSt11char_traitsIcESaIcEEEEEEEvRKT_RKNS_9SignatureEmRKT0_RKT1_RSt6vectorIS5_INS0_17ValidationRequestEESaIS10_EE@Base 0.4.1
 _ZN3ndn8security15ValidatorConfig14checkSignatureINS_8InterestESt8functionIFvRKSt10shared_ptrIKS3_EEES4_IFvS9_RKNSt7__cxx1112basic_stringIcSt11char_traitsIcESaIcEEEEEEEvRKT_RKNS_9SignatureEmRKT0_RKT1_RSt6vectorIS5_INS0_17ValidationRequestEESaIS10_EE@Base 0.4.1
 _ZN3ndn8security15ValidatorConfig14checkTimestampERKSt10shared_ptrIKNS_8InterestEERKNS_4NameERKSt8functionIFvS7_EERKSB_IFvS7_RKNSt7__cxx1112basic_stringIcSt11char_traitsIcESaIcEEEEE@Base 0.4.1
 _ZN3ndn8security15ValidatorConfig14refreshAnchorsEv@Base 0.4.1
 _ZN3ndn8security15ValidatorConfig15onCertValidatedINS_4DataESt8functionIFvRKSt10shared_ptrIKS3_EEES4_IFvS9_RKNSt7__cxx1112basic_stringIcSt11char_traitsIcESaIcEEEEEEEvS9_RKS5_IKT_ERKT0_RKT1_@Base 0.4.1
 _ZN3ndn8security15ValidatorConfig15onCertValidatedINS_8InterestESt8functionIFvRKSt10shared_ptrIKS3_EEES4_IFvS9_RKNSt7__cxx1112basic_stringIcSt11char_traitsIcESaIcEEEEEEEvRKS5_IKNS_4DataEERKS5_IKT_ERKT0_RKT1_@Base 0.4.1
 _ZN3ndn8security15ValidatorConfig16getRefreshPeriodENSt7__cxx1112basic_stringIcSt11char_traitsIcESaIcEEE@Base 0.4.1
 _ZN3ndn8security15ValidatorConfig19onConfigTrustAnchorERKN5boost13property_tree11basic_ptreeINSt7__cxx1112basic_stringIcSt11char_traitsIcESaIcEEESA_St4lessISA_EEERKSA_@Base 0.4.1
 _ZN3ndn8security15ValidatorConfig22DEFAULT_GRACE_INTERVALE@Base 0.4.1
 _ZN3ndn8security15ValidatorConfig23compareDynamicContainerERKNS1_27DynamicTrustAnchorContainerES4_@Base 0.4.1
 _ZN3ndn8security15ValidatorConfig23getDefaultRefreshPeriodEv@Base 0.4.1
 _ZN3ndn8security15ValidatorConfig25DEFAULT_CERTIFICATE_CACHEE@Base 0.4.1
 _ZN3ndn8security15ValidatorConfig25DEFAULT_KEY_TIMESTAMP_TTLE@Base 0.4.1
 _ZN3ndn8security15ValidatorConfig27DynamicTrustAnchorContainer7refreshEv@Base 0.4.1
 _ZN3ndn8security15ValidatorConfig4loadERKN5boost13property_tree11basic_ptreeINSt7__cxx1112basic_stringIcSt11char_traitsIcESaIcEEESA_St4lessISA_EEERKSA_@Base 0.4.1
 _ZN3ndn8security15ValidatorConfig4loadERKNSt7__cxx1112basic_stringIcSt11char_traitsIcESaIcEEE@Base 0.4.1
 _ZN3ndn8security15ValidatorConfig4loadERKNSt7__cxx1112basic_stringIcSt11char_traitsIcESaIcEEES9_@Base 0.4.1
 _ZN3ndn8security15ValidatorConfig4loadERSiRKNSt7__cxx1112basic_stringIcSt11char_traitsIcESaIcEEE@Base 0.4.1
 _ZN3ndn8security15ValidatorConfig5ErrorD0Ev@Base 0.4.1
 _ZN3ndn8security15ValidatorConfig5ErrorD1Ev@Base 0.4.1
 _ZN3ndn8security15ValidatorConfig5ErrorD2Ev@Base 0.4.1
 _ZN3ndn8security15ValidatorConfig5resetEv@Base 0.4.1
 _ZN3ndn8security15ValidatorConfig7isEmptyEv@Base 0.4.1
 _ZN3ndn8security15ValidatorConfigC1EPNS_4FaceERKSt10shared_ptrINS0_16CertificateCacheEERKN5boost6chrono8durationIlNS9_5ratioILl1ELl1000EEEEEmmRKNSB_IlNSC_ILl1ELl1000000000EEEEE@Base 0.4.1
 _ZN3ndn8security15ValidatorConfigC1ERNS_4FaceERKSt10shared_ptrINS0_16CertificateCacheEERKN5boost6chrono8durationIlNS9_5ratioILl1ELl1000EEEEEmmRKNSB_IlNSC_ILl1ELl1000000000EEEEE@Base 0.4.1
 _ZN3ndn8security15ValidatorConfigC2EPNS_4FaceERKSt10shared_ptrINS0_16CertificateCacheEERKN5boost6chrono8durationIlNS9_5ratioILl1ELl1000EEEEEmmRKNSB_IlNSC_ILl1ELl1000000000EEEEE@Base 0.4.1
 _ZN3ndn8security15ValidatorConfigC2ERNS_4FaceERKSt10shared_ptrINS0_16CertificateCacheEERKN5boost6chrono8durationIlNS9_5ratioILl1ELl1000EEEEEmmRKNSB_IlNSC_ILl1ELl1000000000EEEEE@Base 0.4.1
 _ZN3ndn8security15ValidatorConfigD0Ev@Base 0.4.1
 _ZN3ndn8security15ValidatorConfigD1Ev@Base 0.4.1
 _ZN3ndn8security15ValidatorConfigD2Ev@Base 0.4.1
 _ZN3ndn8security17IdentityContainer14const_iteratorC1ESt23_Rb_tree_const_iteratorINS_4NameEESt10shared_ptrINS0_7PibImplEE@Base 0.4.1
 _ZN3ndn8security17IdentityContainer14const_iteratorC2ESt23_Rb_tree_const_iteratorINS_4NameEESt10shared_ptrINS0_7PibImplEE@Base 0.4.1
 _ZN3ndn8security17IdentityContainer14const_iteratorD1Ev@Base 0.4.1
 _ZN3ndn8security17IdentityContainer14const_iteratorD2Ev@Base 0.4.1
 _ZN3ndn8security17IdentityContainer14const_iteratordeEv@Base 0.4.1
 _ZN3ndn8security17IdentityContainer14const_iteratoreqERKS2_@Base 0.4.1
 _ZN3ndn8security17IdentityContainer14const_iteratorneERKS2_@Base 0.4.1
 _ZN3ndn8security17IdentityContainer14const_iteratorppEi@Base 0.4.1
 _ZN3ndn8security17IdentityContainer14const_iteratorppEv@Base 0.4.1
 _ZN3ndn8security17IdentityContainerC1EOSt3setINS_4NameESt4lessIS3_ESaIS3_EESt10shared_ptrINS0_7PibImplEE@Base 0.4.1
 _ZN3ndn8security17IdentityContainerC1Ev@Base 0.4.1
 _ZN3ndn8security17IdentityContainerC2EOSt3setINS_4NameESt4lessIS3_ESaIS3_EESt10shared_ptrINS0_7PibImplEE@Base 0.4.1
 _ZN3ndn8security17IdentityContainerC2Ev@Base 0.4.1
 _ZN3ndn8security17ValidationRequestD0Ev@Base 0.4.1
 _ZN3ndn8security17ValidationRequestD1Ev@Base 0.4.1
 _ZN3ndn8security17ValidationRequestD2Ev@Base 0.4.1
 _ZN3ndn8security17signingByIdentityERKNS_4NameE@Base 0.4.1
 _ZN3ndn8security17signingWithSha256Ev@Base 0.4.1
 _ZN3ndn8security19CertificateCacheTtl14getCertificateERKNS_4NameE@Base 0.4.1
 _ZN3ndn8security19CertificateCacheTtl17insertCertificateESt10shared_ptrIKNS0_2v119IdentityCertificateEE@Base 0.4.1
 _ZN3ndn8security19CertificateCacheTtl5resetEv@Base 0.4.1
 _ZN3ndn8security19CertificateCacheTtl6insertESt10shared_ptrIKNS0_2v119IdentityCertificateEE@Base 0.4.1
 _ZN3ndn8security19CertificateCacheTtl6removeERKNS_4NameE@Base 0.4.1
 _ZN3ndn8security19CertificateCacheTtl7getSizeEv@Base 0.4.1
 _ZN3ndn8security19CertificateCacheTtl9removeAllEv@Base 0.4.1
 _ZN3ndn8security19CertificateCacheTtlC1ERN5boost4asio10io_serviceERKNS2_6chrono8durationIlNS2_5ratioILl1ELl1EEEEE@Base 0.4.1
 _ZN3ndn8security19CertificateCacheTtlC2ERN5boost4asio10io_serviceERKNS2_6chrono8durationIlNS2_5ratioILl1ELl1EEEEE@Base 0.4.1
 _ZN3ndn8security19CertificateCacheTtlD0Ev@Base 0.4.1
 _ZN3ndn8security19CertificateCacheTtlD1Ev@Base 0.4.1
 _ZN3ndn8security19CertificateCacheTtlD2Ev@Base 0.4.1
 _ZN3ndn8security20CertificateContainer14const_iteratorC1ESt23_Rb_tree_const_iteratorINS_4NameEESt10shared_ptrINS0_7PibImplEE@Base 0.4.1
 _ZN3ndn8security20CertificateContainer14const_iteratorC2ESt23_Rb_tree_const_iteratorINS_4NameEESt10shared_ptrINS0_7PibImplEE@Base 0.4.1
 _ZN3ndn8security20CertificateContainer14const_iteratordeEv@Base 0.4.1
 _ZN3ndn8security20CertificateContainer14const_iteratoreqERKS2_@Base 0.4.1
 _ZN3ndn8security20CertificateContainer14const_iteratorneERKS2_@Base 0.4.1
 _ZN3ndn8security20CertificateContainer14const_iteratorppEi@Base 0.4.1
 _ZN3ndn8security20CertificateContainer14const_iteratorppEv@Base 0.4.1
 _ZN3ndn8security20CertificateContainerC1EOSt3setINS_4NameESt4lessIS3_ESaIS3_EESt10shared_ptrINS0_7PibImplEE@Base 0.4.1
 _ZN3ndn8security20CertificateContainerC1Ev@Base 0.4.1
 _ZN3ndn8security20CertificateContainerC2EOSt3setINS_4NameESt4lessIS3_ESaIS3_EESt10shared_ptrINS0_7PibImplEE@Base 0.4.1
 _ZN3ndn8security20CertificateContainerC2Ev@Base 0.4.1
 _ZN3ndn8security20CertificateContainerD1Ev@Base 0.4.1
 _ZN3ndn8security20CertificateContainerD2Ev@Base 0.4.1
 _ZN3ndn8security20SecPublicInfoSqlite311addIdentityERKNS_4NameE@Base 0.4.1
 _ZN3ndn8security20SecPublicInfoSqlite311deleteTableERKNSt7__cxx1112basic_stringIcSt11char_traitsIcESaIcEEE@Base 0.4.1
 _ZN3ndn8security20SecPublicInfoSqlite312getPublicKeyERKNS_4NameE@Base 0.4.1
 _ZN3ndn8security20SecPublicInfoSqlite313getPibLocatorB5cxx11Ev@Base 0.4.1
 _ZN3ndn8security20SecPublicInfoSqlite313getTpmLocatorB5cxx11Ev@Base 0.4.1
 _ZN3ndn8security20SecPublicInfoSqlite313setTpmLocatorERKNSt7__cxx1112basic_stringIcSt11char_traitsIcESaIcEEE@Base 0.4.1
 _ZN3ndn8security20SecPublicInfoSqlite314addCertificateERKNS0_2v119IdentityCertificateE@Base 0.4.1
 _ZN3ndn8security20SecPublicInfoSqlite314doesTableExistERKNSt7__cxx1112basic_stringIcSt11char_traitsIcESaIcEEE@Base 0.4.1
 _ZN3ndn8security20SecPublicInfoSqlite314getAllKeyNamesERSt6vectorINS_4NameESaIS3_EEb@Base 0.4.1
 _ZN3ndn8security20SecPublicInfoSqlite314getCertificateERKNS_4NameE@Base 0.4.1
 _ZN3ndn8security20SecPublicInfoSqlite314revokeIdentityEv@Base 0.4.1
 _ZN3ndn8security20SecPublicInfoSqlite315initializeTableERKNSt7__cxx1112basic_stringIcSt11char_traitsIcESaIcEEES9_@Base 0.4.1
 _ZN3ndn8security20SecPublicInfoSqlite316getAllIdentitiesERSt6vectorINS_4NameESaIS3_EEb@Base 0.4.1
 _ZN3ndn8security20SecPublicInfoSqlite316getPublicKeyTypeERKNS_4NameE@Base 0.4.1
 _ZN3ndn8security20SecPublicInfoSqlite317doesIdentityExistERKNS_4NameE@Base 0.4.1
 _ZN3ndn8security20SecPublicInfoSqlite318deleteIdentityInfoERKNS_4NameE@Base 0.4.1
 _ZN3ndn8security20SecPublicInfoSqlite318doesPublicKeyExistERKNS_4NameE@Base 0.4.1
 _ZN3ndn8security20SecPublicInfoSqlite318getDefaultIdentityEv@Base 0.4.1
 _ZN3ndn8security20SecPublicInfoSqlite319deletePublicKeyInfoERKNS_4NameE@Base 0.4.1
 _ZN3ndn8security20SecPublicInfoSqlite320doesCertificateExistERKNS_4NameE@Base 0.4.1
 _ZN3ndn8security20SecPublicInfoSqlite321deleteCertificateInfoERKNS_4NameE@Base 0.4.1
 _ZN3ndn8security20SecPublicInfoSqlite321setTpmLocatorInternalERKNSt7__cxx1112basic_stringIcSt11char_traitsIcESaIcEEEb@Base 0.4.1
 _ZN3ndn8security20SecPublicInfoSqlite322getAllCertificateNamesERSt6vectorINS_4NameESaIS3_EEb@Base 0.4.1
 _ZN3ndn8security20SecPublicInfoSqlite324getAllKeyNamesOfIdentityERKNS_4NameERSt6vectorIS2_SaIS2_EEb@Base 0.4.1
 _ZN3ndn8security20SecPublicInfoSqlite326setDefaultIdentityInternalERKNS_4NameE@Base 0.4.1
 _ZN3ndn8security20SecPublicInfoSqlite327getAllCertificateNamesOfKeyERKNS_4NameERSt6vectorIS2_SaIS2_EEb@Base 0.4.1
 _ZN3ndn8security20SecPublicInfoSqlite328getDefaultKeyNameForIdentityERKNS_4NameE@Base 0.4.1
 _ZN3ndn8security20SecPublicInfoSqlite331getDefaultCertificateNameForKeyERKNS_4NameE@Base 0.4.1
 _ZN3ndn8security20SecPublicInfoSqlite336setDefaultKeyNameForIdentityInternalERKNS_4NameE@Base 0.4.1
 _ZN3ndn8security20SecPublicInfoSqlite339setDefaultCertificateNameForKeyInternalERKNS_4NameE@Base 0.4.1
 _ZN3ndn8security20SecPublicInfoSqlite35ErrorD0Ev@Base 0.4.1
 _ZN3ndn8security20SecPublicInfoSqlite35ErrorD1Ev@Base 0.4.1
 _ZN3ndn8security20SecPublicInfoSqlite35ErrorD2Ev@Base 0.4.1
 _ZN3ndn8security20SecPublicInfoSqlite36SCHEMEB5cxx11E@Base 0.4.1
 _ZN3ndn8security20SecPublicInfoSqlite36addKeyERKNS_4NameERKNS0_2v19PublicKeyE@Base 0.4.1
 _ZN3ndn8security20SecPublicInfoSqlite39getSchemeB5cxx11Ev@Base 0.4.1
 _ZN3ndn8security20SecPublicInfoSqlite3C1ERKNSt7__cxx1112basic_stringIcSt11char_traitsIcESaIcEEE@Base 0.4.1
 _ZN3ndn8security20SecPublicInfoSqlite3C2ERKNSt7__cxx1112basic_stringIcSt11char_traitsIcESaIcEEE@Base 0.4.1
 _ZN3ndn8security20SecPublicInfoSqlite3D0Ev@Base 0.4.1
 _ZN3ndn8security20SecPublicInfoSqlite3D1Ev@Base 0.4.1
 _ZN3ndn8security20SecPublicInfoSqlite3D2Ev@Base 0.4.1
 _ZN3ndn8security20signingByCertificateERKNS_4NameE@Base 0.4.1
 _ZN3ndn8security24CommandInterestValidator11checkPolicyERKNS_4DataEiRKSt8functionIFvRKSt10shared_ptrIS3_EEERKS5_IFvS9_RKNSt7__cxx1112basic_stringIcSt11char_traitsIcESaIcEEEEERSt6vectorIS6_INS0_17ValidationRequestEESaISS_EE@Base 0.4.1
 _ZN3ndn8security24CommandInterestValidator11checkPolicyERKNS_8InterestEiRKSt8functionIFvRKSt10shared_ptrIS3_EEERKS5_IFvS9_RKNSt7__cxx1112basic_stringIcSt11char_traitsIcESaIcEEEEERSt6vectorIS6_INS0_17ValidationRequestEESaISS_EE@Base 0.4.1
 _ZN3ndn8security24CommandInterestValidator14checkTimestampERKNS_4NameEmN5boost6chrono10time_pointINS_4time12system_clockENS6_8durationIlNS5_5ratioILl1ELl1000000000EEEEEEE@Base 0.4.1
 _ZN3ndn8security24CommandInterestValidator7cleanupEv@Base 0.4.1
 _ZN3ndn8security24CommandInterestValidatorC1ESt10unique_ptrINS0_9ValidatorESt14default_deleteIS3_EERKNS1_7OptionsE@Base 0.4.1
 _ZN3ndn8security24CommandInterestValidatorC2ESt10unique_ptrINS0_9ValidatorESt14default_deleteIS3_EERKNS1_7OptionsE@Base 0.4.1
 _ZN3ndn8security24CommandInterestValidatorD0Ev@Base 0.4.1
 _ZN3ndn8security24CommandInterestValidatorD1Ev@Base 0.4.1
 _ZN3ndn8security24CommandInterestValidatorD2Ev@Base 0.4.1
 _ZN3ndn8security2v111Certificate10isTooEarlyEv@Base 0.4.1
 _ZN3ndn8security2v111Certificate10wireDecodeERKNS_5BlockE@Base 0.4.1
 _ZN3ndn8security2v111Certificate5ErrorD0Ev@Base 0.4.1
 _ZN3ndn8security2v111Certificate5ErrorD1Ev@Base 0.4.1
 _ZN3ndn8security2v111Certificate5ErrorD2Ev@Base 0.4.1
 _ZN3ndn8security2v111Certificate6decodeEv@Base 0.4.1
 _ZN3ndn8security2v111Certificate6encodeEv@Base 0.4.1
 _ZN3ndn8security2v111Certificate9isTooLateEv@Base 0.4.1
 _ZN3ndn8security2v111CertificateC1ERKNS_4DataE@Base 0.4.1
 _ZN3ndn8security2v111CertificateC1ERKNS_5BlockE@Base 0.4.1
 _ZN3ndn8security2v111CertificateC1Ev@Base 0.4.1
 _ZN3ndn8security2v111CertificateC2ERKNS_4DataE@Base 0.4.1
 _ZN3ndn8security2v111CertificateC2ERKNS_5BlockE@Base 0.4.1
 _ZN3ndn8security2v111CertificateC2Ev@Base 0.4.1
 _ZN3ndn8security2v111CertificateD0Ev@Base 0.4.1
 _ZN3ndn8security2v111CertificateD1Ev@Base 0.4.1
 _ZN3ndn8security2v111CertificateD2Ev@Base 0.4.1
 _ZN3ndn8security2v119IdentityCertificate10wireDecodeERKNS_5BlockE@Base 0.4.1
 _ZN3ndn8security2v119IdentityCertificate13isCorrectNameERKNS_4NameE@Base 0.4.1
 _ZN3ndn8security2v119IdentityCertificate16setPublicKeyNameEv@Base 0.4.1
 _ZN3ndn8security2v119IdentityCertificate21isIdentityCertificateERKNS1_11CertificateE@Base 0.4.1
 _ZN3ndn8security2v119IdentityCertificate30certificateNameToPublicKeyNameERKNS_4NameE@Base 0.4.1
 _ZN3ndn8security2v119IdentityCertificate5ErrorD0Ev@Base 0.4.1
 _ZN3ndn8security2v119IdentityCertificate5ErrorD1Ev@Base 0.4.1
 _ZN3ndn8security2v119IdentityCertificate5ErrorD2Ev@Base 0.4.1
 _ZN3ndn8security2v119IdentityCertificate7setNameERKNS_4NameE@Base 0.4.1
 _ZN3ndn8security2v119IdentityCertificateC1ERKNS_4DataE@Base 0.4.1
 _ZN3ndn8security2v119IdentityCertificateC1ERKNS_5BlockE@Base 0.4.1
 _ZN3ndn8security2v119IdentityCertificateC1ERKS2_@Base 0.4.1
 _ZN3ndn8security2v119IdentityCertificateC1Ev@Base 0.4.1
 _ZN3ndn8security2v119IdentityCertificateC2ERKNS_4DataE@Base 0.4.1
 _ZN3ndn8security2v119IdentityCertificateC2ERKNS_5BlockE@Base 0.4.1
 _ZN3ndn8security2v119IdentityCertificateC2ERKS2_@Base 0.4.1
 _ZN3ndn8security2v119IdentityCertificateC2Ev@Base 0.4.1
 _ZN3ndn8security2v119IdentityCertificateD0Ev@Base 0.4.1
 _ZN3ndn8security2v119IdentityCertificateD1Ev@Base 0.4.1
 _ZN3ndn8security2v119IdentityCertificateD2Ev@Base 0.4.1
 _ZN3ndn8security2v120CertificateExtension6decodeERN8CryptoPP22BufferedTransformationE@Base 0.4.1
 _ZN3ndn8security2v120CertificateExtensionD0Ev@Base 0.4.1
 _ZN3ndn8security2v120CertificateExtensionD1Ev@Base 0.4.1
 _ZN3ndn8security2v120CertificateExtensionD2Ev@Base 0.4.1
 _ZN3ndn8security2v129CertificateSubjectDescription6decodeERN8CryptoPP22BufferedTransformationE@Base 0.4.1
 _ZN3ndn8security2v129CertificateSubjectDescriptionD1Ev@Base 0.4.1
 _ZN3ndn8security2v129CertificateSubjectDescriptionD2Ev@Base 0.4.1
 _ZN3ndn8security2v19PublicKey5ErrorD0Ev@Base 0.4.1
 _ZN3ndn8security2v19PublicKey5ErrorD1Ev@Base 0.4.1
 _ZN3ndn8security2v19PublicKey5ErrorD2Ev@Base 0.4.1
 _ZN3ndn8security2v19PublicKey6decodeERN8CryptoPP22BufferedTransformationE@Base 0.4.1
 _ZN3ndn8security2v19PublicKeyC1EPKhm@Base 0.4.1
 _ZN3ndn8security2v19PublicKeyC1Ev@Base 0.4.1
 _ZN3ndn8security2v19PublicKeyC2EPKhm@Base 0.4.1
 _ZN3ndn8security2v19PublicKeyC2Ev@Base 0.4.1
 _ZN3ndn8security2v19PublicKeyD1Ev@Base 0.4.1
 _ZN3ndn8security2v19PublicKeyD2Ev@Base 0.4.1
 _ZN3ndn8security2v1lsERSoRKNS1_11CertificateE@Base 0.4.1
 _ZN3ndn8security2v1lsERSoRKNS1_9PublicKeyE@Base 0.4.1
 _ZN3ndn8security2v221AdditionalDescription10wireDecodeERKNS_5BlockE@Base 0.4.1
 _ZN3ndn8security2v221AdditionalDescription3endB5cxx11Ev@Base 0.4.1
 _ZN3ndn8security2v221AdditionalDescription3setERKNSt7__cxx1112basic_stringIcSt11char_traitsIcESaIcEEESA_@Base 0.4.1
 _ZN3ndn8security2v221AdditionalDescription5ErrorD0Ev@Base 0.4.1
 _ZN3ndn8security2v221AdditionalDescription5ErrorD1Ev@Base 0.4.1
 _ZN3ndn8security2v221AdditionalDescription5ErrorD2Ev@Base 0.4.1
 _ZN3ndn8security2v221AdditionalDescription5beginB5cxx11Ev@Base 0.4.1
 _ZN3ndn8security2v221AdditionalDescriptionC1ERKNS_5BlockE@Base 0.4.1
 _ZN3ndn8security2v221AdditionalDescriptionC2ERKNS_5BlockE@Base 0.4.1
 _ZN3ndn8security2v2lsERSoRKNS1_21AdditionalDescriptionE@Base 0.4.1
 _ZN3ndn8security3Key14addCertificateERKNS0_2v119IdentityCertificateE@Base 0.4.1
 _ZN3ndn8security3Key17removeCertificateERKNS_4NameE@Base 0.4.1
 _ZN3ndn8security3Key21setDefaultCertificateERKNS0_2v119IdentityCertificateE@Base 0.4.1
 _ZN3ndn8security3Key21setDefaultCertificateERKNS_4NameE@Base 0.4.1
 _ZN3ndn8security3KeyC1ERKNS_4NameERKNS_4name9ComponentERKNS0_2v19PublicKeyESt10shared_ptrINS0_7PibImplEE@Base 0.4.1
 _ZN3ndn8security3KeyC1ERKNS_4NameERKNS_4name9ComponentESt10shared_ptrINS0_7PibImplEE@Base 0.4.1
 _ZN3ndn8security3KeyC1Ev@Base 0.4.1
 _ZN3ndn8security3KeyC2ERKNS_4NameERKNS_4name9ComponentERKNS0_2v19PublicKeyESt10shared_ptrINS0_7PibImplEE@Base 0.4.1
 _ZN3ndn8security3KeyC2ERKNS_4NameERKNS_4name9ComponentESt10shared_ptrINS0_7PibImplEE@Base 0.4.1
 _ZN3ndn8security3KeyC2Ev@Base 0.4.1
 _ZN3ndn8security3KeyD1Ev@Base 0.4.1
 _ZN3ndn8security3KeyD2Ev@Base 0.4.1
 _ZN3ndn8security3KeyaSEOS1_@Base 0.4.1
 _ZN3ndn8security3Pib11addIdentityERKNS_4NameE@Base 0.4.1
 _ZN3ndn8security3Pib13setTpmLocatorERKNSt7__cxx1112basic_stringIcSt11char_traitsIcESaIcEEE@Base 0.4.1
 _ZN3ndn8security3Pib14removeIdentityERKNS_4NameE@Base 0.4.1
 _ZN3ndn8security3Pib18setDefaultIdentityERKNS_4NameE@Base 0.4.1
 _ZN3ndn8security3Pib5ErrorD0Ev@Base 0.4.1
 _ZN3ndn8security3Pib5ErrorD1Ev@Base 0.4.1
 _ZN3ndn8security3Pib5ErrorD2Ev@Base 0.4.1
 _ZN3ndn8security3PibC1ENSt7__cxx1112basic_stringIcSt11char_traitsIcESaIcEEERKS7_St10shared_ptrINS0_7PibImplEE@Base 0.4.1
 _ZN3ndn8security3PibC2ENSt7__cxx1112basic_stringIcSt11char_traitsIcESaIcEEERKS7_St10shared_ptrINS0_7PibImplEE@Base 0.4.1
 _ZN3ndn8security3PibD1Ev@Base 0.4.1
 _ZN3ndn8security3PibD2Ev@Base 0.4.1
 _ZN3ndn8security40NdnCxxAutoSecTpmFileTpmRegistrationClassC1Ev@Base 0.4.1
 _ZN3ndn8security40NdnCxxAutoSecTpmFileTpmRegistrationClassC2Ev@Base 0.4.1
 _ZN3ndn8security4conf13FilterFactory16createNameFilterERKN5boost13property_tree11basic_ptreeINSt7__cxx1112basic_stringIcSt11char_traitsIcESaIcEEESB_St4lessISB_EEE@Base 0.4.1
 _ZN3ndn8security4conf14CheckerFactory10getSigTypeERKNSt7__cxx1112basic_stringIcSt11char_traitsIcESaIcEEE@Base 0.4.1
 _ZN3ndn8security4conf14CheckerFactory24createFixedSignerCheckerERKN5boost13property_tree11basic_ptreeINSt7__cxx1112basic_stringIcSt11char_traitsIcESaIcEEESB_St4lessISB_EEERKSB_@Base 0.4.1
 _ZN3ndn8security4conf14CheckerFactory9getSignerERKN5boost13property_tree11basic_ptreeINSt7__cxx1112basic_stringIcSt11char_traitsIcESaIcEEESB_St4lessISB_EEERKSB_@Base 0.4.1
 _ZN3ndn8security4conf15RegexNameFilter9matchNameERKNS_4NameE@Base 0.4.1
 _ZN3ndn8security4conf15RegexNameFilterD0Ev@Base 0.4.1
 _ZN3ndn8security4conf15RegexNameFilterD1Ev@Base 0.4.1
 _ZN3ndn8security4conf15RegexNameFilterD2Ev@Base 0.4.1
 _ZN3ndn8security4conf17CustomizedChecker5checkERKNS_4DataE@Base 0.4.1
 _ZN3ndn8security4conf17CustomizedChecker5checkERKNS_8InterestE@Base 0.4.1
 _ZN3ndn8security4conf17CustomizedCheckerC1EjSt10shared_ptrINS1_17KeyLocatorCheckerEE@Base 0.4.1
 _ZN3ndn8security4conf17CustomizedCheckerC2EjSt10shared_ptrINS1_17KeyLocatorCheckerEE@Base 0.4.1
 _ZN3ndn8security4conf17CustomizedCheckerD0Ev@Base 0.4.1
 _ZN3ndn8security4conf17CustomizedCheckerD1Ev@Base 0.4.1
 _ZN3ndn8security4conf17CustomizedCheckerD2Ev@Base 0.4.1
 _ZN3ndn8security4conf18FixedSignerChecker5checkERKNS_4DataE@Base 0.4.1
 _ZN3ndn8security4conf18FixedSignerChecker5checkERKNS_8InterestE@Base 0.4.1
 _ZN3ndn8security4conf18FixedSignerCheckerD0Ev@Base 0.4.1
 _ZN3ndn8security4conf18FixedSignerCheckerD1Ev@Base 0.4.1
 _ZN3ndn8security4conf18FixedSignerCheckerD2Ev@Base 0.4.1
 _ZN3ndn8security4conf18RelationNameFilter9matchNameERKNS_4NameE@Base 0.4.1
 _ZN3ndn8security4conf18RelationNameFilterD0Ev@Base 0.4.1
 _ZN3ndn8security4conf18RelationNameFilterD1Ev@Base 0.4.1
 _ZN3ndn8security4conf18RelationNameFilterD2Ev@Base 0.4.1
 _ZN3ndn8security4conf19HierarchicalCheckerD0Ev@Base 0.4.1
 _ZN3ndn8security4conf19HierarchicalCheckerD1Ev@Base 0.4.1
 _ZN3ndn8security4conf19HierarchicalCheckerD2Ev@Base 0.4.1
 _ZN3ndn8security4conf24KeyLocatorCheckerFactory27createKeyLocatorNameCheckerERKN5boost13property_tree11basic_ptreeINSt7__cxx1112basic_stringIcSt11char_traitsIcESaIcEEESB_St4lessISB_EEERKSB_@Base 0.4.1
 _ZN3ndn8security4conf26HyperKeyLocatorNameChecker5checkERKNS_4NameERKNS_10KeyLocatorERNSt7__cxx1112basic_stringIcSt11char_traitsIcESaIcEEE@Base 0.4.1
 _ZN3ndn8security4conf26HyperKeyLocatorNameCheckerC1ERKNSt7__cxx1112basic_stringIcSt11char_traitsIcESaIcEEES8_SA_S8_RKNS1_17KeyLocatorChecker8RelationE@Base 0.4.1
 _ZN3ndn8security4conf26HyperKeyLocatorNameCheckerC2ERKNSt7__cxx1112basic_stringIcSt11char_traitsIcESaIcEEES8_SA_S8_RKNS1_17KeyLocatorChecker8RelationE@Base 0.4.1
 _ZN3ndn8security4conf26HyperKeyLocatorNameCheckerD0Ev@Base 0.4.1
 _ZN3ndn8security4conf26HyperKeyLocatorNameCheckerD1Ev@Base 0.4.1
 _ZN3ndn8security4conf26HyperKeyLocatorNameCheckerD2Ev@Base 0.4.1
 _ZN3ndn8security4conf26RegexKeyLocatorNameChecker5checkERKNS_4NameERKNS_10KeyLocatorERNSt7__cxx1112basic_stringIcSt11char_traitsIcESaIcEEE@Base 0.4.1
 _ZN3ndn8security4conf26RegexKeyLocatorNameCheckerD0Ev@Base 0.4.1
 _ZN3ndn8security4conf26RegexKeyLocatorNameCheckerD1Ev@Base 0.4.1
 _ZN3ndn8security4conf26RegexKeyLocatorNameCheckerD2Ev@Base 0.4.1
 _ZN3ndn8security4conf29RelationKeyLocatorNameChecker5checkERKNS_4NameERKNS_10KeyLocatorERNSt7__cxx1112basic_stringIcSt11char_traitsIcESaIcEEE@Base 0.4.1
 _ZN3ndn8security4conf29RelationKeyLocatorNameCheckerD0Ev@Base 0.4.1
 _ZN3ndn8security4conf29RelationKeyLocatorNameCheckerD1Ev@Base 0.4.1
 _ZN3ndn8security4conf29RelationKeyLocatorNameCheckerD2Ev@Base 0.4.1
 _ZN3ndn8security4conf4RuleINS_4DataEED0Ev@Base 0.4.1
 _ZN3ndn8security4conf4RuleINS_4DataEED1Ev@Base 0.4.1
 _ZN3ndn8security4conf4RuleINS_4DataEED2Ev@Base 0.4.1
 _ZN3ndn8security4conf4RuleINS_8InterestEE5checkISt5_BindIFSt7_Mem_fnIMNS0_15ValidatorConfigEFvRKSt10shared_ptrIKS3_ERKNS_4NameERKSt8functionIFvSD_EERKSH_IFvSD_RKNSt7__cxx1112basic_stringIcSt11char_traitsIcESaIcEEEEEEEPS8_St12_PlaceholderILi1EESE_SJ_SV_EESV_EEaRSA_RKT_RKT0_@Base 0.4.1
 _ZN3ndn8security4conf4RuleINS_8InterestEED0Ev@Base 0.4.1
 _ZN3ndn8security4conf4RuleINS_8InterestEED1Ev@Base 0.4.1
 _ZN3ndn8security4conf4RuleINS_8InterestEED2Ev@Base 0.4.1
 _ZN3ndn8security4conf5ErrorD0Ev@Base 0.4.1
 _ZN3ndn8security4conf5ErrorD1Ev@Base 0.4.1
 _ZN3ndn8security4conf5ErrorD2Ev@Base 0.4.1
 _ZN3ndn8security50NdnCxxAutoSecPublicInfoSqlite3PibRegistrationClassC1Ev@Base 0.4.1
 _ZN3ndn8security50NdnCxxAutoSecPublicInfoSqlite3PibRegistrationClassC2Ev@Base 0.4.1
 _ZN3ndn8security6SecTpm13getTpmLocatorB5cxx11Ev@Base 0.4.1
 _ZN3ndn8security6SecTpm17getImpExpPassWordERNSt7__cxx1112basic_stringIcSt11char_traitsIcESaIcEEERKS7_@Base 0.4.1
 _ZN3ndn8security6SecTpm28exportPrivateKeyPkcs5FromTpmERKNS_4NameERKNSt7__cxx1112basic_stringIcSt11char_traitsIcESaIcEEE@Base 0.4.1
 _ZN3ndn8security6SecTpm28importPrivateKeyPkcs5IntoTpmERKNS_4NameEPKhmRKNSt7__cxx1112basic_stringIcSt11char_traitsIcESaIcEEE@Base 0.4.1
 _ZN3ndn8security6SecTpm5ErrorD0Ev@Base 0.4.1
 _ZN3ndn8security6SecTpm5ErrorD1Ev@Base 0.4.1
 _ZN3ndn8security6SecTpm5ErrorD2Ev@Base 0.4.1
 _ZN3ndn8security6SecTpmC1ERKNSt7__cxx1112basic_stringIcSt11char_traitsIcESaIcEEE@Base 0.4.1
 _ZN3ndn8security6SecTpmC2ERKNSt7__cxx1112basic_stringIcSt11char_traitsIcESaIcEEE@Base 0.4.1
 _ZN3ndn8security6SecTpmD0Ev@Base 0.4.1
 _ZN3ndn8security6SecTpmD1Ev@Base 0.4.1
 _ZN3ndn8security6SecTpmD2Ev@Base 0.4.1
 _ZN3ndn8security6detail10EvpPkeyCtxC1EP11evp_pkey_st@Base 0.4.1
 _ZN3ndn8security6detail10EvpPkeyCtxC1Ei@Base 0.4.1
 _ZN3ndn8security6detail10EvpPkeyCtxC2EP11evp_pkey_st@Base 0.4.1
 _ZN3ndn8security6detail10EvpPkeyCtxC2Ei@Base 0.4.1
 _ZN3ndn8security6detail10EvpPkeyCtxD1Ev@Base 0.4.1
 _ZN3ndn8security6detail10EvpPkeyCtxD2Ev@Base 0.4.1
 _ZN3ndn8security6detail13toDigestEvpMdENS_15DigestAlgorithmE@Base 0.4.1
 _ZN3ndn8security6detail3BioC1EP13bio_method_st@Base 0.4.1
 _ZN3ndn8security6detail3BioC2EP13bio_method_st@Base 0.4.1
 _ZN3ndn8security6detail3BioD1Ev@Base 0.4.1
 _ZN3ndn8security6detail3BioD2Ev@Base 0.4.1
 _ZN3ndn8security6detail7EvpPkeyC1Ev@Base 0.4.1
 _ZN3ndn8security6detail7EvpPkeyC2Ev@Base 0.4.1
 _ZN3ndn8security6detail7EvpPkeyD1Ev@Base 0.4.1
 _ZN3ndn8security6detail7EvpPkeyD2Ev@Base 0.4.1
 _ZN3ndn8security7PibImpl5ErrorD0Ev@Base 0.4.1
 _ZN3ndn8security7PibImpl5ErrorD1Ev@Base 0.4.1
 _ZN3ndn8security7PibImpl5ErrorD2Ev@Base 0.4.1
 _ZN3ndn8security7SafeBag10wireDecodeERKNS_5BlockE@Base 0.4.1
 _ZN3ndn8security7SafeBagC1ERKNS_4DataEPKhm@Base 0.4.1
 _ZN3ndn8security7SafeBagC1ERKNS_4DataERKNS_6BufferE@Base 0.4.1
 _ZN3ndn8security7SafeBagC1ERKNS_5BlockE@Base 0.4.1
 _ZN3ndn8security7SafeBagC1Ev@Base 0.4.1
 _ZN3ndn8security7SafeBagC2ERKNS_4DataEPKhm@Base 0.4.1
 _ZN3ndn8security7SafeBagC2ERKNS_4DataERKNS_6BufferE@Base 0.4.1
 _ZN3ndn8security7SafeBagC2ERKNS_5BlockE@Base 0.4.1
 _ZN3ndn8security7SafeBagC2Ev@Base 0.4.1
 _ZN3ndn8security8Identity12EMPTY_KEY_IDE@Base 0.4.1
 _ZN3ndn8security8Identity13setDefaultKeyERKNS0_2v19PublicKeyERKNS_4name9ComponentE@Base 0.4.1
 _ZN3ndn8security8Identity13setDefaultKeyERKNS_4name9ComponentE@Base 0.4.1
 _ZN3ndn8security8Identity6addKeyERKNS0_2v19PublicKeyERKNS_4name9ComponentE@Base 0.4.1
 _ZN3ndn8security8Identity9removeKeyERKNS_4name9ComponentE@Base 0.4.1
 _ZN3ndn8security8IdentityC1ERKNS_4NameESt10shared_ptrINS0_7PibImplEEb@Base 0.4.1
 _ZN3ndn8security8IdentityC1Ev@Base 0.4.1
 _ZN3ndn8security8IdentityC2ERKNS_4NameESt10shared_ptrINS0_7PibImplEEb@Base 0.4.1
 _ZN3ndn8security8IdentityC2Ev@Base 0.4.1
 _ZN3ndn8security8IdentityD1Ev@Base 0.4.1
 _ZN3ndn8security8IdentityD2Ev@Base 0.4.1
 _ZN3ndn8security8KeyChain10initializeERKNSt7__cxx1112basic_stringIcSt11char_traitsIcESaIcEEES9_b@Base 0.4.1
 _ZN3ndn8security8KeyChain13MismatchErrorD0Ev@Base 0.4.1
 _ZN3ndn8security8KeyChain13MismatchErrorD1Ev@Base 0.4.1
 _ZN3ndn8security8KeyChain13MismatchErrorD2Ev@Base 0.4.1
 _ZN3ndn8security8KeyChain14DEFAULT_PREFIXE@Base 0.4.1
 _ZN3ndn8security8KeyChain14createIdentityERKNS_4NameERKNS_9KeyParamsE@Base 0.4.1
 _ZN3ndn8security8KeyChain14deleteIdentityERKNS_4NameE@Base 0.4.1
 _ZN3ndn8security8KeyChain14exportIdentityERKNS_4NameERKNSt7__cxx1112basic_stringIcSt11char_traitsIcESaIcEEE@Base 0.4.1
 _ZN3ndn8security8KeyChain14importIdentityERKNS0_10SecuredBagERKNSt7__cxx1112basic_stringIcSt11char_traitsIcESaIcEEE@Base 0.4.1
 _ZN3ndn8security8KeyChain14signByIdentityEPKhmRKNS_4NameE@Base 0.4.1
 _ZN3ndn8security8KeyChain14signWithSha256ERNS_4DataE@Base 0.4.1
 _ZN3ndn8security8KeyChain14signWithSha256ERNS_8InterestE@Base 0.4.1
 _ZN3ndn8security8KeyChain15generateKeyPairERKNS_4NameEbRKNS_9KeyParamsE@Base 0.4.1
 _ZN3ndn8security8KeyChain15registerPibImplERKNSt7__cxx1112basic_stringIcSt11char_traitsIcESaIcEEESt16initializer_listIS7_ESt8functionIFSt10unique_ptrINS0_13SecPublicInfoESt14default_deleteISE_EES9_EE@Base 0.4.1
 _ZN3ndn8security8KeyChain15registerTpmImplERKNSt7__cxx1112basic_stringIcSt11char_traitsIcESaIcEEESt16initializer_listIS7_ESt8functionIFSt10unique_ptrINS0_6SecTpmESt14default_deleteISE_EES9_EE@Base 0.4.1
 _ZN3ndn8security8KeyChain16getSignatureTypeENS_7KeyTypeENS_15DigestAlgorithmE@Base 0.4.1
 _ZN3ndn8security8KeyChain17deleteCertificateERKNS_4NameE@Base 0.4.1
 _ZN3ndn8security8KeyChain17signPacketWrapperERNS_4DataERKNS_9SignatureERKNS_4NameENS_15DigestAlgorithmE@Base 0.4.1
 _ZN3ndn8security8KeyChain17signPacketWrapperERNS_8InterestERKNS_9SignatureERKNS_4NameENS_15DigestAlgorithmE@Base 0.4.1
 _ZN3ndn8security8KeyChain18DEFAULT_KEY_PARAMSE@Base 0.4.1
 _ZN3ndn8security8KeyChain18generateRsaKeyPairERKNS_4NameEbj@Base 0.4.1
 _ZN3ndn8security8KeyChain20DEFAULT_SIGNING_INFOE@Base 0.4.1
 _ZN3ndn8security8KeyChain20generateEcdsaKeyPairERKNS_4NameEbj@Base 0.4.1
 _ZN3ndn8security8KeyChain20getDefaultPibLocatorB5cxx11Ev@Base 0.4.1
 _ZN3ndn8security8KeyChain20getDefaultTpmLocatorB5cxx11Ev@Base 0.4.1
 _ZN3ndn8security8KeyChain20prepareSignatureInfoERKNS0_11SigningInfoE@Base 0.4.1
 _ZN3ndn8security8KeyChain22DIGEST_SHA256_IDENTITYE@Base 0.4.1
 _ZN3ndn8security8KeyChain27generateRsaKeyPairAsDefaultERKNS_4NameEbj@Base 0.4.1
 _ZN3ndn8security8KeyChain29generateEcdsaKeyPairAsDefaultERKNS_4NameEbj@Base 0.4.1
 _ZN3ndn8security8KeyChain29setDefaultCertificateInternalEv@Base 0.4.1
 _ZN3ndn8security8KeyChain34prepareUnsignedIdentityCertificateERKNS_4NameERKNS0_2v19PublicKeyES4_RKN5boost6chrono10time_pointINS_4time12system_clockENSA_8durationIlNS9_5ratioILl1ELl1000000000EEEEEEESK_RKSt6vectorINS5_29CertificateSubjectDescriptionESaISM_EES4_@Base 0.4.1
 _ZN3ndn8security8KeyChain34prepareUnsignedIdentityCertificateERKNS_4NameES4_RKN5boost6chrono10time_pointINS_4time12system_clockENS6_8durationIlNS5_5ratioILl1ELl1000000000EEEEEEESG_RKSt6vectorINS0_2v129CertificateSubjectDescriptionESaISJ_EES4_@Base 0.4.1
 _ZN3ndn8security8KeyChain4signEPKhmRKNS0_11SigningInfoE@Base 0.4.1
 _ZN3ndn8security8KeyChain4signEPKhmRKNS_4NameE@Base 0.4.1
 _ZN3ndn8security8KeyChain4signERNS_4DataERKNS0_11SigningInfoE@Base 0.4.1
 _ZN3ndn8security8KeyChain4signERNS_8InterestERKNS0_11SigningInfoE@Base 0.4.1
 _ZN3ndn8security8KeyChain5ErrorD0Ev@Base 0.4.1
 _ZN3ndn8security8KeyChain5ErrorD1Ev@Base 0.4.1
 _ZN3ndn8security8KeyChain5ErrorD2Ev@Base 0.4.1
 _ZN3ndn8security8KeyChain8selfSignERKNS_4NameE@Base 0.4.1
 _ZN3ndn8security8KeyChain8selfSignERNS0_2v119IdentityCertificateE@Base 0.4.1
 _ZN3ndn8security8KeyChain8signImplINS_4DataEEEvRT_RKNS0_11SigningInfoE@Base 0.4.1
 _ZN3ndn8security8KeyChain8signImplINS_8InterestEEEvRT_RKNS0_11SigningInfoE@Base 0.4.1
 _ZN3ndn8security8KeyChain9createPibERKNSt7__cxx1112basic_stringIcSt11char_traitsIcESaIcEEE@Base 0.4.1
 _ZN3ndn8security8KeyChain9createTpmERKNSt7__cxx1112basic_stringIcSt11char_traitsIcESaIcEEE@Base 0.4.1
 _ZN3ndn8security8KeyChain9deleteKeyERKNS_4NameE@Base 0.4.1
 _ZN3ndn8security8KeyChainC1ERKNSt7__cxx1112basic_stringIcSt11char_traitsIcESaIcEEES9_b@Base 0.4.1
 _ZN3ndn8security8KeyChainC1Ev@Base 0.4.1
 _ZN3ndn8security8KeyChainC2ERKNSt7__cxx1112basic_stringIcSt11char_traitsIcESaIcEEES9_b@Base 0.4.1
 _ZN3ndn8security8KeyChainC2Ev@Base 0.4.1
 _ZN3ndn8security8KeyChainD0Ev@Base 0.4.1
 _ZN3ndn8security8KeyChainD1Ev@Base 0.4.1
 _ZN3ndn8security8KeyChainD2Ev@Base 0.4.1
 _ZN3ndn8security9PibMemory11addIdentityERKNS_4NameE@Base 0.4.1
 _ZN3ndn8security9PibMemory13setTpmLocatorERKNSt7__cxx1112basic_stringIcSt11char_traitsIcESaIcEEE@Base 0.4.1
 _ZN3ndn8security9PibMemory14addCertificateERKNS0_2v119IdentityCertificateE@Base 0.4.1
 _ZN3ndn8security9PibMemory14removeIdentityERKNS_4NameE@Base 0.4.1
 _ZN3ndn8security9PibMemory17removeCertificateERKNS_4NameE@Base 0.4.1
 _ZN3ndn8security9PibMemory18setDefaultIdentityERKNS_4NameE@Base 0.4.1
 _ZN3ndn8security9PibMemory23setDefaultKeyOfIdentityERKNS_4NameERKNS_4name9ComponentE@Base 0.4.1
 _ZN3ndn8security9PibMemory26setDefaultCertificateOfKeyERKNS_4NameERKNS_4name9ComponentES4_@Base 0.4.1
 _ZN3ndn8security9PibMemory5ErrorD0Ev@Base 0.4.1
 _ZN3ndn8security9PibMemory5ErrorD1Ev@Base 0.4.1
 _ZN3ndn8security9PibMemory5ErrorD2Ev@Base 0.4.1
 _ZN3ndn8security9PibMemory6addKeyERKNS_4NameERKNS_4name9ComponentERKNS0_2v19PublicKeyE@Base 0.4.1
 _ZN3ndn8security9PibMemory9removeKeyERKNS_4NameERKNS_4name9ComponentE@Base 0.4.1
 _ZN3ndn8security9PibMemoryC1Ev@Base 0.4.1
 _ZN3ndn8security9PibMemoryC2Ev@Base 0.4.1
 _ZN3ndn8security9PibMemoryD0Ev@Base 0.4.1
 _ZN3ndn8security9PibMemoryD1Ev@Base 0.4.1
 _ZN3ndn8security9PibMemoryD2Ev@Base 0.4.1
 _ZN3ndn8security9Validator15verifySignatureEPKhmRKNS_12DigestSha256E@Base 0.4.1
 _ZN3ndn8security9Validator15verifySignatureEPKhmRKNS_9SignatureERKNS0_2v19PublicKeyE@Base 0.4.1
 _ZN3ndn8security9Validator15verifySignatureERKNS_4DataERKNS0_2v19PublicKeyE@Base 0.4.1
 _ZN3ndn8security9Validator15verifySignatureERKNS_8InterestERKNS0_2v19PublicKeyE@Base 0.4.1
 _ZN3ndn8security9Validator16afterCheckPolicyERKSt6vectorISt10shared_ptrINS0_17ValidationRequestEESaIS5_EERKSt8functionIFvRKNSt7__cxx1112basic_stringIcSt11char_traitsIcESaIcEEEEE@Base 0.4.1
 _ZN3ndn8security9Validator24preCertificateValidationERKNS_4DataE@Base 0.4.1
 _ZN3ndn8security9Validator5ErrorD0Ev@Base 0.4.1
 _ZN3ndn8security9Validator5ErrorD1Ev@Base 0.4.1
 _ZN3ndn8security9Validator5ErrorD2Ev@Base 0.4.1
 _ZN3ndn8security9Validator6onDataERKNS_8InterestERKNS_4DataERKSt10shared_ptrINS0_17ValidationRequestEE@Base 0.4.1
 _ZN3ndn8security9Validator6onNackERKNS_8InterestERKNS_2lp4NackEiRKSt8functionIFvRKNSt7__cxx1112basic_stringIcSt11char_traitsIcESaIcEEEEERKSt10shared_ptrINS0_17ValidationRequestEE@Base 0.4.1
 _ZN3ndn8security9Validator8validateERKNS_4DataERKSt8functionIFvRKSt10shared_ptrIS3_EEERKS5_IFvS9_RKNSt7__cxx1112basic_stringIcSt11char_traitsIcESaIcEEEEEi@Base 0.4.1
 _ZN3ndn8security9Validator8validateERKNS_8InterestERKSt8functionIFvRKSt10shared_ptrIS3_EEERKS5_IFvS9_RKNSt7__cxx1112basic_stringIcSt11char_traitsIcESaIcEEEEEi@Base 0.4.1
 _ZN3ndn8security9Validator9onTimeoutERKNS_8InterestEiRKSt8functionIFvRKNSt7__cxx1112basic_stringIcSt11char_traitsIcESaIcEEEEERKSt10shared_ptrINS0_17ValidationRequestEE@Base 0.4.1
 _ZN3ndn8security9ValidatorC1EPNS_4FaceE@Base 0.4.1
 _ZN3ndn8security9ValidatorC1ERNS_4FaceE@Base 0.4.1
 _ZN3ndn8security9ValidatorC2EPNS_4FaceE@Base 0.4.1
 _ZN3ndn8security9ValidatorC2ERNS_4FaceE@Base 0.4.1
 _ZN3ndn8security9ValidatorD0Ev@Base 0.4.1
 _ZN3ndn8security9ValidatorD1Ev@Base 0.4.1
 _ZN3ndn8security9ValidatorD2Ev@Base 0.4.1
 _ZN3ndn8security9transform10Downstream3endEv@Base 0.4.1
 _ZN3ndn8security9transform10Downstream5writeEPKhm@Base 0.4.1
 _ZN3ndn8security9transform10DownstreamC1Ev@Base 0.4.1
 _ZN3ndn8security9transform10DownstreamC2Ev@Base 0.4.1
 _ZN3ndn8security9transform10HmacFilter7convertEPKhm@Base 0.4.1
 _ZN3ndn8security9transform10HmacFilter8finalizeEv@Base 0.4.1
 _ZN3ndn8security9transform10HmacFilterC1ENS_15DigestAlgorithmEPKhm@Base 0.4.1
 _ZN3ndn8security9transform10HmacFilterC2ENS_15DigestAlgorithmEPKhm@Base 0.4.1
 _ZN3ndn8security9transform10HmacFilterD0Ev@Base 0.4.1
 _ZN3ndn8security9transform10HmacFilterD1Ev@Base 0.4.1
 _ZN3ndn8security9transform10HmacFilterD2Ev@Base 0.4.1
 _ZN3ndn8security9transform10PrivateKey15loadPkcs1Base64EPKhm@Base 0.4.1
 _ZN3ndn8security9transform10PrivateKey15loadPkcs1Base64ERSi@Base 0.4.1
 _ZN3ndn8security9transform10PrivateKey15loadPkcs8Base64EPKhmPKcm@Base 0.4.1
 _ZN3ndn8security9transform10PrivateKey15loadPkcs8Base64EPKhmSt8functionIFiPcmbEE@Base 0.4.1
 _ZN3ndn8security9transform10PrivateKey15loadPkcs8Base64ERSiPKcm@Base 0.4.1
 _ZN3ndn8security9transform10PrivateKey15loadPkcs8Base64ERSiSt8functionIFiPcmbEE@Base 0.4.1
 _ZN3ndn8security9transform10PrivateKey5ErrorD0Ev@Base 0.4.1
 _ZN3ndn8security9transform10PrivateKey5ErrorD1Ev@Base 0.4.1
 _ZN3ndn8security9transform10PrivateKey5ErrorD2Ev@Base 0.4.1
 _ZN3ndn8security9transform10PrivateKey9loadPkcs1EPKhm@Base 0.4.1
 _ZN3ndn8security9transform10PrivateKey9loadPkcs1ERSi@Base 0.4.1
 _ZN3ndn8security9transform10PrivateKey9loadPkcs8EPKhmPKcm@Base 0.4.1
 _ZN3ndn8security9transform10PrivateKey9loadPkcs8EPKhmSt8functionIFiPcmbEE@Base 0.4.1
 _ZN3ndn8security9transform10PrivateKey9loadPkcs8ERSiPKcm@Base 0.4.1
 _ZN3ndn8security9transform10PrivateKey9loadPkcs8ERSiSt8functionIFiPcmbEE@Base 0.4.1
 _ZN3ndn8security9transform10PrivateKeyC1Ev@Base 0.4.1
 _ZN3ndn8security9transform10PrivateKeyC2Ev@Base 0.4.1
 _ZN3ndn8security9transform10PrivateKeyD1Ev@Base 0.4.1
 _ZN3ndn8security9transform10PrivateKeyD2Ev@Base 0.4.1
 _ZN3ndn8security9transform10StepSource3endEv@Base 0.4.1
 _ZN3ndn8security9transform10StepSource5writeEPKhm@Base 0.4.1
 _ZN3ndn8security9transform10StepSource6doPumpEv@Base 0.4.1
 _ZN3ndn8security9transform10StepSourceD0Ev@Base 0.4.1
 _ZN3ndn8security9transform10StepSourceD1Ev@Base 0.4.1
 _ZN3ndn8security9transform10StepSourceD2Ev@Base 0.4.1
 _ZN3ndn8security9transform10StreamSink5doEndEv@Base 0.4.1
 _ZN3ndn8security9transform10StreamSink7doWriteEPKhm@Base 0.4.1
 _ZN3ndn8security9transform10StreamSinkC1ERSo@Base 0.4.1
 _ZN3ndn8security9transform10StreamSinkC2ERSo@Base 0.4.1
 _ZN3ndn8security9transform10StreamSinkD0Ev@Base 0.4.1
 _ZN3ndn8security9transform10StreamSinkD1Ev@Base 0.4.1
 _ZN3ndn8security9transform10StreamSinkD2Ev@Base 0.4.1
 _ZN3ndn8security9transform10StripSpace19DEFAULT_WHITESPACESE@Base 0.4.1
 _ZN3ndn8security9transform10StripSpace7convertEPKhm@Base 0.4.1
 _ZN3ndn8security9transform10StripSpaceC1EPKc@Base 0.4.1
 _ZN3ndn8security9transform10StripSpaceC2EPKc@Base 0.4.1
 _ZN3ndn8security9transform10StripSpaceD0Ev@Base 0.4.1
 _ZN3ndn8security9transform10StripSpaceD1Ev@Base 0.4.1
 _ZN3ndn8security9transform10StripSpaceD2Ev@Base 0.4.1
 _ZN3ndn8security9transform10hmacFilterENS_15DigestAlgorithmEPKhm@Base 0.4.1
 _ZN3ndn8security9transform10streamSinkERSo@Base 0.4.1
 _ZN3ndn8security9transform10stripSpaceEPKc@Base 0.4.1
 _ZN3ndn8security9transform11BlockCipher12preTransformEv@Base 0.4.1
 _ZN3ndn8security9transform11BlockCipher16fillOutputBufferEv@Base 0.4.1
 _ZN3ndn8security9transform11BlockCipher16initializeAesCbcEPKhmS4_mNS_14CipherOperatorE@Base 0.4.1
 _ZN3ndn8security9transform11BlockCipher7convertEPKhm@Base 0.4.1
 _ZN3ndn8security9transform11BlockCipher8finalizeEv@Base 0.4.1
 _ZN3ndn8security9transform11BlockCipherC1ENS_20BlockCipherAlgorithmENS_14CipherOperatorEPKhmS6_m@Base 0.4.1
 _ZN3ndn8security9transform11BlockCipherC2ENS_20BlockCipherAlgorithmENS_14CipherOperatorEPKhmS6_m@Base 0.4.1
 _ZN3ndn8security9transform11BlockCipherD0Ev@Base 0.4.1
 _ZN3ndn8security9transform11BlockCipherD1Ev@Base 0.4.1
 _ZN3ndn8security9transform11BlockCipherD2Ev@Base 0.4.1
 _ZN3ndn8security9transform11blockCipherENS_20BlockCipherAlgorithmENS_14CipherOperatorEPKhmS5_m@Base 0.4.1
 _ZN3ndn8security9transform12Base64Decode12preTransformEv@Base 0.4.1
 _ZN3ndn8security9transform12Base64Decode16fillOutputBufferEv@Base 0.4.1
 _ZN3ndn8security9transform12Base64Decode7convertEPKhm@Base 0.4.1
 _ZN3ndn8security9transform12Base64Decode8finalizeEv@Base 0.4.1
 _ZN3ndn8security9transform12Base64DecodeC1Eb@Base 0.4.1
 _ZN3ndn8security9transform12Base64DecodeC2Eb@Base 0.4.1
 _ZN3ndn8security9transform12Base64DecodeD0Ev@Base 0.4.1
 _ZN3ndn8security9transform12Base64DecodeD1Ev@Base 0.4.1
 _ZN3ndn8security9transform12Base64DecodeD2Ev@Base 0.4.1
 _ZN3ndn8security9transform12Base64Encode12preTransformEv@Base 0.4.1
 _ZN3ndn8security9transform12Base64Encode16fillOutputBufferEv@Base 0.4.1
 _ZN3ndn8security9transform12Base64Encode16isConverterEmptyEv@Base 0.4.1
 _ZN3ndn8security9transform12Base64Encode7convertEPKhm@Base 0.4.1
 _ZN3ndn8security9transform12Base64Encode8finalizeEv@Base 0.4.1
 _ZN3ndn8security9transform12Base64EncodeC1Eb@Base 0.4.1
 _ZN3ndn8security9transform12Base64EncodeC2Eb@Base 0.4.1
 _ZN3ndn8security9transform12Base64EncodeD0Ev@Base 0.4.1
 _ZN3ndn8security9transform12Base64EncodeD1Ev@Base 0.4.1
 _ZN3ndn8security9transform12Base64EncodeD2Ev@Base 0.4.1
 _ZN3ndn8security9transform12BufferSource6doPumpEv@Base 0.4.1
 _ZN3ndn8security9transform12BufferSourceC1EPKhm@Base 0.4.1
 _ZN3ndn8security9transform12BufferSourceC1ERKNS_6BufferE@Base 0.4.1
 _ZN3ndn8security9transform12BufferSourceC1ERKNSt7__cxx1112basic_stringIcSt11char_traitsIcESaIcEEE@Base 0.4.1
 _ZN3ndn8security9transform12BufferSourceC2EPKhm@Base 0.4.1
 _ZN3ndn8security9transform12BufferSourceC2ERKNS_6BufferE@Base 0.4.1
 _ZN3ndn8security9transform12BufferSourceC2ERKNSt7__cxx1112basic_stringIcSt11char_traitsIcESaIcEEE@Base 0.4.1
 _ZN3ndn8security9transform12BufferSourceD0Ev@Base 0.4.1
 _ZN3ndn8security9transform12BufferSourceD1Ev@Base 0.4.1
 _ZN3ndn8security9transform12BufferSourceD2Ev@Base 0.4.1
 _ZN3ndn8security9transform12DigestFilter7convertEPKhm@Base 0.4.1
 _ZN3ndn8security9transform12DigestFilter8finalizeEv@Base 0.4.1
 _ZN3ndn8security9transform12DigestFilterC1ENS_15DigestAlgorithmE@Base 0.4.1
 _ZN3ndn8security9transform12DigestFilterC2ENS_15DigestAlgorithmE@Base 0.4.1
 _ZN3ndn8security9transform12DigestFilterD0Ev@Base 0.4.1
 _ZN3ndn8security9transform12DigestFilterD1Ev@Base 0.4.1
 _ZN3ndn8security9transform12DigestFilterD2Ev@Base 0.4.1
 _ZN3ndn8security9transform12SignerFilter7convertEPKhm@Base 0.4.1
 _ZN3ndn8security9transform12SignerFilter8finalizeEv@Base 0.4.1
 _ZN3ndn8security9transform12SignerFilterC1ENS_15DigestAlgorithmERKNS1_10PrivateKeyE@Base 0.4.1
 _ZN3ndn8security9transform12SignerFilterC2ENS_15DigestAlgorithmERKNS1_10PrivateKeyE@Base 0.4.1
 _ZN3ndn8security9transform12SignerFilterD0Ev@Base 0.4.1
 _ZN3ndn8security9transform12SignerFilterD1Ev@Base 0.4.1
 _ZN3ndn8security9transform12SignerFilterD2Ev@Base 0.4.1
 _ZN3ndn8security9transform12StreamSource18DEFAULT_BUFFER_LENE@Base 0.4.1
 _ZN3ndn8security9transform12StreamSource6doPumpEv@Base 0.4.1
 _ZN3ndn8security9transform12StreamSourceC1ERSim@Base 0.4.1
 _ZN3ndn8security9transform12StreamSourceC2ERSim@Base 0.4.1
 _ZN3ndn8security9transform12StreamSourceD0Ev@Base 0.4.1
 _ZN3ndn8security9transform12StreamSourceD1Ev@Base 0.4.1
 _ZN3ndn8security9transform12StreamSourceD2Ev@Base 0.4.1
 _ZN3ndn8security9transform12base64DecodeEb@Base 0.4.1
 _ZN3ndn8security9transform12base64EncodeEb@Base 0.4.1
 _ZN3ndn8security9transform12digestFilterENS_15DigestAlgorithmE@Base 0.4.1
 _ZN3ndn8security9transform12signerFilterENS_15DigestAlgorithmERKNS1_10PrivateKeyE@Base 0.4.1
 _ZN3ndn8security9transform14VerifierFilter7convertEPKhm@Base 0.4.1
 _ZN3ndn8security9transform14VerifierFilter8finalizeEv@Base 0.4.1
 _ZN3ndn8security9transform14VerifierFilterC1ENS_15DigestAlgorithmERKNS1_9PublicKeyEPKhm@Base 0.4.1
 _ZN3ndn8security9transform14VerifierFilterC2ENS_15DigestAlgorithmERKNS1_9PublicKeyEPKhm@Base 0.4.1
 _ZN3ndn8security9transform14VerifierFilterD0Ev@Base 0.4.1
 _ZN3ndn8security9transform14VerifierFilterD1Ev@Base 0.4.1
 _ZN3ndn8security9transform14VerifierFilterD2Ev@Base 0.4.1
 _ZN3ndn8security9transform14verifierFilterENS_15DigestAlgorithmERKNS1_9PublicKeyEPKhm@Base 0.4.1
 _ZN3ndn8security9transform18generatePrivateKeyERKNS_9KeyParamsE@Base 0.4.1
 _ZN3ndn8security9transform5ErrorC1EmRKNSt7__cxx1112basic_stringIcSt11char_traitsIcESaIcEEE@Base 0.4.1
 _ZN3ndn8security9transform5ErrorC2EmRKNSt7__cxx1112basic_stringIcSt11char_traitsIcESaIcEEE@Base 0.4.1
 _ZN3ndn8security9transform5ErrorD0Ev@Base 0.4.1
 _ZN3ndn8security9transform5ErrorD1Ev@Base 0.4.1
 _ZN3ndn8security9transform5ErrorD2Ev@Base 0.4.1
 _ZN3ndn8security9transform6Source4pumpEv@Base 0.4.1
 _ZN3ndn8security9transform6SourceC1Ev@Base 0.4.1
 _ZN3ndn8security9transform6SourceC2Ev@Base 0.4.1
 _ZN3ndn8security9transform6SourcersESt10unique_ptrINS1_4SinkESt14default_deleteIS4_EE@Base 0.4.1
 _ZN3ndn8security9transform6SourcersESt10unique_ptrINS1_9TransformESt14default_deleteIS4_EE@Base 0.4.1
 _ZN3ndn8security9transform8BoolSink5doEndEv@Base 0.4.1
 _ZN3ndn8security9transform8BoolSink7doWriteEPKhm@Base 0.4.1
 _ZN3ndn8security9transform8BoolSinkC1ERb@Base 0.4.1
 _ZN3ndn8security9transform8BoolSinkC2ERb@Base 0.4.1
 _ZN3ndn8security9transform8BoolSinkD0Ev@Base 0.4.1
 _ZN3ndn8security9transform8BoolSinkD1Ev@Base 0.4.1
 _ZN3ndn8security9transform8BoolSinkD2Ev@Base 0.4.1
 _ZN3ndn8security9transform8Upstream11appendChainESt10unique_ptrINS1_10DownstreamESt14default_deleteIS4_EE@Base 0.4.1
 _ZN3ndn8security9transform8UpstreamC1Ev@Base 0.4.1
 _ZN3ndn8security9transform8UpstreamC2Ev@Base 0.4.1
 _ZN3ndn8security9transform8UpstreamD0Ev@Base 0.4.1
 _ZN3ndn8security9transform8UpstreamD1Ev@Base 0.4.1
 _ZN3ndn8security9transform8UpstreamD2Ev@Base 0.4.1
 _ZN3ndn8security9transform8boolSinkERb@Base 0.4.1
 _ZN3ndn8security9transform9HexDecode7convertEPKhm@Base 0.4.1
 _ZN3ndn8security9transform9HexDecode7toBytesEPKhm@Base 0.4.1
 _ZN3ndn8security9transform9HexDecode8finalizeEv@Base 0.4.1
 _ZN3ndn8security9transform9HexDecodeC1Ev@Base 0.4.1
 _ZN3ndn8security9transform9HexDecodeC2Ev@Base 0.4.1
 _ZN3ndn8security9transform9HexDecodeD0Ev@Base 0.4.1
 _ZN3ndn8security9transform9HexDecodeD1Ev@Base 0.4.1
 _ZN3ndn8security9transform9HexDecodeD2Ev@Base 0.4.1
 _ZN3ndn8security9transform9HexEncode5toHexEPKhm@Base 0.4.1
 _ZN3ndn8security9transform9HexEncode7convertEPKhm@Base 0.4.1
 _ZN3ndn8security9transform9HexEncodeC1Eb@Base 0.4.1
 _ZN3ndn8security9transform9HexEncodeC2Eb@Base 0.4.1
 _ZN3ndn8security9transform9HexEncodeD0Ev@Base 0.4.1
 _ZN3ndn8security9transform9HexEncodeD1Ev@Base 0.4.1
 _ZN3ndn8security9transform9HexEncodeD2Ev@Base 0.4.1
 _ZN3ndn8security9transform9PublicKey15loadPkcs8Base64EPKhm@Base 0.4.1
 _ZN3ndn8security9transform9PublicKey15loadPkcs8Base64ERSi@Base 0.4.1
 _ZN3ndn8security9transform9PublicKey5ErrorD0Ev@Base 0.4.1
 _ZN3ndn8security9transform9PublicKey5ErrorD1Ev@Base 0.4.1
 _ZN3ndn8security9transform9PublicKey5ErrorD2Ev@Base 0.4.1
 _ZN3ndn8security9transform9PublicKey9loadPkcs8EPKhm@Base 0.4.1
 _ZN3ndn8security9transform9PublicKey9loadPkcs8ERSi@Base 0.4.1
 _ZN3ndn8security9transform9PublicKeyC1Ev@Base 0.4.1
 _ZN3ndn8security9transform9PublicKeyC2Ev@Base 0.4.1
 _ZN3ndn8security9transform9PublicKeyD1Ev@Base 0.4.1
 _ZN3ndn8security9transform9PublicKeyD2Ev@Base 0.4.1
 _ZN3ndn8security9transform9Transform12preTransformEv@Base 0.4.1
 _ZN3ndn8security9transform9Transform14flushAllOutputEv@Base 0.4.1
 _ZN3ndn8security9transform9Transform15setOutputBufferESt10unique_ptrISt6vectorIhSaIhEESt14default_deleteIS6_EE@Base 0.4.1
 _ZN3ndn8security9transform9Transform17flushOutputBufferEv@Base 0.4.1
 _ZN3ndn8security9transform9Transform5doEndEv@Base 0.4.1
 _ZN3ndn8security9transform9Transform7doWriteEPKhm@Base 0.4.1
 _ZN3ndn8security9transform9Transform8finalizeEv@Base 0.4.1
 _ZN3ndn8security9transform9TransformC1Ev@Base 0.4.1
 _ZN3ndn8security9transform9TransformC2Ev@Base 0.4.1
 _ZN3ndn8security9transform9TransformD0Ev@Base 0.4.1
 _ZN3ndn8security9transform9TransformD1Ev@Base 0.4.1
 _ZN3ndn8security9transform9TransformD2Ev@Base 0.4.1
 _ZN3ndn8security9transform9hexDecodeEv@Base 0.4.1
 _ZN3ndn8security9transform9hexEncodeEb@Base 0.4.1
 _ZN3ndn8securitylsERSoNS0_24CommandInterestValidator9ErrorCodeE@Base 0.4.1
 _ZN3ndn8securitylsERSoRKNS0_11SigningInfoE@Base 0.4.1
 _ZN3ndn8securitylsERSoRKNS0_14ValidityPeriodE@Base 0.4.1
 _ZN3ndn8trimLeftERNSt7__cxx1112basic_stringIcSt11char_traitsIcESaIcEEE@Base 0.4.1
 _ZN3ndn8unescapeERKNSt7__cxx1112basic_stringIcSt11char_traitsIcESaIcEEE@Base 0.4.1
 _ZN3ndn9Selectors10setExcludeERKNS_7ExcludeE@Base 0.4.1
 _ZN3ndn9Selectors10wireDecodeERKNS_5BlockE@Base 0.4.1
 _ZN3ndn9Selectors14setMustBeFreshEb@Base 0.4.1
 _ZN3ndn9Selectors16setChildSelectorEi@Base 0.4.1
 _ZN3ndn9Selectors22setMaxSuffixComponentsEi@Base 0.4.1
 _ZN3ndn9Selectors22setMinSuffixComponentsEi@Base 0.4.1
 _ZN3ndn9Selectors28setPublisherPublicKeyLocatorERKNS_10KeyLocatorE@Base 0.4.1
 _ZN3ndn9SelectorsC1ERKNS_5BlockE@Base 0.4.1
 _ZN3ndn9SelectorsC1Ev@Base 0.4.1
 _ZN3ndn9SelectorsC2ERKNS_5BlockE@Base 0.4.1
 _ZN3ndn9SelectorsC2Ev@Base 0.4.1
 _ZN3ndn9SelectorsD1Ev@Base 0.4.1
 _ZN3ndn9SelectorsD2Ev@Base 0.4.1
 _ZN3ndn9Signature5ErrorD0Ev@Base 0.4.1
 _ZN3ndn9Signature5ErrorD1Ev@Base 0.4.1
 _ZN3ndn9Signature5ErrorD2Ev@Base 0.4.1
 _ZN3ndn9Signature7setInfoERKNS_5BlockE@Base 0.4.1
 _ZN3ndn9Signature8setValueERKNS_5BlockE@Base 0.4.1
 _ZN3ndn9SignatureC1ERKNS_13SignatureInfoERKNS_5BlockE@Base 0.4.1
 _ZN3ndn9SignatureC1ERKNS_5BlockES3_@Base 0.4.1
 _ZN3ndn9SignatureC2ERKNS_13SignatureInfoERKNS_5BlockE@Base 0.4.1
 _ZN3ndn9SignatureC2ERKNS_5BlockES3_@Base 0.4.1
 _ZN3ndn9SimpleTagINS_2lp11CachePolicyELi12EED0Ev@Base 0.4.1
 _ZN3ndn9SimpleTagINS_2lp11CachePolicyELi12EED1Ev@Base 0.4.1
 _ZN3ndn9SimpleTagINS_2lp11CachePolicyELi12EED2Ev@Base 0.4.1
 _ZN3ndn9SimpleTagImLi10EED0Ev@Base 0.4.1
 _ZN3ndn9SimpleTagImLi10EED1Ev@Base 0.4.1
 _ZN3ndn9SimpleTagImLi10EED2Ev@Base 0.4.1
 _ZN3ndn9SimpleTagImLi11EED0Ev@Base 0.4.1
 _ZN3ndn9SimpleTagImLi11EED1Ev@Base 0.4.1
 _ZN3ndn9SimpleTagImLi11EED2Ev@Base 0.4.1
 _ZN3ndn9Transport5ErrorC1ERKN5boost6system10error_codeERKNSt7__cxx1112basic_stringIcSt11char_traitsIcESaIcEEE@Base 0.4.1
 _ZN3ndn9Transport5ErrorC1ERKNSt7__cxx1112basic_stringIcSt11char_traitsIcESaIcEEE@Base 0.4.1
 _ZN3ndn9Transport5ErrorC2ERKN5boost6system10error_codeERKNSt7__cxx1112basic_stringIcSt11char_traitsIcESaIcEEE@Base 0.4.1
 _ZN3ndn9Transport5ErrorC2ERKNSt7__cxx1112basic_stringIcSt11char_traitsIcESaIcEEE@Base 0.4.1
 _ZN3ndn9Transport5ErrorD0Ev@Base 0.4.1
 _ZN3ndn9Transport5ErrorD1Ev@Base 0.4.1
 _ZN3ndn9Transport5ErrorD2Ev@Base 0.4.1
 _ZN3ndn9Transport7connectERN5boost4asio10io_serviceERKSt8functionIFvRKNS_5BlockEEE@Base 0.4.1
 _ZN3ndn9TransportC1Ev@Base 0.4.1
 _ZN3ndn9TransportC2Ev@Base 0.4.1
 _ZN3ndn9trimRightERNSt7__cxx1112basic_stringIcSt11char_traitsIcESaIcEEE@Base 0.4.1
 _ZN3ndneqERKNS_7Exclude16ExcludeComponentES3_@Base 0.4.1
 _ZN3ndngtERKNS_7Exclude16ExcludeComponentES3_@Base 0.4.1
 _ZN3ndnlsERSoNS_14CipherOperatorE@Base 0.4.1
 _ZN3ndnlsERSoNS_15DigestAlgorithmE@Base 0.4.1
 _ZN3ndnlsERSoNS_20BlockCipherAlgorithmE@Base 0.4.1
 _ZN3ndnlsERSoNS_7AclTypeE@Base 0.4.1
 _ZN3ndnlsERSoNS_7KeyTypeE@Base 0.4.1
 _ZN3ndnlsERSoNS_8KeyClassE@Base 0.4.1
 _ZN3ndnlsERSoRKNS_14InterestFilterE@Base 0.4.1
 _ZN3ndnlsERSoRKNS_4DataE@Base 0.4.1
 _ZN3ndnlsERSoRKNS_4NameE@Base 0.4.1
 _ZN3ndnlsERSoRKNS_7Exclude5RangeE@Base 0.4.1
 _ZN3ndnlsERSoRKNS_7ExcludeE@Base 0.4.1
 _ZN3ndnlsERSoRKNS_8InterestE@Base 0.4.1
 _ZN3ndnlsERSoRKNS_8MetaInfoE@Base 0.4.1
 _ZN3ndnrsERSiRNS_4NameE@Base 0.4.1
 _ZN5boost10conversion6detail14throw_bad_castINSt7__cxx1112basic_stringIcSt11char_traitsIcESaIcEEEiEEvv@Base 0.4.1
 _ZN5boost10conversion6detail14throw_bad_castINSt7__cxx1112basic_stringIcSt11char_traitsIcESaIcEEEjEEvv@Base 0.4.1
 _ZN5boost10conversion6detail14throw_bad_castINSt7__cxx1112basic_stringIcSt11char_traitsIcESaIcEEEtEEvv@Base 0.4.1
 _ZN5boost10filesystem18directory_iteratorC1ERKNS0_4pathE@Base 0.4.1
 _ZN5boost10filesystem18directory_iteratorC2ERKNS0_4pathE@Base 0.4.1
 _ZN5boost10filesystemdvERKNS0_4pathES3_@Base 0.4.1
 _ZN5boost10filesystemlsIcSt11char_traitsIcEEERSt13basic_ostreamIT_T0_ES8_RKNS0_4pathE@Base 0.4.1
 _ZN5boost10lock_errorD0Ev@Base 0.4.1
 _ZN5boost10lock_errorD1Ev@Base 0.4.1
 _ZN5boost10lock_errorD2Ev@Base 0.4.1
 _ZN5boost10posix_time11from_time_tEl@Base 0.4.1
 _ZN5boost10posix_time18to_iso_string_typeIcEENSt7__cxx1112basic_stringIT_St11char_traitsIS4_ESaIS4_EEENS0_13time_durationE@Base 0.4.1
 _ZN5boost10posix_time18to_iso_string_typeIcEENSt7__cxx1112basic_stringIT_St11char_traitsIS4_ESaIS4_EEENS0_5ptimeE@Base 0.4.1
 _ZN5boost10posix_timelsIcSt11char_traitsIcEEERSt13basic_ostreamIT_T0_ES8_RKNS0_5ptimeE@Base 0.4.1
 _ZN5boost10posix_timersIcSt11char_traitsIcEEERSt13basic_istreamIT_T0_ES8_RNS0_5ptimeE@Base 0.4.1
 _ZN5boost10scope_exit3aux5guardIvED1Ev@Base 0.4.1
 _ZN5boost10scope_exit3aux5guardIvED2Ev@Base 0.4.1
 _ZN5boost11basic_regexIcNS_12regex_traitsIcNS_16cpp_regex_traitsIcEEEEEC1EPKcj@Base 0.4.1
 _ZN5boost11basic_regexIcNS_12regex_traitsIcNS_16cpp_regex_traitsIcEEEEEC2EPKcj@Base 0.4.1
 _ZN5boost11basic_regexIcNS_12regex_traitsIcNS_16cpp_regex_traitsIcEEEEED1Ev@Base 0.4.1
 _ZN5boost11basic_regexIcNS_12regex_traitsIcNS_16cpp_regex_traitsIcEEEEED2Ev@Base 0.4.1
 _ZN5boost11make_sharedINS_3log11v2_mt_posix5sinks17asynchronous_sinkINS3_26basic_text_ostream_backendIcEENS3_20unbounded_fifo_queueEEEJRNS_10shared_ptrIS6_EEEEENS_6detail15sp_if_not_arrayIT_E4typeEDpOT0_@Base 0.4.1
 _ZN5boost11make_sharedINS_3log11v2_mt_posix5sinks26basic_text_ostream_backendIcEEJEEENS_6detail15sp_if_not_arrayIT_E4typeEDpOT0_@Base 0.4.1
 _ZN5boost11multi_index21multi_index_containerIN3ndn8security24CommandInterestValidator19LastTimestampRecordENS0_10indexed_byINS0_14ordered_uniqueINS0_6memberIS5_NS2_4NameEXadL_ZNS5_7keyNameEEEEEN4mpl_2naESC_EENS0_9sequencedINS0_3tagISC_SC_SC_SC_SC_SC_SC_SC_SC_SC_SC_SC_SC_SC_SC_SC_SC_SC_SC_SC_EEEESC_SC_SC_SC_SC_SC_SC_SC_SC_SC_SC_SC_SC_SC_SC_SC_SC_SC_EESaIS5_EED1Ev@Base 0.4.1
 _ZN5boost11multi_index21multi_index_containerIN3ndn8security24CommandInterestValidator19LastTimestampRecordENS0_10indexed_byINS0_14ordered_uniqueINS0_6memberIS5_NS2_4NameEXadL_ZNS5_7keyNameEEEEEN4mpl_2naESC_EENS0_9sequencedINS0_3tagISC_SC_SC_SC_SC_SC_SC_SC_SC_SC_SC_SC_SC_SC_SC_SC_SC_SC_SC_SC_EEEESC_SC_SC_SC_SC_SC_SC_SC_SC_SC_SC_SC_SC_SC_SC_SC_SC_SC_EESaIS5_EED2Ev@Base 0.4.1
 _ZN5boost11multi_index21multi_index_containerIPN3ndn4util20InMemoryStorageEntryENS0_10indexed_byINS0_14ordered_uniqueINS0_3tagINS3_15InMemoryStorage10byFullNameEN4mpl_2naESC_SC_SC_SC_SC_SC_SC_SC_SC_SC_SC_SC_SC_SC_SC_SC_SC_SC_EENS0_13const_mem_funIS4_RKNS2_4NameEXadL_ZNKS4_11getFullNameEvEEEESt4lessISF_EEESC_SC_SC_SC_SC_SC_SC_SC_SC_SC_SC_SC_SC_SC_SC_SC_SC_SC_SC_EESaIS5_EED1Ev@Base 0.4.1
 _ZN5boost11multi_index21multi_index_containerIPN3ndn4util20InMemoryStorageEntryENS0_10indexed_byINS0_14ordered_uniqueINS0_3tagINS3_15InMemoryStorage10byFullNameEN4mpl_2naESC_SC_SC_SC_SC_SC_SC_SC_SC_SC_SC_SC_SC_SC_SC_SC_SC_SC_EENS0_13const_mem_funIS4_RKNS2_4NameEXadL_ZNKS4_11getFullNameEvEEEESt4lessISF_EEESC_SC_SC_SC_SC_SC_SC_SC_SC_SC_SC_SC_SC_SC_SC_SC_SC_SC_SC_EESaIS5_EED2Ev@Base 0.4.1
 _ZN5boost11multi_index6detail17bucket_array_baseILb1EE5sizesE@Base 0.4.1
 _ZN5boost11multi_index6detail18ordered_index_implINS0_13const_mem_funIN3ndn4util20InMemoryStorageEntryERKNS4_4NameEXadL_ZNKS6_11getFullNameEvEEEESt4lessIS7_ENS1_9nth_layerILi1EPS6_NS0_10indexed_byINS0_14ordered_uniqueINS0_3tagINS5_15InMemoryStorage10byFullNameEN4mpl_2naESL_SL_SL_SL_SL_SL_SL_SL_SL_SL_SL_SL_SL_SL_SL_SL_SL_SL_EESA_SC_EESL_SL_SL_SL_SL_SL_SL_SL_SL_SL_SL_SL_SL_SL_SL_SL_SL_SL_SL_EESaISE_EEENS_3mpl6v_itemISJ_NSR_7vector0ISL_EELi0EEENS1_18ordered_unique_tagENS1_19null_augment_policyEE16delete_all_nodesEPNS1_18ordered_index_nodeISX_NS1_15index_node_baseISE_SP_EEEE@Base 0.4.1
 _ZN5boost11multi_index6detail18ordered_index_implINS0_6memberIN3ndn8security24CommandInterestValidator19LastTimestampRecordENS4_4NameEXadL_ZNS7_7keyNameEEEEESt4lessIS8_ENS1_9nth_layerILi1ES7_NS0_10indexed_byINS0_14ordered_uniqueIS9_N4mpl_2naESG_EENS0_9sequencedINS0_3tagISG_SG_SG_SG_SG_SG_SG_SG_SG_SG_SG_SG_SG_SG_SG_SG_SG_SG_SG_SG_EEEESG_SG_SG_SG_SG_SG_SG_SG_SG_SG_SG_SG_SG_SG_SG_SG_SG_SG_EESaIS7_EEENS_3mpl7vector0ISG_EENS1_18ordered_unique_tagENS1_19null_augment_policyEE16delete_all_nodesEPNS1_18ordered_index_nodeIST_NS1_20sequenced_index_nodeINS1_15index_node_baseIS7_SN_EEEEEE@Base 0.4.1
 _ZN5boost11multi_index6detail23ordered_index_node_implINS1_19null_augment_policyESaIcEE11rotate_leftEPS5_NS1_34ordered_index_node_compressed_baseIS3_S4_E10parent_refE@Base 0.4.1
 _ZN5boost11multi_index6detail23ordered_index_node_implINS1_19null_augment_policyESaIcEE12rotate_rightEPS5_NS1_34ordered_index_node_compressed_baseIS3_S4_E10parent_refE@Base 0.4.1
 _ZN5boost11multi_index6detail23ordered_index_node_implINS1_19null_augment_policyESaIcEE19rebalance_for_eraseEPS5_NS1_34ordered_index_node_compressed_baseIS3_S4_E10parent_refERS6_SA_@Base 0.4.1
 _ZN5boost11multi_index6detail23ordered_index_node_implINS1_19null_augment_policyESaIcEE9rebalanceEPS5_NS1_34ordered_index_node_compressed_baseIS3_S4_E10parent_refE@Base 0.4.1
 _ZN5boost11regex_matchIN9__gnu_cxx17__normal_iteratorIPKcNSt7__cxx1112basic_stringIcSt11char_traitsIcESaIcEEEEESaINS_9sub_matchISB_EEEcNS_12regex_traitsIcNS_16cpp_regex_traitsIcEEEEEEbT_SJ_RNS_13match_resultsISJ_T0_EERKNS_11basic_regexIT1_T2_EENS_15regex_constants12_match_flagsE@Base 0.4.1
 _ZN5boost11regex_matchISt11char_traitsIcESaIcEcNS_12regex_traitsIcNS_16cpp_regex_traitsIcEEEEEEbRKNSt7__cxx1112basic_stringIT1_T_T0_EERKNS_11basic_regexISA_T2_EENS_15regex_constants12_match_flagsE@Base 0.4.1
 _ZN5boost11unique_lockINS_3log11v2_mt_posix3aux14light_rw_mutexEE4lockEv@Base 0.4.1
 _ZN5boost12lexical_castINSt7__cxx1112basic_stringIcSt11char_traitsIcESaIcEEEN3ndn15DigestAlgorithmEEET_RKT0_@Base 0.4.1
 _ZN5boost12lexical_castINSt7__cxx1112basic_stringIcSt11char_traitsIcESaIcEEEjEET_RKT0_@Base 0.4.1
 _ZN5boost12lexical_castIlNSt7__cxx1112basic_stringIcSt11char_traitsIcESaIcEEEEET_RKT0_@Base 0.4.1
 _ZN5boost13intrusive_ptrINS_3log11v2_mt_posix15attribute_value4implEED1Ev@Base 0.4.1
 _ZN5boost13intrusive_ptrINS_3log11v2_mt_posix15attribute_value4implEED2Ev@Base 0.4.1
 _ZN5boost13match_resultsIN9__gnu_cxx17__normal_iteratorIPKcNSt7__cxx1112basic_stringIcSt11char_traitsIcESaIcEEEEESaINS_9sub_matchISB_EEEE9set_firstESB_mb@Base 0.4.1
 _ZN5boost13match_resultsIN9__gnu_cxx17__normal_iteratorIPKcNSt7__cxx1112basic_stringIcSt11char_traitsIcESaIcEEEEESaINS_9sub_matchISB_EEEEC1ERKSF_@Base 0.4.1
 _ZN5boost13match_resultsIN9__gnu_cxx17__normal_iteratorIPKcNSt7__cxx1112basic_stringIcSt11char_traitsIcESaIcEEEEESaINS_9sub_matchISB_EEEEC2ERKSF_@Base 0.4.1
 _ZN5boost13match_resultsIN9__gnu_cxx17__normal_iteratorIPKcNSt7__cxx1112basic_stringIcSt11char_traitsIcESaIcEEEEESaINS_9sub_matchISB_EEEED1Ev@Base 0.4.1
 _ZN5boost13match_resultsIN9__gnu_cxx17__normal_iteratorIPKcNSt7__cxx1112basic_stringIcSt11char_traitsIcESaIcEEEEESaINS_9sub_matchISB_EEEED2Ev@Base 0.4.1
 _ZN5boost13match_resultsIN9__gnu_cxx17__normal_iteratorIPKcNSt7__cxx1112basic_stringIcSt11char_traitsIcESaIcEEEEESaINS_9sub_matchISB_EEEEaSERKSF_@Base 0.4.1
 _ZN5boost13property_tree10ini_parser16ini_parser_errorD0Ev@Base 0.4.1
 _ZN5boost13property_tree10ini_parser16ini_parser_errorD1Ev@Base 0.4.1
 _ZN5boost13property_tree10ini_parser16ini_parser_errorD2Ev@Base 0.4.1
 _ZN5boost13property_tree10ini_parser8read_iniINS0_11basic_ptreeINSt7__cxx1112basic_stringIcSt11char_traitsIcESaIcEEES9_St4lessIS9_EEEEEvRSt13basic_istreamINT_8key_type10value_typeES6_ISG_EERSE_@Base 0.4.1
 _ZN5boost13property_tree11basic_ptreeINSt7__cxx1112basic_stringIcSt11char_traitsIcESaIcEEES7_St4lessIS7_EEC1ERKSA_@Base 0.4.1
 _ZN5boost13property_tree11basic_ptreeINSt7__cxx1112basic_stringIcSt11char_traitsIcESaIcEEES7_St4lessIS7_EEC2ERKSA_@Base 0.4.1
 _ZN5boost13property_tree11basic_ptreeINSt7__cxx1112basic_stringIcSt11char_traitsIcESaIcEEES7_St4lessIS7_EED1Ev@Base 0.4.1
 _ZN5boost13property_tree11basic_ptreeINSt7__cxx1112basic_stringIcSt11char_traitsIcESaIcEEES7_St4lessIS7_EED2Ev@Base 0.4.1
 _ZN5boost13property_tree11info_parser11read_stringIcEENSt7__cxx1112basic_stringIT_St11char_traitsIS5_ESaIS5_EEERPKS5_Pb@Base 0.4.1
 _ZN5boost13property_tree11info_parser14convert_chtypeIccEENSt7__cxx1112basic_stringIT_St11char_traitsIS5_ESaIS5_EEEPKT0_@Base 0.4.1
 _ZN5boost13property_tree11info_parser14expand_escapesIPKcEENSt7__cxx1112basic_stringINSt15iterator_traitsIT_E10value_typeESt11char_traitsISA_ESaISA_EEES8_S8_@Base 0.4.1
 _ZN5boost13property_tree11info_parser15skip_whitespaceIcEEvRPKT_@Base 0.4.1
 _ZN5boost13property_tree11info_parser17info_parser_errorD0Ev@Base 0.4.1
 _ZN5boost13property_tree11info_parser17info_parser_errorD1Ev@Base 0.4.1
 _ZN5boost13property_tree11info_parser17info_parser_errorD2Ev@Base 0.4.1
 _ZN5boost13property_tree11info_parser18read_info_internalINS0_11basic_ptreeINSt7__cxx1112basic_stringIcSt11char_traitsIcESaIcEEES9_St4lessIS9_EEEcEEvRSt13basic_istreamIT0_S6_ISE_EERT_RKS9_i@Base 0.4.1
 _ZN5boost13property_tree11info_parser9read_infoINS0_11basic_ptreeINSt7__cxx1112basic_stringIcSt11char_traitsIcESaIcEEES9_St4lessIS9_EEEcEEvRSt13basic_istreamIT0_S6_ISE_EERT_@Base 0.4.1
 _ZN5boost13property_tree11info_parser9read_wordIcEENSt7__cxx1112basic_stringIT_St11char_traitsIS5_ESaIS5_EEERPKS5_@Base 0.4.1
 _ZN5boost13property_tree11ptree_errorD0Ev@Base 0.4.1
 _ZN5boost13property_tree11ptree_errorD1Ev@Base 0.4.1
 _ZN5boost13property_tree11ptree_errorD2Ev@Base 0.4.1
 _ZN5boost13property_tree11string_pathINSt7__cxx1112basic_stringIcSt11char_traitsIcESaIcEEENS0_13id_translatorIS7_EEE6reduceEv@Base 0.4.1
 _ZN5boost13property_tree14ptree_bad_dataD0Ev@Base 0.4.1
 _ZN5boost13property_tree14ptree_bad_dataD1Ev@Base 0.4.1
 _ZN5boost13property_tree14ptree_bad_dataD2Ev@Base 0.4.1
 _ZN5boost13property_tree14ptree_bad_pathD0Ev@Base 0.4.1
 _ZN5boost13property_tree14ptree_bad_pathD1Ev@Base 0.4.1
 _ZN5boost13property_tree14ptree_bad_pathD2Ev@Base 0.4.1
 _ZN5boost13property_tree17file_parser_error11format_whatERKNSt7__cxx1112basic_stringIcSt11char_traitsIcESaIcEEES9_m@Base 0.4.1
 _ZN5boost13property_tree17file_parser_errorC1ERKNSt7__cxx1112basic_stringIcSt11char_traitsIcESaIcEEES9_m@Base 0.4.1
 _ZN5boost13property_tree17file_parser_errorC2ERKNSt7__cxx1112basic_stringIcSt11char_traitsIcESaIcEEES9_m@Base 0.4.1
 _ZN5boost13property_tree17file_parser_errorD0Ev@Base 0.4.1
 _ZN5boost13property_tree17file_parser_errorD1Ev@Base 0.4.1
 _ZN5boost13property_tree17file_parser_errorD2Ev@Base 0.4.1
 _ZN5boost13property_tree6detail4trimINSt7__cxx1112basic_stringIcSt11char_traitsIcESaIcEEEEET_RKS9_RKSt6locale@Base 0.4.1
 _ZN5boost14token_iteratorINS_16offset_separatorEN9__gnu_cxx17__normal_iteratorIPKcNSt7__cxx1112basic_stringIcSt11char_traitsIcESaIcEEEEESB_ED1Ev@Base 0.4.1
 _ZN5boost14token_iteratorINS_16offset_separatorEN9__gnu_cxx17__normal_iteratorIPKcNSt7__cxx1112basic_stringIcSt11char_traitsIcESaIcEEEEESB_ED2Ev@Base 0.4.1
 _ZN5boost15condition_errorD0Ev@Base 0.4.1
 _ZN5boost15condition_errorD1Ev@Base 0.4.1
 _ZN5boost15condition_errorD2Ev@Base 0.4.1
 _ZN5boost15throw_exceptionINS_10lock_errorEEEvRKT_@Base 0.4.1
 _ZN5boost15throw_exceptionINS_15condition_errorEEEvRKT_@Base 0.4.1
 _ZN5boost15throw_exceptionINS_16bad_lexical_castEEEvRKT_@Base 0.4.1
 _ZN5boost15throw_exceptionINS_16exception_detail19error_info_injectorIN3ndn10ConfigFile5ErrorEEEEEvRKT_@Base 0.4.1
 _ZN5boost15throw_exceptionINS_16exception_detail19error_info_injectorIN3ndn10KeyLocator5ErrorEEEEEvRKT_@Base 0.4.1
 _ZN5boost15throw_exceptionINS_16exception_detail19error_info_injectorIN3ndn12DigestSha2565ErrorEEEEEvRKT_@Base 0.4.1
 _ZN5boost15throw_exceptionINS_16exception_detail19error_info_injectorIN3ndn12RegexMatcher5ErrorEEEEEvRKT_@Base 0.4.1
 _ZN5boost15throw_exceptionINS_16exception_detail19error_info_injectorIN3ndn13SignatureInfo5ErrorEEEEEvRKT_@Base 0.4.1
 _ZN5boost15throw_exceptionINS_16exception_detail19error_info_injectorIN3ndn14InterestFilter5ErrorEEEEEvRKT_@Base 0.4.1
 _ZN5boost15throw_exceptionINS_16exception_detail19error_info_injectorIN3ndn15SecRuleRelative5ErrorEEEEEvRKT_@Base 0.4.1
 _ZN5boost15throw_exceptionINS_16exception_detail19error_info_injectorIN3ndn17StringHelperErrorEEEEEvRKT_@Base 0.4.1
 _ZN5boost15throw_exceptionINS_16exception_detail19error_info_injectorIN3ndn22SignatureSha256WithRsa5ErrorEEEEEvRKT_@Base 0.4.1
 _ZN5boost15throw_exceptionINS_16exception_detail19error_info_injectorIN3ndn24SignatureSha256WithEcdsa5ErrorEEEEEvRKT_@Base 0.4.1
 _ZN5boost15throw_exceptionINS_16exception_detail19error_info_injectorIN3ndn2io5ErrorEEEEEvRKT_@Base 0.4.1
 _ZN5boost15throw_exceptionINS_16exception_detail19error_info_injectorIN3ndn2lp11CachePolicy5ErrorEEEEEvRKT_@Base 0.4.1
 _ZN5boost15throw_exceptionINS_16exception_detail19error_info_injectorIN3ndn2lp6Packet5ErrorEEEEEvRKT_@Base 0.4.1
 _ZN5boost15throw_exceptionINS_16exception_detail19error_info_injectorIN3ndn3dns5ErrorEEEEEvRKT_@Base 0.4.1
 _ZN5boost15throw_exceptionINS_16exception_detail19error_info_injectorIN3ndn3nfd10FaceTraitsINS4_10FaceStatusEE5ErrorEEEEEvRKT_@Base 0.4.1
 _ZN5boost15throw_exceptionINS_16exception_detail19error_info_injectorIN3ndn3nfd10FaceTraitsINS4_21FaceEventNotificationEE5ErrorEEEEEvRKT_@Base 0.4.1
 _ZN5boost15throw_exceptionINS_16exception_detail19error_info_injectorIN3ndn3nfd13ChannelStatus5ErrorEEEEEvRKT_@Base 0.4.1
 _ZN5boost15throw_exceptionINS_16exception_detail19error_info_injectorIN3ndn3nfd13NextHopRecord5ErrorEEEEEvRKT_@Base 0.4.1
 _ZN5boost15throw_exceptionINS_16exception_detail19error_info_injectorIN3ndn3nfd13StatusDataset16ParseResultErrorEEEEEvRKT_@Base 0.4.1
 _ZN5boost15throw_exceptionINS_16exception_detail19error_info_injectorIN3ndn3nfd14ControlCommand13ArgumentErrorEEEEEvRKT_@Base 0.4.1
 _ZN5boost15throw_exceptionINS_16exception_detail19error_info_injectorIN3ndn3nfd14StrategyChoice5ErrorEEEEEvRKT_@Base 0.4.1
 _ZN5boost15throw_exceptionINS_16exception_detail19error_info_injectorIN3ndn3nfd15FaceQueryFilter5ErrorEEEEEvRKT_@Base 0.4.1
 _ZN5boost15throw_exceptionINS_16exception_detail19error_info_injectorIN3ndn3nfd15ForwarderStatus5ErrorEEEEEvRKT_@Base 0.4.1
 _ZN5boost15throw_exceptionINS_16exception_detail19error_info_injectorIN3ndn3nfd17ControlParameters5ErrorEEEEEvRKT_@Base 0.4.1
 _ZN5boost15throw_exceptionINS_16exception_detail19error_info_injectorIN3ndn3nfd5Route5ErrorEEEEEvRKT_@Base 0.4.1
 _ZN5boost15throw_exceptionINS_16exception_detail19error_info_injectorIN3ndn3nfd8FibEntry5ErrorEEEEEvRKT_@Base 0.4.1
 _ZN5boost15throw_exceptionINS_16exception_detail19error_info_injectorIN3ndn3nfd8RibEntry5ErrorEEEEEvRKT_@Base 0.4.1
 _ZN5boost15throw_exceptionINS_16exception_detail19error_info_injectorIN3ndn3tlv5ErrorEEEEEvRKT_@Base 0.4.1
 _ZN5boost15throw_exceptionINS_16exception_detail19error_info_injectorIN3ndn4Data5ErrorEEEEEvRKT_@Base 0.4.1
 _ZN5boost15throw_exceptionINS_16exception_detail19error_info_injectorIN3ndn4Face5ErrorEEEEEvRKT_@Base 0.4.1
 _ZN5boost15throw_exceptionINS_16exception_detail19error_info_injectorIN3ndn4Link5ErrorEEEEEvRKT_@Base 0.4.1
 _ZN5boost15throw_exceptionINS_16exception_detail19error_info_injectorIN3ndn4Name5ErrorEEEEEvRKT_@Base 0.4.1
 _ZN5boost15throw_exceptionINS_16exception_detail19error_info_injectorIN3ndn4name9Component5ErrorEEEEEvRKT_@Base 0.4.1
 _ZN5boost15throw_exceptionINS_16exception_detail19error_info_injectorIN3ndn4util14NetworkMonitor5ErrorEEEEEvRKT_@Base 0.4.1
 _ZN5boost15throw_exceptionINS_16exception_detail19error_info_injectorIN3ndn4util15InMemoryStorage5ErrorEEEEEvRKT_@Base 0.4.1
 _ZN5boost15throw_exceptionINS_16exception_detail19error_info_injectorIN3ndn4util6DigestIN8CryptoPP6SHA256EE5ErrorEEEEEvRKT_@Base 0.4.1
 _ZN5boost15throw_exceptionINS_16exception_detail19error_info_injectorIN3ndn4util7FaceUri5ErrorEEEEEvRKT_@Base 0.4.1
 _ZN5boost15throw_exceptionINS_16exception_detail19error_info_injectorIN3ndn5Block5ErrorEEEEEvRKT_@Base 0.4.1
 _ZN5boost15throw_exceptionINS_16exception_detail19error_info_injectorIN3ndn7Exclude5ErrorEEEEEvRKT_@Base 0.4.1
 _ZN5boost15throw_exceptionINS_16exception_detail19error_info_injectorIN3ndn8Interest5ErrorEEEEEvRKT_@Base 0.4.1
 _ZN5boost15throw_exceptionINS_16exception_detail19error_info_injectorIN3ndn8MetaInfo5ErrorEEEEEvRKT_@Base 0.4.1
 _ZN5boost15throw_exceptionINS_16exception_detail19error_info_injectorIN3ndn8security10SecTpmFile5ErrorEEEEEvRKT_@Base 0.4.1
 _ZN5boost15throw_exceptionINS_16exception_detail19error_info_injectorIN3ndn8security13SecPublicInfo5ErrorEEEEEvRKT_@Base 0.4.1
 _ZN5boost15throw_exceptionINS_16exception_detail19error_info_injectorIN3ndn8security14ValidityPeriod5ErrorEEEEEvRKT_@Base 0.4.1
 _ZN5boost15throw_exceptionINS_16exception_detail19error_info_injectorIN3ndn8security15ValidatorConfig5ErrorEEEEEvRKT_@Base 0.4.1
 _ZN5boost15throw_exceptionINS_16exception_detail19error_info_injectorIN3ndn8security20SecPublicInfoSqlite35ErrorEEEEEvRKT_@Base 0.4.1
 _ZN5boost15throw_exceptionINS_16exception_detail19error_info_injectorIN3ndn8security2v111Certificate5ErrorEEEEEvRKT_@Base 0.4.1
 _ZN5boost15throw_exceptionINS_16exception_detail19error_info_injectorIN3ndn8security2v119IdentityCertificate5ErrorEEEEEvRKT_@Base 0.4.1
 _ZN5boost15throw_exceptionINS_16exception_detail19error_info_injectorIN3ndn8security2v19PublicKey5ErrorEEEEEvRKT_@Base 0.4.1
 _ZN5boost15throw_exceptionINS_16exception_detail19error_info_injectorIN3ndn8security2v221AdditionalDescription5ErrorEEEEEvRKT_@Base 0.4.1
 _ZN5boost15throw_exceptionINS_16exception_detail19error_info_injectorIN3ndn8security3Pib5ErrorEEEEEvRKT_@Base 0.4.1
 _ZN5boost15throw_exceptionINS_16exception_detail19error_info_injectorIN3ndn8security4conf5ErrorEEEEEvRKT_@Base 0.4.1
 _ZN5boost15throw_exceptionINS_16exception_detail19error_info_injectorIN3ndn8security6SecTpm5ErrorEEEEEvRKT_@Base 0.4.1
 _ZN5boost15throw_exceptionINS_16exception_detail19error_info_injectorIN3ndn8security7PibImpl5ErrorEEEEEvRKT_@Base 0.4.1
 _ZN5boost15throw_exceptionINS_16exception_detail19error_info_injectorIN3ndn8security8KeyChain13MismatchErrorEEEEEvRKT_@Base 0.4.1
 _ZN5boost15throw_exceptionINS_16exception_detail19error_info_injectorIN3ndn8security8KeyChain5ErrorEEEEEvRKT_@Base 0.4.1
 _ZN5boost15throw_exceptionINS_16exception_detail19error_info_injectorIN3ndn8security9PibMemory5ErrorEEEEEvRKT_@Base 0.4.1
 _ZN5boost15throw_exceptionINS_16exception_detail19error_info_injectorIN3ndn8security9transform10PrivateKey5ErrorEEEEEvRKT_@Base 0.4.1
 _ZN5boost15throw_exceptionINS_16exception_detail19error_info_injectorIN3ndn8security9transform5ErrorEEEEEvRKT_@Base 0.4.1
 _ZN5boost15throw_exceptionINS_16exception_detail19error_info_injectorIN3ndn8security9transform9PublicKey5ErrorEEEEEvRKT_@Base 0.4.1
 _ZN5boost15throw_exceptionINS_16exception_detail19error_info_injectorIN3ndn9Signature5ErrorEEEEEvRKT_@Base 0.4.1
 _ZN5boost15throw_exceptionINS_16exception_detail19error_info_injectorIN3ndn9Transport5ErrorEEEEEvRKT_@Base 0.4.1
 _ZN5boost15throw_exceptionINS_16exception_detail19error_info_injectorINS_13property_tree10ini_parser16ini_parser_errorEEEEEvRKT_@Base 0.4.1
 _ZN5boost15throw_exceptionINS_16exception_detail19error_info_injectorINS_13property_tree11info_parser17info_parser_errorEEEEEvRKT_@Base 0.4.1
 _ZN5boost15throw_exceptionINS_16exception_detail19error_info_injectorISt12domain_errorEEEEvRKT_@Base 0.4.1
 _ZN5boost15throw_exceptionINS_16exception_detail19error_info_injectorISt12length_errorEEEEvRKT_@Base 0.4.1
 _ZN5boost15throw_exceptionINS_16exception_detail19error_info_injectorISt12out_of_rangeEEEEvRKT_@Base 0.4.1
 _ZN5boost15throw_exceptionINS_16exception_detail19error_info_injectorISt13runtime_errorEEEEvRKT_@Base 0.4.1
 _ZN5boost15throw_exceptionINS_16exception_detail19error_info_injectorISt16invalid_argumentEEEEvRKT_@Base 0.4.1
 _ZN5boost15throw_exceptionINS_17bad_function_callEEEvRKT_@Base 0.4.1
 _ZN5boost15throw_exceptionINS_21thread_resource_errorEEEvRKT_@Base 0.4.1
 _ZN5boost15throw_exceptionINS_6system12system_errorEEEvRKT_@Base 0.4.1
 _ZN5boost15throw_exceptionINS_9gregorian11bad_weekdayEEEvRKT_@Base 0.4.1
 _ZN5boost15throw_exceptionINS_9gregorian15bad_day_of_yearEEEvRKT_@Base 0.4.1
 _ZN5boost15throw_exceptionINS_9gregorian16bad_day_of_monthEEEvRKT_@Base 0.4.1
 _ZN5boost15throw_exceptionINS_9gregorian8bad_yearEEEvRKT_@Base 0.4.1
 _ZN5boost15throw_exceptionINS_9gregorian9bad_monthEEEvRKT_@Base 0.4.1
 _ZN5boost15throw_exceptionINSt8ios_base7failureB5cxx11EEEvRKT_@Base 0.4.1
 _ZN5boost15throw_exceptionISt11logic_errorEEvRKT_@Base 0.4.1
 _ZN5boost15throw_exceptionISt12out_of_rangeEEvRKT_@Base 0.4.1
 _ZN5boost15throw_exceptionISt13runtime_errorEEvRKT_@Base 0.4.1
 _ZN5boost16bad_lexical_castD0Ev@Base 0.4.1
 _ZN5boost16bad_lexical_castD1Ev@Base 0.4.1
 _ZN5boost16bad_lexical_castD2Ev@Base 0.4.1
 _ZN5boost16exception_detail10clone_implINS0_19error_info_injectorIN3ndn10ConfigFile5ErrorEEEED0Ev@Base 0.4.1
 _ZN5boost16exception_detail10clone_implINS0_19error_info_injectorIN3ndn10ConfigFile5ErrorEEEED1Ev@Base 0.4.1
 _ZN5boost16exception_detail10clone_implINS0_19error_info_injectorIN3ndn10KeyLocator5ErrorEEEED0Ev@Base 0.4.1
 _ZN5boost16exception_detail10clone_implINS0_19error_info_injectorIN3ndn10KeyLocator5ErrorEEEED1Ev@Base 0.4.1
 _ZN5boost16exception_detail10clone_implINS0_19error_info_injectorIN3ndn12DigestSha2565ErrorEEEED0Ev@Base 0.4.1
 _ZN5boost16exception_detail10clone_implINS0_19error_info_injectorIN3ndn12DigestSha2565ErrorEEEED1Ev@Base 0.4.1
 _ZN5boost16exception_detail10clone_implINS0_19error_info_injectorIN3ndn12RegexMatcher5ErrorEEEED0Ev@Base 0.4.1
 _ZN5boost16exception_detail10clone_implINS0_19error_info_injectorIN3ndn12RegexMatcher5ErrorEEEED1Ev@Base 0.4.1
 _ZN5boost16exception_detail10clone_implINS0_19error_info_injectorIN3ndn13SignatureInfo5ErrorEEEED0Ev@Base 0.4.1
 _ZN5boost16exception_detail10clone_implINS0_19error_info_injectorIN3ndn13SignatureInfo5ErrorEEEED1Ev@Base 0.4.1
 _ZN5boost16exception_detail10clone_implINS0_19error_info_injectorIN3ndn14InterestFilter5ErrorEEEED0Ev@Base 0.4.1
 _ZN5boost16exception_detail10clone_implINS0_19error_info_injectorIN3ndn14InterestFilter5ErrorEEEED1Ev@Base 0.4.1
 _ZN5boost16exception_detail10clone_implINS0_19error_info_injectorIN3ndn15SecRuleRelative5ErrorEEEED0Ev@Base 0.4.1
 _ZN5boost16exception_detail10clone_implINS0_19error_info_injectorIN3ndn15SecRuleRelative5ErrorEEEED1Ev@Base 0.4.1
 _ZN5boost16exception_detail10clone_implINS0_19error_info_injectorIN3ndn17StringHelperErrorEEEED0Ev@Base 0.4.1
 _ZN5boost16exception_detail10clone_implINS0_19error_info_injectorIN3ndn17StringHelperErrorEEEED1Ev@Base 0.4.1
 _ZN5boost16exception_detail10clone_implINS0_19error_info_injectorIN3ndn22SignatureSha256WithRsa5ErrorEEEED0Ev@Base 0.4.1
 _ZN5boost16exception_detail10clone_implINS0_19error_info_injectorIN3ndn22SignatureSha256WithRsa5ErrorEEEED1Ev@Base 0.4.1
 _ZN5boost16exception_detail10clone_implINS0_19error_info_injectorIN3ndn24SignatureSha256WithEcdsa5ErrorEEEED0Ev@Base 0.4.1
 _ZN5boost16exception_detail10clone_implINS0_19error_info_injectorIN3ndn24SignatureSha256WithEcdsa5ErrorEEEED1Ev@Base 0.4.1
 _ZN5boost16exception_detail10clone_implINS0_19error_info_injectorIN3ndn2io5ErrorEEEED0Ev@Base 0.4.1
 _ZN5boost16exception_detail10clone_implINS0_19error_info_injectorIN3ndn2io5ErrorEEEED1Ev@Base 0.4.1
 _ZN5boost16exception_detail10clone_implINS0_19error_info_injectorIN3ndn2lp11CachePolicy5ErrorEEEED0Ev@Base 0.4.1
 _ZN5boost16exception_detail10clone_implINS0_19error_info_injectorIN3ndn2lp11CachePolicy5ErrorEEEED1Ev@Base 0.4.1
 _ZN5boost16exception_detail10clone_implINS0_19error_info_injectorIN3ndn2lp6Packet5ErrorEEEED0Ev@Base 0.4.1
 _ZN5boost16exception_detail10clone_implINS0_19error_info_injectorIN3ndn2lp6Packet5ErrorEEEED1Ev@Base 0.4.1
 _ZN5boost16exception_detail10clone_implINS0_19error_info_injectorIN3ndn3dns5ErrorEEEED0Ev@Base 0.4.1
 _ZN5boost16exception_detail10clone_implINS0_19error_info_injectorIN3ndn3dns5ErrorEEEED1Ev@Base 0.4.1
 _ZN5boost16exception_detail10clone_implINS0_19error_info_injectorIN3ndn3nfd10FaceTraitsINS4_10FaceStatusEE5ErrorEEEED0Ev@Base 0.4.1
 _ZN5boost16exception_detail10clone_implINS0_19error_info_injectorIN3ndn3nfd10FaceTraitsINS4_10FaceStatusEE5ErrorEEEED1Ev@Base 0.4.1
 _ZN5boost16exception_detail10clone_implINS0_19error_info_injectorIN3ndn3nfd10FaceTraitsINS4_21FaceEventNotificationEE5ErrorEEEED0Ev@Base 0.4.1
 _ZN5boost16exception_detail10clone_implINS0_19error_info_injectorIN3ndn3nfd10FaceTraitsINS4_21FaceEventNotificationEE5ErrorEEEED1Ev@Base 0.4.1
 _ZN5boost16exception_detail10clone_implINS0_19error_info_injectorIN3ndn3nfd13ChannelStatus5ErrorEEEED0Ev@Base 0.4.1
 _ZN5boost16exception_detail10clone_implINS0_19error_info_injectorIN3ndn3nfd13ChannelStatus5ErrorEEEED1Ev@Base 0.4.1
 _ZN5boost16exception_detail10clone_implINS0_19error_info_injectorIN3ndn3nfd13NextHopRecord5ErrorEEEED0Ev@Base 0.4.1
 _ZN5boost16exception_detail10clone_implINS0_19error_info_injectorIN3ndn3nfd13NextHopRecord5ErrorEEEED1Ev@Base 0.4.1
 _ZN5boost16exception_detail10clone_implINS0_19error_info_injectorIN3ndn3nfd13StatusDataset16ParseResultErrorEEEED0Ev@Base 0.4.1
 _ZN5boost16exception_detail10clone_implINS0_19error_info_injectorIN3ndn3nfd13StatusDataset16ParseResultErrorEEEED1Ev@Base 0.4.1
 _ZN5boost16exception_detail10clone_implINS0_19error_info_injectorIN3ndn3nfd14ControlCommand13ArgumentErrorEEEED0Ev@Base 0.4.1
 _ZN5boost16exception_detail10clone_implINS0_19error_info_injectorIN3ndn3nfd14ControlCommand13ArgumentErrorEEEED1Ev@Base 0.4.1
 _ZN5boost16exception_detail10clone_implINS0_19error_info_injectorIN3ndn3nfd14StrategyChoice5ErrorEEEED0Ev@Base 0.4.1
 _ZN5boost16exception_detail10clone_implINS0_19error_info_injectorIN3ndn3nfd14StrategyChoice5ErrorEEEED1Ev@Base 0.4.1
 _ZN5boost16exception_detail10clone_implINS0_19error_info_injectorIN3ndn3nfd15FaceQueryFilter5ErrorEEEED0Ev@Base 0.4.1
 _ZN5boost16exception_detail10clone_implINS0_19error_info_injectorIN3ndn3nfd15FaceQueryFilter5ErrorEEEED1Ev@Base 0.4.1
 _ZN5boost16exception_detail10clone_implINS0_19error_info_injectorIN3ndn3nfd15ForwarderStatus5ErrorEEEED0Ev@Base 0.4.1
 _ZN5boost16exception_detail10clone_implINS0_19error_info_injectorIN3ndn3nfd15ForwarderStatus5ErrorEEEED1Ev@Base 0.4.1
 _ZN5boost16exception_detail10clone_implINS0_19error_info_injectorIN3ndn3nfd17ControlParameters5ErrorEEEED0Ev@Base 0.4.1
 _ZN5boost16exception_detail10clone_implINS0_19error_info_injectorIN3ndn3nfd17ControlParameters5ErrorEEEED1Ev@Base 0.4.1
 _ZN5boost16exception_detail10clone_implINS0_19error_info_injectorIN3ndn3nfd5Route5ErrorEEEED0Ev@Base 0.4.1
 _ZN5boost16exception_detail10clone_implINS0_19error_info_injectorIN3ndn3nfd5Route5ErrorEEEED1Ev@Base 0.4.1
 _ZN5boost16exception_detail10clone_implINS0_19error_info_injectorIN3ndn3nfd8FibEntry5ErrorEEEED0Ev@Base 0.4.1
 _ZN5boost16exception_detail10clone_implINS0_19error_info_injectorIN3ndn3nfd8FibEntry5ErrorEEEED1Ev@Base 0.4.1
 _ZN5boost16exception_detail10clone_implINS0_19error_info_injectorIN3ndn3nfd8RibEntry5ErrorEEEED0Ev@Base 0.4.1
 _ZN5boost16exception_detail10clone_implINS0_19error_info_injectorIN3ndn3nfd8RibEntry5ErrorEEEED1Ev@Base 0.4.1
 _ZN5boost16exception_detail10clone_implINS0_19error_info_injectorIN3ndn3tlv5ErrorEEEED0Ev@Base 0.4.1
 _ZN5boost16exception_detail10clone_implINS0_19error_info_injectorIN3ndn3tlv5ErrorEEEED1Ev@Base 0.4.1
 _ZN5boost16exception_detail10clone_implINS0_19error_info_injectorIN3ndn4Data5ErrorEEEED0Ev@Base 0.4.1
 _ZN5boost16exception_detail10clone_implINS0_19error_info_injectorIN3ndn4Data5ErrorEEEED1Ev@Base 0.4.1
 _ZN5boost16exception_detail10clone_implINS0_19error_info_injectorIN3ndn4Face5ErrorEEEED0Ev@Base 0.4.1
 _ZN5boost16exception_detail10clone_implINS0_19error_info_injectorIN3ndn4Face5ErrorEEEED1Ev@Base 0.4.1
 _ZN5boost16exception_detail10clone_implINS0_19error_info_injectorIN3ndn4Link5ErrorEEEED0Ev@Base 0.4.1
 _ZN5boost16exception_detail10clone_implINS0_19error_info_injectorIN3ndn4Link5ErrorEEEED1Ev@Base 0.4.1
 _ZN5boost16exception_detail10clone_implINS0_19error_info_injectorIN3ndn4Name5ErrorEEEED0Ev@Base 0.4.1
 _ZN5boost16exception_detail10clone_implINS0_19error_info_injectorIN3ndn4Name5ErrorEEEED1Ev@Base 0.4.1
 _ZN5boost16exception_detail10clone_implINS0_19error_info_injectorIN3ndn4name9Component5ErrorEEEED0Ev@Base 0.4.1
 _ZN5boost16exception_detail10clone_implINS0_19error_info_injectorIN3ndn4name9Component5ErrorEEEED1Ev@Base 0.4.1
 _ZN5boost16exception_detail10clone_implINS0_19error_info_injectorIN3ndn4util14NetworkMonitor5ErrorEEEED0Ev@Base 0.4.1
 _ZN5boost16exception_detail10clone_implINS0_19error_info_injectorIN3ndn4util14NetworkMonitor5ErrorEEEED1Ev@Base 0.4.1
 _ZN5boost16exception_detail10clone_implINS0_19error_info_injectorIN3ndn4util15InMemoryStorage5ErrorEEEED0Ev@Base 0.4.1
 _ZN5boost16exception_detail10clone_implINS0_19error_info_injectorIN3ndn4util15InMemoryStorage5ErrorEEEED1Ev@Base 0.4.1
 _ZN5boost16exception_detail10clone_implINS0_19error_info_injectorIN3ndn4util6DigestIN8CryptoPP6SHA256EE5ErrorEEEED0Ev@Base 0.4.1
 _ZN5boost16exception_detail10clone_implINS0_19error_info_injectorIN3ndn4util6DigestIN8CryptoPP6SHA256EE5ErrorEEEED1Ev@Base 0.4.1
 _ZN5boost16exception_detail10clone_implINS0_19error_info_injectorIN3ndn4util7FaceUri5ErrorEEEED0Ev@Base 0.4.1
 _ZN5boost16exception_detail10clone_implINS0_19error_info_injectorIN3ndn4util7FaceUri5ErrorEEEED1Ev@Base 0.4.1
 _ZN5boost16exception_detail10clone_implINS0_19error_info_injectorIN3ndn5Block5ErrorEEEED0Ev@Base 0.4.1
 _ZN5boost16exception_detail10clone_implINS0_19error_info_injectorIN3ndn5Block5ErrorEEEED1Ev@Base 0.4.1
 _ZN5boost16exception_detail10clone_implINS0_19error_info_injectorIN3ndn7Exclude5ErrorEEEED0Ev@Base 0.4.1
 _ZN5boost16exception_detail10clone_implINS0_19error_info_injectorIN3ndn7Exclude5ErrorEEEED1Ev@Base 0.4.1
 _ZN5boost16exception_detail10clone_implINS0_19error_info_injectorIN3ndn8Interest5ErrorEEEED0Ev@Base 0.4.1
 _ZN5boost16exception_detail10clone_implINS0_19error_info_injectorIN3ndn8Interest5ErrorEEEED1Ev@Base 0.4.1
 _ZN5boost16exception_detail10clone_implINS0_19error_info_injectorIN3ndn8MetaInfo5ErrorEEEED0Ev@Base 0.4.1
 _ZN5boost16exception_detail10clone_implINS0_19error_info_injectorIN3ndn8MetaInfo5ErrorEEEED1Ev@Base 0.4.1
 _ZN5boost16exception_detail10clone_implINS0_19error_info_injectorIN3ndn8security10SecTpmFile5ErrorEEEED0Ev@Base 0.4.1
 _ZN5boost16exception_detail10clone_implINS0_19error_info_injectorIN3ndn8security10SecTpmFile5ErrorEEEED1Ev@Base 0.4.1
 _ZN5boost16exception_detail10clone_implINS0_19error_info_injectorIN3ndn8security13SecPublicInfo5ErrorEEEED0Ev@Base 0.4.1
 _ZN5boost16exception_detail10clone_implINS0_19error_info_injectorIN3ndn8security13SecPublicInfo5ErrorEEEED1Ev@Base 0.4.1
 _ZN5boost16exception_detail10clone_implINS0_19error_info_injectorIN3ndn8security14ValidityPeriod5ErrorEEEED0Ev@Base 0.4.1
 _ZN5boost16exception_detail10clone_implINS0_19error_info_injectorIN3ndn8security14ValidityPeriod5ErrorEEEED1Ev@Base 0.4.1
 _ZN5boost16exception_detail10clone_implINS0_19error_info_injectorIN3ndn8security15ValidatorConfig5ErrorEEEED0Ev@Base 0.4.1
 _ZN5boost16exception_detail10clone_implINS0_19error_info_injectorIN3ndn8security15ValidatorConfig5ErrorEEEED1Ev@Base 0.4.1
 _ZN5boost16exception_detail10clone_implINS0_19error_info_injectorIN3ndn8security20SecPublicInfoSqlite35ErrorEEEED0Ev@Base 0.4.1
 _ZN5boost16exception_detail10clone_implINS0_19error_info_injectorIN3ndn8security20SecPublicInfoSqlite35ErrorEEEED1Ev@Base 0.4.1
 _ZN5boost16exception_detail10clone_implINS0_19error_info_injectorIN3ndn8security2v111Certificate5ErrorEEEED0Ev@Base 0.4.1
 _ZN5boost16exception_detail10clone_implINS0_19error_info_injectorIN3ndn8security2v111Certificate5ErrorEEEED1Ev@Base 0.4.1
 _ZN5boost16exception_detail10clone_implINS0_19error_info_injectorIN3ndn8security2v119IdentityCertificate5ErrorEEEED0Ev@Base 0.4.1
 _ZN5boost16exception_detail10clone_implINS0_19error_info_injectorIN3ndn8security2v119IdentityCertificate5ErrorEEEED1Ev@Base 0.4.1
 _ZN5boost16exception_detail10clone_implINS0_19error_info_injectorIN3ndn8security2v19PublicKey5ErrorEEEED0Ev@Base 0.4.1
 _ZN5boost16exception_detail10clone_implINS0_19error_info_injectorIN3ndn8security2v19PublicKey5ErrorEEEED1Ev@Base 0.4.1
 _ZN5boost16exception_detail10clone_implINS0_19error_info_injectorIN3ndn8security2v221AdditionalDescription5ErrorEEEED0Ev@Base 0.4.1
 _ZN5boost16exception_detail10clone_implINS0_19error_info_injectorIN3ndn8security2v221AdditionalDescription5ErrorEEEED1Ev@Base 0.4.1
 _ZN5boost16exception_detail10clone_implINS0_19error_info_injectorIN3ndn8security3Pib5ErrorEEEED0Ev@Base 0.4.1
 _ZN5boost16exception_detail10clone_implINS0_19error_info_injectorIN3ndn8security3Pib5ErrorEEEED1Ev@Base 0.4.1
 _ZN5boost16exception_detail10clone_implINS0_19error_info_injectorIN3ndn8security4conf5ErrorEEEED0Ev@Base 0.4.1
 _ZN5boost16exception_detail10clone_implINS0_19error_info_injectorIN3ndn8security4conf5ErrorEEEED1Ev@Base 0.4.1
 _ZN5boost16exception_detail10clone_implINS0_19error_info_injectorIN3ndn8security6SecTpm5ErrorEEEED0Ev@Base 0.4.1
 _ZN5boost16exception_detail10clone_implINS0_19error_info_injectorIN3ndn8security6SecTpm5ErrorEEEED1Ev@Base 0.4.1
 _ZN5boost16exception_detail10clone_implINS0_19error_info_injectorIN3ndn8security7PibImpl5ErrorEEEED0Ev@Base 0.4.1
 _ZN5boost16exception_detail10clone_implINS0_19error_info_injectorIN3ndn8security7PibImpl5ErrorEEEED1Ev@Base 0.4.1
 _ZN5boost16exception_detail10clone_implINS0_19error_info_injectorIN3ndn8security8KeyChain13MismatchErrorEEEED0Ev@Base 0.4.1
 _ZN5boost16exception_detail10clone_implINS0_19error_info_injectorIN3ndn8security8KeyChain13MismatchErrorEEEED1Ev@Base 0.4.1
 _ZN5boost16exception_detail10clone_implINS0_19error_info_injectorIN3ndn8security8KeyChain5ErrorEEEED0Ev@Base 0.4.1
 _ZN5boost16exception_detail10clone_implINS0_19error_info_injectorIN3ndn8security8KeyChain5ErrorEEEED1Ev@Base 0.4.1
 _ZN5boost16exception_detail10clone_implINS0_19error_info_injectorIN3ndn8security9PibMemory5ErrorEEEED0Ev@Base 0.4.1
 _ZN5boost16exception_detail10clone_implINS0_19error_info_injectorIN3ndn8security9PibMemory5ErrorEEEED1Ev@Base 0.4.1
 _ZN5boost16exception_detail10clone_implINS0_19error_info_injectorIN3ndn8security9transform10PrivateKey5ErrorEEEED0Ev@Base 0.4.1
 _ZN5boost16exception_detail10clone_implINS0_19error_info_injectorIN3ndn8security9transform10PrivateKey5ErrorEEEED1Ev@Base 0.4.1
 _ZN5boost16exception_detail10clone_implINS0_19error_info_injectorIN3ndn8security9transform5ErrorEEEED0Ev@Base 0.4.1
 _ZN5boost16exception_detail10clone_implINS0_19error_info_injectorIN3ndn8security9transform5ErrorEEEED1Ev@Base 0.4.1
 _ZN5boost16exception_detail10clone_implINS0_19error_info_injectorIN3ndn8security9transform9PublicKey5ErrorEEEED0Ev@Base 0.4.1
 _ZN5boost16exception_detail10clone_implINS0_19error_info_injectorIN3ndn8security9transform9PublicKey5ErrorEEEED1Ev@Base 0.4.1
 _ZN5boost16exception_detail10clone_implINS0_19error_info_injectorIN3ndn9Signature5ErrorEEEED0Ev@Base 0.4.1
 _ZN5boost16exception_detail10clone_implINS0_19error_info_injectorIN3ndn9Signature5ErrorEEEED1Ev@Base 0.4.1
 _ZN5boost16exception_detail10clone_implINS0_19error_info_injectorIN3ndn9Transport5ErrorEEEED0Ev@Base 0.4.1
 _ZN5boost16exception_detail10clone_implINS0_19error_info_injectorIN3ndn9Transport5ErrorEEEED1Ev@Base 0.4.1
 _ZN5boost16exception_detail10clone_implINS0_19error_info_injectorINS_10lock_errorEEEED0Ev@Base 0.4.1
 _ZN5boost16exception_detail10clone_implINS0_19error_info_injectorINS_10lock_errorEEEED1Ev@Base 0.4.1
 _ZN5boost16exception_detail10clone_implINS0_19error_info_injectorINS_13property_tree10ini_parser16ini_parser_errorEEEED0Ev@Base 0.4.1
 _ZN5boost16exception_detail10clone_implINS0_19error_info_injectorINS_13property_tree10ini_parser16ini_parser_errorEEEED1Ev@Base 0.4.1
 _ZN5boost16exception_detail10clone_implINS0_19error_info_injectorINS_13property_tree11info_parser17info_parser_errorEEEED0Ev@Base 0.4.1
 _ZN5boost16exception_detail10clone_implINS0_19error_info_injectorINS_13property_tree11info_parser17info_parser_errorEEEED1Ev@Base 0.4.1
 _ZN5boost16exception_detail10clone_implINS0_19error_info_injectorINS_15condition_errorEEEED0Ev@Base 0.4.1
 _ZN5boost16exception_detail10clone_implINS0_19error_info_injectorINS_15condition_errorEEEED1Ev@Base 0.4.1
 _ZN5boost16exception_detail10clone_implINS0_19error_info_injectorINS_16bad_lexical_castEEEED0Ev@Base 0.4.1
 _ZN5boost16exception_detail10clone_implINS0_19error_info_injectorINS_16bad_lexical_castEEEED1Ev@Base 0.4.1
 _ZN5boost16exception_detail10clone_implINS0_19error_info_injectorINS_17bad_function_callEEEED0Ev@Base 0.4.1
 _ZN5boost16exception_detail10clone_implINS0_19error_info_injectorINS_17bad_function_callEEEED1Ev@Base 0.4.1
 _ZN5boost16exception_detail10clone_implINS0_19error_info_injectorINS_21thread_resource_errorEEEED0Ev@Base 0.4.1
 _ZN5boost16exception_detail10clone_implINS0_19error_info_injectorINS_21thread_resource_errorEEEED1Ev@Base 0.4.1
 _ZN5boost16exception_detail10clone_implINS0_19error_info_injectorINS_6system12system_errorEEEED0Ev@Base 0.4.1
 _ZN5boost16exception_detail10clone_implINS0_19error_info_injectorINS_6system12system_errorEEEED1Ev@Base 0.4.1
 _ZN5boost16exception_detail10clone_implINS0_19error_info_injectorINS_9gregorian11bad_weekdayEEEED0Ev@Base 0.4.1
 _ZN5boost16exception_detail10clone_implINS0_19error_info_injectorINS_9gregorian11bad_weekdayEEEED1Ev@Base 0.4.1
 _ZN5boost16exception_detail10clone_implINS0_19error_info_injectorINS_9gregorian15bad_day_of_yearEEEED0Ev@Base 0.4.1
 _ZN5boost16exception_detail10clone_implINS0_19error_info_injectorINS_9gregorian15bad_day_of_yearEEEED1Ev@Base 0.4.1
 _ZN5boost16exception_detail10clone_implINS0_19error_info_injectorINS_9gregorian16bad_day_of_monthEEEED0Ev@Base 0.4.1
 _ZN5boost16exception_detail10clone_implINS0_19error_info_injectorINS_9gregorian16bad_day_of_monthEEEED1Ev@Base 0.4.1
 _ZN5boost16exception_detail10clone_implINS0_19error_info_injectorINS_9gregorian8bad_yearEEEED0Ev@Base 0.4.1
 _ZN5boost16exception_detail10clone_implINS0_19error_info_injectorINS_9gregorian8bad_yearEEEED1Ev@Base 0.4.1
 _ZN5boost16exception_detail10clone_implINS0_19error_info_injectorINS_9gregorian9bad_monthEEEED0Ev@Base 0.4.1
 _ZN5boost16exception_detail10clone_implINS0_19error_info_injectorINS_9gregorian9bad_monthEEEED1Ev@Base 0.4.1
 _ZN5boost16exception_detail10clone_implINS0_19error_info_injectorINSt8ios_base7failureB5cxx11EEEED0Ev@Base 0.4.1
 _ZN5boost16exception_detail10clone_implINS0_19error_info_injectorINSt8ios_base7failureB5cxx11EEEED1Ev@Base 0.4.1
 _ZN5boost16exception_detail10clone_implINS0_19error_info_injectorISt11logic_errorEEED0Ev@Base 0.4.1
 _ZN5boost16exception_detail10clone_implINS0_19error_info_injectorISt11logic_errorEEED1Ev@Base 0.4.1
 _ZN5boost16exception_detail10clone_implINS0_19error_info_injectorISt12domain_errorEEED0Ev@Base 0.4.1
 _ZN5boost16exception_detail10clone_implINS0_19error_info_injectorISt12domain_errorEEED1Ev@Base 0.4.1
 _ZN5boost16exception_detail10clone_implINS0_19error_info_injectorISt12length_errorEEED0Ev@Base 0.4.1
 _ZN5boost16exception_detail10clone_implINS0_19error_info_injectorISt12length_errorEEED1Ev@Base 0.4.1
 _ZN5boost16exception_detail10clone_implINS0_19error_info_injectorISt12out_of_rangeEEED0Ev@Base 0.4.1
 _ZN5boost16exception_detail10clone_implINS0_19error_info_injectorISt12out_of_rangeEEED1Ev@Base 0.4.1
 _ZN5boost16exception_detail10clone_implINS0_19error_info_injectorISt13runtime_errorEEED0Ev@Base 0.4.1
 _ZN5boost16exception_detail10clone_implINS0_19error_info_injectorISt13runtime_errorEEED1Ev@Base 0.4.1
 _ZN5boost16exception_detail10clone_implINS0_19error_info_injectorISt16invalid_argumentEEED0Ev@Base 0.4.1
 _ZN5boost16exception_detail10clone_implINS0_19error_info_injectorISt16invalid_argumentEEED1Ev@Base 0.4.1
 _ZN5boost16exception_detail10clone_implINS0_19error_info_injectorISt8bad_castEEED0Ev@Base 0.4.1
 _ZN5boost16exception_detail10clone_implINS0_19error_info_injectorISt8bad_castEEED1Ev@Base 0.4.1
 _ZN5boost16exception_detail16throw_exception_IN3ndn10ConfigFile5ErrorEEEvRKT_PKcS9_i@Base 0.4.1
 _ZN5boost16exception_detail16throw_exception_IN3ndn10KeyLocator5ErrorEEEvRKT_PKcS9_i@Base 0.4.1
 _ZN5boost16exception_detail16throw_exception_IN3ndn12RegexMatcher5ErrorEEEvRKT_PKcS9_i@Base 0.4.1
 _ZN5boost16exception_detail16throw_exception_IN3ndn13SignatureInfo5ErrorEEEvRKT_PKcS9_i@Base 0.4.1
 _ZN5boost16exception_detail16throw_exception_IN3ndn17StringHelperErrorEEEvRKT_PKcS8_i@Base 0.4.1
 _ZN5boost16exception_detail16throw_exception_IN3ndn22SignatureSha256WithRsa5ErrorEEEvRKT_PKcS9_i@Base 0.4.1
 _ZN5boost16exception_detail16throw_exception_IN3ndn24SignatureSha256WithEcdsa5ErrorEEEvRKT_PKcS9_i@Base 0.4.1
 _ZN5boost16exception_detail16throw_exception_IN3ndn2io5ErrorEEEvRKT_PKcS9_i@Base 0.4.1
 _ZN5boost16exception_detail16throw_exception_IN3ndn2lp11CachePolicy5ErrorEEEvRKT_PKcSA_i@Base 0.4.1
 _ZN5boost16exception_detail16throw_exception_IN3ndn2lp6Packet5ErrorEEEvRKT_PKcSA_i@Base 0.4.1
 _ZN5boost16exception_detail16throw_exception_IN3ndn3nfd10FaceTraitsINS3_10FaceStatusEE5ErrorEEEvRKT_PKcSC_i@Base 0.4.1
 _ZN5boost16exception_detail16throw_exception_IN3ndn3nfd10FaceTraitsINS3_21FaceEventNotificationEE5ErrorEEEvRKT_PKcSC_i@Base 0.4.1
 _ZN5boost16exception_detail16throw_exception_IN3ndn3nfd13ChannelStatus5ErrorEEEvRKT_PKcSA_i@Base 0.4.1
 _ZN5boost16exception_detail16throw_exception_IN3ndn3nfd13NextHopRecord5ErrorEEEvRKT_PKcSA_i@Base 0.4.1
 _ZN5boost16exception_detail16throw_exception_IN3ndn3nfd13StatusDataset16ParseResultErrorEEEvRKT_PKcSA_i@Base 0.4.1
 _ZN5boost16exception_detail16throw_exception_IN3ndn3nfd14ControlCommand13ArgumentErrorEEEvRKT_PKcSA_i@Base 0.4.1
 _ZN5boost16exception_detail16throw_exception_IN3ndn3nfd14StrategyChoice5ErrorEEEvRKT_PKcSA_i@Base 0.4.1
 _ZN5boost16exception_detail16throw_exception_IN3ndn3nfd15ForwarderStatus5ErrorEEEvRKT_PKcSA_i@Base 0.4.1
 _ZN5boost16exception_detail16throw_exception_IN3ndn3nfd17ControlParameters5ErrorEEEvRKT_PKcSA_i@Base 0.4.1
 _ZN5boost16exception_detail16throw_exception_IN3ndn3nfd5Route5ErrorEEEvRKT_PKcSA_i@Base 0.4.1
 _ZN5boost16exception_detail16throw_exception_IN3ndn3nfd8FibEntry5ErrorEEEvRKT_PKcSA_i@Base 0.4.1
 _ZN5boost16exception_detail16throw_exception_IN3ndn3nfd8RibEntry5ErrorEEEvRKT_PKcSA_i@Base 0.4.1
 _ZN5boost16exception_detail16throw_exception_IN3ndn3tlv5ErrorEEEvRKT_PKcS9_i@Base 0.4.1
 _ZN5boost16exception_detail16throw_exception_IN3ndn4Data5ErrorEEEvRKT_PKcS9_i@Base 0.4.1
 _ZN5boost16exception_detail16throw_exception_IN3ndn4Face5ErrorEEEvRKT_PKcS9_i@Base 0.4.1
 _ZN5boost16exception_detail16throw_exception_IN3ndn4Link5ErrorEEEvRKT_PKcS9_i@Base 0.4.1
 _ZN5boost16exception_detail16throw_exception_IN3ndn4Name5ErrorEEEvRKT_PKcS9_i@Base 0.4.1
 _ZN5boost16exception_detail16throw_exception_IN3ndn4name9Component5ErrorEEEvRKT_PKcSA_i@Base 0.4.1
 _ZN5boost16exception_detail16throw_exception_IN3ndn4util14NetworkMonitor5ErrorEEEvRKT_PKcSA_i@Base 0.4.1
 _ZN5boost16exception_detail16throw_exception_IN3ndn4util7FaceUri5ErrorEEEvRKT_PKcSA_i@Base 0.4.1
 _ZN5boost16exception_detail16throw_exception_IN3ndn5Block5ErrorEEEvRKT_PKcS9_i@Base 0.4.1
 _ZN5boost16exception_detail16throw_exception_IN3ndn7Exclude5ErrorEEEvRKT_PKcS9_i@Base 0.4.1
 _ZN5boost16exception_detail16throw_exception_IN3ndn8Interest5ErrorEEEvRKT_PKcS9_i@Base 0.4.1
 _ZN5boost16exception_detail16throw_exception_IN3ndn8MetaInfo5ErrorEEEvRKT_PKcS9_i@Base 0.4.1
 _ZN5boost16exception_detail16throw_exception_IN3ndn8security10SecTpmFile5ErrorEEEvRKT_PKcSA_i@Base 0.4.1
 _ZN5boost16exception_detail16throw_exception_IN3ndn8security13SecPublicInfo5ErrorEEEvRKT_PKcSA_i@Base 0.4.1
 _ZN5boost16exception_detail16throw_exception_IN3ndn8security14ValidityPeriod5ErrorEEEvRKT_PKcSA_i@Base 0.4.1
 _ZN5boost16exception_detail16throw_exception_IN3ndn8security15ValidatorConfig5ErrorEEEvRKT_PKcSA_i@Base 0.4.1
 _ZN5boost16exception_detail16throw_exception_IN3ndn8security20SecPublicInfoSqlite35ErrorEEEvRKT_PKcSA_i@Base 0.4.1
 _ZN5boost16exception_detail16throw_exception_IN3ndn8security2v119IdentityCertificate5ErrorEEEvRKT_PKcSB_i@Base 0.4.1
 _ZN5boost16exception_detail16throw_exception_IN3ndn8security2v19PublicKey5ErrorEEEvRKT_PKcSB_i@Base 0.4.1
 _ZN5boost16exception_detail16throw_exception_IN3ndn8security2v221AdditionalDescription5ErrorEEEvRKT_PKcSB_i@Base 0.4.1
 _ZN5boost16exception_detail16throw_exception_IN3ndn8security3Pib5ErrorEEEvRKT_PKcSA_i@Base 0.4.1
 _ZN5boost16exception_detail16throw_exception_IN3ndn8security4conf5ErrorEEEvRKT_PKcSA_i@Base 0.4.1
 _ZN5boost16exception_detail16throw_exception_IN3ndn8security6SecTpm5ErrorEEEvRKT_PKcSA_i@Base 0.4.1
 _ZN5boost16exception_detail16throw_exception_IN3ndn8security7PibImpl5ErrorEEEvRKT_PKcSA_i@Base 0.4.1
 _ZN5boost16exception_detail16throw_exception_IN3ndn8security8KeyChain5ErrorEEEvRKT_PKcSA_i@Base 0.4.1
 _ZN5boost16exception_detail16throw_exception_IN3ndn8security9transform10PrivateKey5ErrorEEEvRKT_PKcSB_i@Base 0.4.1
 _ZN5boost16exception_detail16throw_exception_IN3ndn8security9transform5ErrorEEEvRKT_PKcSA_i@Base 0.4.1
 _ZN5boost16exception_detail16throw_exception_IN3ndn8security9transform9PublicKey5ErrorEEEvRKT_PKcSB_i@Base 0.4.1
 _ZN5boost16exception_detail16throw_exception_IN3ndn9Transport5ErrorEEEvRKT_PKcS9_i@Base 0.4.1
 _ZN5boost16exception_detail16throw_exception_INS_13property_tree10ini_parser16ini_parser_errorEEEvRKT_PKcS9_i@Base 0.4.1
 _ZN5boost16exception_detail16throw_exception_INS_13property_tree11info_parser17info_parser_errorEEEvRKT_PKcS9_i@Base 0.4.1
 _ZN5boost16exception_detail16throw_exception_ISt12domain_errorEEvRKT_PKcS7_i@Base 0.4.1
 _ZN5boost16exception_detail16throw_exception_ISt12length_errorEEvRKT_PKcS7_i@Base 0.4.1
 _ZN5boost16exception_detail16throw_exception_ISt12out_of_rangeEEvRKT_PKcS7_i@Base 0.4.1
 _ZN5boost16exception_detail16throw_exception_ISt16invalid_argumentEEvRKT_PKcS7_i@Base 0.4.1
 _ZN5boost16exception_detail19error_info_injectorIN3ndn10ConfigFile5ErrorEEC1ERKS5_@Base 0.4.1
 _ZN5boost16exception_detail19error_info_injectorIN3ndn10ConfigFile5ErrorEEC2ERKS5_@Base 0.4.1
 _ZN5boost16exception_detail19error_info_injectorIN3ndn10ConfigFile5ErrorEED0Ev@Base 0.4.1
 _ZN5boost16exception_detail19error_info_injectorIN3ndn10ConfigFile5ErrorEED1Ev@Base 0.4.1
 _ZN5boost16exception_detail19error_info_injectorIN3ndn10ConfigFile5ErrorEED2Ev@Base 0.4.1
 _ZN5boost16exception_detail19error_info_injectorIN3ndn10KeyLocator5ErrorEEC1ERKS5_@Base 0.4.1
 _ZN5boost16exception_detail19error_info_injectorIN3ndn10KeyLocator5ErrorEEC2ERKS5_@Base 0.4.1
 _ZN5boost16exception_detail19error_info_injectorIN3ndn10KeyLocator5ErrorEED0Ev@Base 0.4.1
 _ZN5boost16exception_detail19error_info_injectorIN3ndn10KeyLocator5ErrorEED1Ev@Base 0.4.1
 _ZN5boost16exception_detail19error_info_injectorIN3ndn10KeyLocator5ErrorEED2Ev@Base 0.4.1
 _ZN5boost16exception_detail19error_info_injectorIN3ndn12DigestSha2565ErrorEEC1ERKS5_@Base 0.4.1
 _ZN5boost16exception_detail19error_info_injectorIN3ndn12DigestSha2565ErrorEEC2ERKS5_@Base 0.4.1
 _ZN5boost16exception_detail19error_info_injectorIN3ndn12DigestSha2565ErrorEED0Ev@Base 0.4.1
 _ZN5boost16exception_detail19error_info_injectorIN3ndn12DigestSha2565ErrorEED1Ev@Base 0.4.1
 _ZN5boost16exception_detail19error_info_injectorIN3ndn12DigestSha2565ErrorEED2Ev@Base 0.4.1
 _ZN5boost16exception_detail19error_info_injectorIN3ndn12RegexMatcher5ErrorEEC1ERKS5_@Base 0.4.1
 _ZN5boost16exception_detail19error_info_injectorIN3ndn12RegexMatcher5ErrorEEC2ERKS5_@Base 0.4.1
 _ZN5boost16exception_detail19error_info_injectorIN3ndn12RegexMatcher5ErrorEED0Ev@Base 0.4.1
 _ZN5boost16exception_detail19error_info_injectorIN3ndn12RegexMatcher5ErrorEED1Ev@Base 0.4.1
 _ZN5boost16exception_detail19error_info_injectorIN3ndn12RegexMatcher5ErrorEED2Ev@Base 0.4.1
 _ZN5boost16exception_detail19error_info_injectorIN3ndn13SignatureInfo5ErrorEEC1ERKS5_@Base 0.4.1
 _ZN5boost16exception_detail19error_info_injectorIN3ndn13SignatureInfo5ErrorEEC2ERKS5_@Base 0.4.1
 _ZN5boost16exception_detail19error_info_injectorIN3ndn13SignatureInfo5ErrorEED0Ev@Base 0.4.1
 _ZN5boost16exception_detail19error_info_injectorIN3ndn13SignatureInfo5ErrorEED1Ev@Base 0.4.1
 _ZN5boost16exception_detail19error_info_injectorIN3ndn13SignatureInfo5ErrorEED2Ev@Base 0.4.1
 _ZN5boost16exception_detail19error_info_injectorIN3ndn14InterestFilter5ErrorEEC1ERKS5_@Base 0.4.1
 _ZN5boost16exception_detail19error_info_injectorIN3ndn14InterestFilter5ErrorEEC2ERKS5_@Base 0.4.1
 _ZN5boost16exception_detail19error_info_injectorIN3ndn14InterestFilter5ErrorEED0Ev@Base 0.4.1
 _ZN5boost16exception_detail19error_info_injectorIN3ndn14InterestFilter5ErrorEED1Ev@Base 0.4.1
 _ZN5boost16exception_detail19error_info_injectorIN3ndn14InterestFilter5ErrorEED2Ev@Base 0.4.1
 _ZN5boost16exception_detail19error_info_injectorIN3ndn15SecRuleRelative5ErrorEEC1ERKS5_@Base 0.4.1
 _ZN5boost16exception_detail19error_info_injectorIN3ndn15SecRuleRelative5ErrorEEC2ERKS5_@Base 0.4.1
 _ZN5boost16exception_detail19error_info_injectorIN3ndn15SecRuleRelative5ErrorEED0Ev@Base 0.4.1
 _ZN5boost16exception_detail19error_info_injectorIN3ndn15SecRuleRelative5ErrorEED1Ev@Base 0.4.1
 _ZN5boost16exception_detail19error_info_injectorIN3ndn15SecRuleRelative5ErrorEED2Ev@Base 0.4.1
 _ZN5boost16exception_detail19error_info_injectorIN3ndn17StringHelperErrorEEC1ERKS4_@Base 0.4.1
 _ZN5boost16exception_detail19error_info_injectorIN3ndn17StringHelperErrorEEC2ERKS4_@Base 0.4.1
 _ZN5boost16exception_detail19error_info_injectorIN3ndn17StringHelperErrorEED0Ev@Base 0.4.1
 _ZN5boost16exception_detail19error_info_injectorIN3ndn17StringHelperErrorEED1Ev@Base 0.4.1
 _ZN5boost16exception_detail19error_info_injectorIN3ndn17StringHelperErrorEED2Ev@Base 0.4.1
 _ZN5boost16exception_detail19error_info_injectorIN3ndn22SignatureSha256WithRsa5ErrorEEC1ERKS5_@Base 0.4.1
 _ZN5boost16exception_detail19error_info_injectorIN3ndn22SignatureSha256WithRsa5ErrorEEC2ERKS5_@Base 0.4.1
 _ZN5boost16exception_detail19error_info_injectorIN3ndn22SignatureSha256WithRsa5ErrorEED0Ev@Base 0.4.1
 _ZN5boost16exception_detail19error_info_injectorIN3ndn22SignatureSha256WithRsa5ErrorEED1Ev@Base 0.4.1
 _ZN5boost16exception_detail19error_info_injectorIN3ndn22SignatureSha256WithRsa5ErrorEED2Ev@Base 0.4.1
 _ZN5boost16exception_detail19error_info_injectorIN3ndn24SignatureSha256WithEcdsa5ErrorEEC1ERKS5_@Base 0.4.1
 _ZN5boost16exception_detail19error_info_injectorIN3ndn24SignatureSha256WithEcdsa5ErrorEEC2ERKS5_@Base 0.4.1
 _ZN5boost16exception_detail19error_info_injectorIN3ndn24SignatureSha256WithEcdsa5ErrorEED0Ev@Base 0.4.1
 _ZN5boost16exception_detail19error_info_injectorIN3ndn24SignatureSha256WithEcdsa5ErrorEED1Ev@Base 0.4.1
 _ZN5boost16exception_detail19error_info_injectorIN3ndn24SignatureSha256WithEcdsa5ErrorEED2Ev@Base 0.4.1
 _ZN5boost16exception_detail19error_info_injectorIN3ndn2io5ErrorEEC1ERKS5_@Base 0.4.1
 _ZN5boost16exception_detail19error_info_injectorIN3ndn2io5ErrorEEC2ERKS5_@Base 0.4.1
 _ZN5boost16exception_detail19error_info_injectorIN3ndn2io5ErrorEED0Ev@Base 0.4.1
 _ZN5boost16exception_detail19error_info_injectorIN3ndn2io5ErrorEED1Ev@Base 0.4.1
 _ZN5boost16exception_detail19error_info_injectorIN3ndn2io5ErrorEED2Ev@Base 0.4.1
 _ZN5boost16exception_detail19error_info_injectorIN3ndn2lp11CachePolicy5ErrorEEC1ERKS6_@Base 0.4.1
 _ZN5boost16exception_detail19error_info_injectorIN3ndn2lp11CachePolicy5ErrorEEC2ERKS6_@Base 0.4.1
 _ZN5boost16exception_detail19error_info_injectorIN3ndn2lp11CachePolicy5ErrorEED0Ev@Base 0.4.1
 _ZN5boost16exception_detail19error_info_injectorIN3ndn2lp11CachePolicy5ErrorEED1Ev@Base 0.4.1
 _ZN5boost16exception_detail19error_info_injectorIN3ndn2lp11CachePolicy5ErrorEED2Ev@Base 0.4.1
 _ZN5boost16exception_detail19error_info_injectorIN3ndn2lp6Packet5ErrorEEC1ERKS6_@Base 0.4.1
 _ZN5boost16exception_detail19error_info_injectorIN3ndn2lp6Packet5ErrorEEC2ERKS6_@Base 0.4.1
 _ZN5boost16exception_detail19error_info_injectorIN3ndn2lp6Packet5ErrorEED0Ev@Base 0.4.1
 _ZN5boost16exception_detail19error_info_injectorIN3ndn2lp6Packet5ErrorEED1Ev@Base 0.4.1
 _ZN5boost16exception_detail19error_info_injectorIN3ndn2lp6Packet5ErrorEED2Ev@Base 0.4.1
 _ZN5boost16exception_detail19error_info_injectorIN3ndn3dns5ErrorEEC1ERKS5_@Base 0.4.1
 _ZN5boost16exception_detail19error_info_injectorIN3ndn3dns5ErrorEEC2ERKS5_@Base 0.4.1
 _ZN5boost16exception_detail19error_info_injectorIN3ndn3dns5ErrorEED0Ev@Base 0.4.1
 _ZN5boost16exception_detail19error_info_injectorIN3ndn3dns5ErrorEED1Ev@Base 0.4.1
 _ZN5boost16exception_detail19error_info_injectorIN3ndn3dns5ErrorEED2Ev@Base 0.4.1
 _ZN5boost16exception_detail19error_info_injectorIN3ndn3nfd10FaceTraitsINS3_10FaceStatusEE5ErrorEEC1ERKS8_@Base 0.4.1
 _ZN5boost16exception_detail19error_info_injectorIN3ndn3nfd10FaceTraitsINS3_10FaceStatusEE5ErrorEEC2ERKS8_@Base 0.4.1
 _ZN5boost16exception_detail19error_info_injectorIN3ndn3nfd10FaceTraitsINS3_10FaceStatusEE5ErrorEED0Ev@Base 0.4.1
 _ZN5boost16exception_detail19error_info_injectorIN3ndn3nfd10FaceTraitsINS3_10FaceStatusEE5ErrorEED1Ev@Base 0.4.1
 _ZN5boost16exception_detail19error_info_injectorIN3ndn3nfd10FaceTraitsINS3_10FaceStatusEE5ErrorEED2Ev@Base 0.4.1
 _ZN5boost16exception_detail19error_info_injectorIN3ndn3nfd10FaceTraitsINS3_21FaceEventNotificationEE5ErrorEEC1ERKS8_@Base 0.4.1
 _ZN5boost16exception_detail19error_info_injectorIN3ndn3nfd10FaceTraitsINS3_21FaceEventNotificationEE5ErrorEEC2ERKS8_@Base 0.4.1
 _ZN5boost16exception_detail19error_info_injectorIN3ndn3nfd10FaceTraitsINS3_21FaceEventNotificationEE5ErrorEED0Ev@Base 0.4.1
 _ZN5boost16exception_detail19error_info_injectorIN3ndn3nfd10FaceTraitsINS3_21FaceEventNotificationEE5ErrorEED1Ev@Base 0.4.1
 _ZN5boost16exception_detail19error_info_injectorIN3ndn3nfd10FaceTraitsINS3_21FaceEventNotificationEE5ErrorEED2Ev@Base 0.4.1
 _ZN5boost16exception_detail19error_info_injectorIN3ndn3nfd13ChannelStatus5ErrorEEC1ERKS6_@Base 0.4.1
 _ZN5boost16exception_detail19error_info_injectorIN3ndn3nfd13ChannelStatus5ErrorEEC2ERKS6_@Base 0.4.1
 _ZN5boost16exception_detail19error_info_injectorIN3ndn3nfd13ChannelStatus5ErrorEED0Ev@Base 0.4.1
 _ZN5boost16exception_detail19error_info_injectorIN3ndn3nfd13ChannelStatus5ErrorEED1Ev@Base 0.4.1
 _ZN5boost16exception_detail19error_info_injectorIN3ndn3nfd13ChannelStatus5ErrorEED2Ev@Base 0.4.1
 _ZN5boost16exception_detail19error_info_injectorIN3ndn3nfd13NextHopRecord5ErrorEEC1ERKS6_@Base 0.4.1
 _ZN5boost16exception_detail19error_info_injectorIN3ndn3nfd13NextHopRecord5ErrorEEC2ERKS6_@Base 0.4.1
 _ZN5boost16exception_detail19error_info_injectorIN3ndn3nfd13NextHopRecord5ErrorEED0Ev@Base 0.4.1
 _ZN5boost16exception_detail19error_info_injectorIN3ndn3nfd13NextHopRecord5ErrorEED1Ev@Base 0.4.1
 _ZN5boost16exception_detail19error_info_injectorIN3ndn3nfd13NextHopRecord5ErrorEED2Ev@Base 0.4.1
 _ZN5boost16exception_detail19error_info_injectorIN3ndn3nfd13StatusDataset16ParseResultErrorEEC1ERKS6_@Base 0.4.1
 _ZN5boost16exception_detail19error_info_injectorIN3ndn3nfd13StatusDataset16ParseResultErrorEEC2ERKS6_@Base 0.4.1
 _ZN5boost16exception_detail19error_info_injectorIN3ndn3nfd13StatusDataset16ParseResultErrorEED0Ev@Base 0.4.1
 _ZN5boost16exception_detail19error_info_injectorIN3ndn3nfd13StatusDataset16ParseResultErrorEED1Ev@Base 0.4.1
 _ZN5boost16exception_detail19error_info_injectorIN3ndn3nfd13StatusDataset16ParseResultErrorEED2Ev@Base 0.4.1
 _ZN5boost16exception_detail19error_info_injectorIN3ndn3nfd14ControlCommand13ArgumentErrorEEC1ERKS6_@Base 0.4.1
 _ZN5boost16exception_detail19error_info_injectorIN3ndn3nfd14ControlCommand13ArgumentErrorEEC2ERKS6_@Base 0.4.1
 _ZN5boost16exception_detail19error_info_injectorIN3ndn3nfd14ControlCommand13ArgumentErrorEED0Ev@Base 0.4.1
 _ZN5boost16exception_detail19error_info_injectorIN3ndn3nfd14ControlCommand13ArgumentErrorEED1Ev@Base 0.4.1
 _ZN5boost16exception_detail19error_info_injectorIN3ndn3nfd14ControlCommand13ArgumentErrorEED2Ev@Base 0.4.1
 _ZN5boost16exception_detail19error_info_injectorIN3ndn3nfd14StrategyChoice5ErrorEEC1ERKS6_@Base 0.4.1
 _ZN5boost16exception_detail19error_info_injectorIN3ndn3nfd14StrategyChoice5ErrorEEC2ERKS6_@Base 0.4.1
 _ZN5boost16exception_detail19error_info_injectorIN3ndn3nfd14StrategyChoice5ErrorEED0Ev@Base 0.4.1
 _ZN5boost16exception_detail19error_info_injectorIN3ndn3nfd14StrategyChoice5ErrorEED1Ev@Base 0.4.1
 _ZN5boost16exception_detail19error_info_injectorIN3ndn3nfd14StrategyChoice5ErrorEED2Ev@Base 0.4.1
 _ZN5boost16exception_detail19error_info_injectorIN3ndn3nfd15FaceQueryFilter5ErrorEEC1ERKS6_@Base 0.4.1
 _ZN5boost16exception_detail19error_info_injectorIN3ndn3nfd15FaceQueryFilter5ErrorEEC2ERKS6_@Base 0.4.1
 _ZN5boost16exception_detail19error_info_injectorIN3ndn3nfd15FaceQueryFilter5ErrorEED0Ev@Base 0.4.1
 _ZN5boost16exception_detail19error_info_injectorIN3ndn3nfd15FaceQueryFilter5ErrorEED1Ev@Base 0.4.1
 _ZN5boost16exception_detail19error_info_injectorIN3ndn3nfd15FaceQueryFilter5ErrorEED2Ev@Base 0.4.1
 _ZN5boost16exception_detail19error_info_injectorIN3ndn3nfd15ForwarderStatus5ErrorEEC1ERKS6_@Base 0.4.1
 _ZN5boost16exception_detail19error_info_injectorIN3ndn3nfd15ForwarderStatus5ErrorEEC2ERKS6_@Base 0.4.1
 _ZN5boost16exception_detail19error_info_injectorIN3ndn3nfd15ForwarderStatus5ErrorEED0Ev@Base 0.4.1
 _ZN5boost16exception_detail19error_info_injectorIN3ndn3nfd15ForwarderStatus5ErrorEED1Ev@Base 0.4.1
 _ZN5boost16exception_detail19error_info_injectorIN3ndn3nfd15ForwarderStatus5ErrorEED2Ev@Base 0.4.1
 _ZN5boost16exception_detail19error_info_injectorIN3ndn3nfd17ControlParameters5ErrorEEC1ERKS6_@Base 0.4.1
 _ZN5boost16exception_detail19error_info_injectorIN3ndn3nfd17ControlParameters5ErrorEEC2ERKS6_@Base 0.4.1
 _ZN5boost16exception_detail19error_info_injectorIN3ndn3nfd17ControlParameters5ErrorEED0Ev@Base 0.4.1
 _ZN5boost16exception_detail19error_info_injectorIN3ndn3nfd17ControlParameters5ErrorEED1Ev@Base 0.4.1
 _ZN5boost16exception_detail19error_info_injectorIN3ndn3nfd17ControlParameters5ErrorEED2Ev@Base 0.4.1
 _ZN5boost16exception_detail19error_info_injectorIN3ndn3nfd5Route5ErrorEEC1ERKS6_@Base 0.4.1
 _ZN5boost16exception_detail19error_info_injectorIN3ndn3nfd5Route5ErrorEEC2ERKS6_@Base 0.4.1
 _ZN5boost16exception_detail19error_info_injectorIN3ndn3nfd5Route5ErrorEED0Ev@Base 0.4.1
 _ZN5boost16exception_detail19error_info_injectorIN3ndn3nfd5Route5ErrorEED1Ev@Base 0.4.1
 _ZN5boost16exception_detail19error_info_injectorIN3ndn3nfd5Route5ErrorEED2Ev@Base 0.4.1
 _ZN5boost16exception_detail19error_info_injectorIN3ndn3nfd8FibEntry5ErrorEEC1ERKS6_@Base 0.4.1
 _ZN5boost16exception_detail19error_info_injectorIN3ndn3nfd8FibEntry5ErrorEEC2ERKS6_@Base 0.4.1
 _ZN5boost16exception_detail19error_info_injectorIN3ndn3nfd8FibEntry5ErrorEED0Ev@Base 0.4.1
 _ZN5boost16exception_detail19error_info_injectorIN3ndn3nfd8FibEntry5ErrorEED1Ev@Base 0.4.1
 _ZN5boost16exception_detail19error_info_injectorIN3ndn3nfd8FibEntry5ErrorEED2Ev@Base 0.4.1
 _ZN5boost16exception_detail19error_info_injectorIN3ndn3nfd8RibEntry5ErrorEEC1ERKS6_@Base 0.4.1
 _ZN5boost16exception_detail19error_info_injectorIN3ndn3nfd8RibEntry5ErrorEEC2ERKS6_@Base 0.4.1
 _ZN5boost16exception_detail19error_info_injectorIN3ndn3nfd8RibEntry5ErrorEED0Ev@Base 0.4.1
 _ZN5boost16exception_detail19error_info_injectorIN3ndn3nfd8RibEntry5ErrorEED1Ev@Base 0.4.1
 _ZN5boost16exception_detail19error_info_injectorIN3ndn3nfd8RibEntry5ErrorEED2Ev@Base 0.4.1
 _ZN5boost16exception_detail19error_info_injectorIN3ndn3tlv5ErrorEEC1ERKS5_@Base 0.4.1
 _ZN5boost16exception_detail19error_info_injectorIN3ndn3tlv5ErrorEEC2ERKS5_@Base 0.4.1
 _ZN5boost16exception_detail19error_info_injectorIN3ndn3tlv5ErrorEED0Ev@Base 0.4.1
 _ZN5boost16exception_detail19error_info_injectorIN3ndn3tlv5ErrorEED1Ev@Base 0.4.1
 _ZN5boost16exception_detail19error_info_injectorIN3ndn3tlv5ErrorEED2Ev@Base 0.4.1
 _ZN5boost16exception_detail19error_info_injectorIN3ndn4Data5ErrorEEC1ERKS5_@Base 0.4.1
 _ZN5boost16exception_detail19error_info_injectorIN3ndn4Data5ErrorEEC2ERKS5_@Base 0.4.1
 _ZN5boost16exception_detail19error_info_injectorIN3ndn4Data5ErrorEED0Ev@Base 0.4.1
 _ZN5boost16exception_detail19error_info_injectorIN3ndn4Data5ErrorEED1Ev@Base 0.4.1
 _ZN5boost16exception_detail19error_info_injectorIN3ndn4Data5ErrorEED2Ev@Base 0.4.1
 _ZN5boost16exception_detail19error_info_injectorIN3ndn4Face5ErrorEEC1ERKS5_@Base 0.4.1
 _ZN5boost16exception_detail19error_info_injectorIN3ndn4Face5ErrorEEC2ERKS5_@Base 0.4.1
 _ZN5boost16exception_detail19error_info_injectorIN3ndn4Face5ErrorEED0Ev@Base 0.4.1
 _ZN5boost16exception_detail19error_info_injectorIN3ndn4Face5ErrorEED1Ev@Base 0.4.1
 _ZN5boost16exception_detail19error_info_injectorIN3ndn4Face5ErrorEED2Ev@Base 0.4.1
 _ZN5boost16exception_detail19error_info_injectorIN3ndn4Link5ErrorEEC1ERKS5_@Base 0.4.1
 _ZN5boost16exception_detail19error_info_injectorIN3ndn4Link5ErrorEEC2ERKS5_@Base 0.4.1
 _ZN5boost16exception_detail19error_info_injectorIN3ndn4Link5ErrorEED0Ev@Base 0.4.1
 _ZN5boost16exception_detail19error_info_injectorIN3ndn4Link5ErrorEED1Ev@Base 0.4.1
 _ZN5boost16exception_detail19error_info_injectorIN3ndn4Link5ErrorEED2Ev@Base 0.4.1
 _ZN5boost16exception_detail19error_info_injectorIN3ndn4Name5ErrorEEC1ERKS5_@Base 0.4.1
 _ZN5boost16exception_detail19error_info_injectorIN3ndn4Name5ErrorEEC2ERKS5_@Base 0.4.1
 _ZN5boost16exception_detail19error_info_injectorIN3ndn4Name5ErrorEED0Ev@Base 0.4.1
 _ZN5boost16exception_detail19error_info_injectorIN3ndn4Name5ErrorEED1Ev@Base 0.4.1
 _ZN5boost16exception_detail19error_info_injectorIN3ndn4Name5ErrorEED2Ev@Base 0.4.1
 _ZN5boost16exception_detail19error_info_injectorIN3ndn4name9Component5ErrorEEC1ERKS6_@Base 0.4.1
 _ZN5boost16exception_detail19error_info_injectorIN3ndn4name9Component5ErrorEEC2ERKS6_@Base 0.4.1
 _ZN5boost16exception_detail19error_info_injectorIN3ndn4name9Component5ErrorEED0Ev@Base 0.4.1
 _ZN5boost16exception_detail19error_info_injectorIN3ndn4name9Component5ErrorEED1Ev@Base 0.4.1
 _ZN5boost16exception_detail19error_info_injectorIN3ndn4name9Component5ErrorEED2Ev@Base 0.4.1
 _ZN5boost16exception_detail19error_info_injectorIN3ndn4util14NetworkMonitor5ErrorEEC1ERKS6_@Base 0.4.1
 _ZN5boost16exception_detail19error_info_injectorIN3ndn4util14NetworkMonitor5ErrorEEC2ERKS6_@Base 0.4.1
 _ZN5boost16exception_detail19error_info_injectorIN3ndn4util14NetworkMonitor5ErrorEED0Ev@Base 0.4.1
 _ZN5boost16exception_detail19error_info_injectorIN3ndn4util14NetworkMonitor5ErrorEED1Ev@Base 0.4.1
 _ZN5boost16exception_detail19error_info_injectorIN3ndn4util14NetworkMonitor5ErrorEED2Ev@Base 0.4.1
 _ZN5boost16exception_detail19error_info_injectorIN3ndn4util15InMemoryStorage5ErrorEEC1ERKS6_@Base 0.4.1
 _ZN5boost16exception_detail19error_info_injectorIN3ndn4util15InMemoryStorage5ErrorEEC2ERKS6_@Base 0.4.1
 _ZN5boost16exception_detail19error_info_injectorIN3ndn4util15InMemoryStorage5ErrorEED0Ev@Base 0.4.1
 _ZN5boost16exception_detail19error_info_injectorIN3ndn4util15InMemoryStorage5ErrorEED1Ev@Base 0.4.1
 _ZN5boost16exception_detail19error_info_injectorIN3ndn4util15InMemoryStorage5ErrorEED2Ev@Base 0.4.1
 _ZN5boost16exception_detail19error_info_injectorIN3ndn4util6DigestIN8CryptoPP6SHA256EE5ErrorEEC1ERKS9_@Base 0.4.1
 _ZN5boost16exception_detail19error_info_injectorIN3ndn4util6DigestIN8CryptoPP6SHA256EE5ErrorEEC2ERKS9_@Base 0.4.1
 _ZN5boost16exception_detail19error_info_injectorIN3ndn4util6DigestIN8CryptoPP6SHA256EE5ErrorEED0Ev@Base 0.4.1
 _ZN5boost16exception_detail19error_info_injectorIN3ndn4util6DigestIN8CryptoPP6SHA256EE5ErrorEED1Ev@Base 0.4.1
 _ZN5boost16exception_detail19error_info_injectorIN3ndn4util6DigestIN8CryptoPP6SHA256EE5ErrorEED2Ev@Base 0.4.1
 _ZN5boost16exception_detail19error_info_injectorIN3ndn4util7FaceUri5ErrorEEC1ERKS6_@Base 0.4.1
 _ZN5boost16exception_detail19error_info_injectorIN3ndn4util7FaceUri5ErrorEEC2ERKS6_@Base 0.4.1
 _ZN5boost16exception_detail19error_info_injectorIN3ndn4util7FaceUri5ErrorEED0Ev@Base 0.4.1
 _ZN5boost16exception_detail19error_info_injectorIN3ndn4util7FaceUri5ErrorEED1Ev@Base 0.4.1
 _ZN5boost16exception_detail19error_info_injectorIN3ndn4util7FaceUri5ErrorEED2Ev@Base 0.4.1
 _ZN5boost16exception_detail19error_info_injectorIN3ndn5Block5ErrorEEC1ERKS5_@Base 0.4.1
 _ZN5boost16exception_detail19error_info_injectorIN3ndn5Block5ErrorEEC2ERKS5_@Base 0.4.1
 _ZN5boost16exception_detail19error_info_injectorIN3ndn5Block5ErrorEED0Ev@Base 0.4.1
 _ZN5boost16exception_detail19error_info_injectorIN3ndn5Block5ErrorEED1Ev@Base 0.4.1
 _ZN5boost16exception_detail19error_info_injectorIN3ndn5Block5ErrorEED2Ev@Base 0.4.1
 _ZN5boost16exception_detail19error_info_injectorIN3ndn7Exclude5ErrorEEC1ERKS5_@Base 0.4.1
 _ZN5boost16exception_detail19error_info_injectorIN3ndn7Exclude5ErrorEEC2ERKS5_@Base 0.4.1
 _ZN5boost16exception_detail19error_info_injectorIN3ndn7Exclude5ErrorEED0Ev@Base 0.4.1
 _ZN5boost16exception_detail19error_info_injectorIN3ndn7Exclude5ErrorEED1Ev@Base 0.4.1
 _ZN5boost16exception_detail19error_info_injectorIN3ndn7Exclude5ErrorEED2Ev@Base 0.4.1
 _ZN5boost16exception_detail19error_info_injectorIN3ndn8Interest5ErrorEEC1ERKS5_@Base 0.4.1
 _ZN5boost16exception_detail19error_info_injectorIN3ndn8Interest5ErrorEEC2ERKS5_@Base 0.4.1
 _ZN5boost16exception_detail19error_info_injectorIN3ndn8Interest5ErrorEED0Ev@Base 0.4.1
 _ZN5boost16exception_detail19error_info_injectorIN3ndn8Interest5ErrorEED1Ev@Base 0.4.1
 _ZN5boost16exception_detail19error_info_injectorIN3ndn8Interest5ErrorEED2Ev@Base 0.4.1
 _ZN5boost16exception_detail19error_info_injectorIN3ndn8MetaInfo5ErrorEEC1ERKS5_@Base 0.4.1
 _ZN5boost16exception_detail19error_info_injectorIN3ndn8MetaInfo5ErrorEEC2ERKS5_@Base 0.4.1
 _ZN5boost16exception_detail19error_info_injectorIN3ndn8MetaInfo5ErrorEED0Ev@Base 0.4.1
 _ZN5boost16exception_detail19error_info_injectorIN3ndn8MetaInfo5ErrorEED1Ev@Base 0.4.1
 _ZN5boost16exception_detail19error_info_injectorIN3ndn8MetaInfo5ErrorEED2Ev@Base 0.4.1
 _ZN5boost16exception_detail19error_info_injectorIN3ndn8security10SecTpmFile5ErrorEEC1ERKS6_@Base 0.4.1
 _ZN5boost16exception_detail19error_info_injectorIN3ndn8security10SecTpmFile5ErrorEEC2ERKS6_@Base 0.4.1
 _ZN5boost16exception_detail19error_info_injectorIN3ndn8security10SecTpmFile5ErrorEED0Ev@Base 0.4.1
 _ZN5boost16exception_detail19error_info_injectorIN3ndn8security10SecTpmFile5ErrorEED1Ev@Base 0.4.1
 _ZN5boost16exception_detail19error_info_injectorIN3ndn8security10SecTpmFile5ErrorEED2Ev@Base 0.4.1
 _ZN5boost16exception_detail19error_info_injectorIN3ndn8security13SecPublicInfo5ErrorEEC1ERKS6_@Base 0.4.1
 _ZN5boost16exception_detail19error_info_injectorIN3ndn8security13SecPublicInfo5ErrorEEC2ERKS6_@Base 0.4.1
 _ZN5boost16exception_detail19error_info_injectorIN3ndn8security13SecPublicInfo5ErrorEED0Ev@Base 0.4.1
 _ZN5boost16exception_detail19error_info_injectorIN3ndn8security13SecPublicInfo5ErrorEED1Ev@Base 0.4.1
 _ZN5boost16exception_detail19error_info_injectorIN3ndn8security13SecPublicInfo5ErrorEED2Ev@Base 0.4.1
 _ZN5boost16exception_detail19error_info_injectorIN3ndn8security14ValidityPeriod5ErrorEEC1ERKS6_@Base 0.4.1
 _ZN5boost16exception_detail19error_info_injectorIN3ndn8security14ValidityPeriod5ErrorEEC2ERKS6_@Base 0.4.1
 _ZN5boost16exception_detail19error_info_injectorIN3ndn8security14ValidityPeriod5ErrorEED0Ev@Base 0.4.1
 _ZN5boost16exception_detail19error_info_injectorIN3ndn8security14ValidityPeriod5ErrorEED1Ev@Base 0.4.1
 _ZN5boost16exception_detail19error_info_injectorIN3ndn8security14ValidityPeriod5ErrorEED2Ev@Base 0.4.1
 _ZN5boost16exception_detail19error_info_injectorIN3ndn8security15ValidatorConfig5ErrorEEC1ERKS6_@Base 0.4.1
 _ZN5boost16exception_detail19error_info_injectorIN3ndn8security15ValidatorConfig5ErrorEEC2ERKS6_@Base 0.4.1
 _ZN5boost16exception_detail19error_info_injectorIN3ndn8security15ValidatorConfig5ErrorEED0Ev@Base 0.4.1
 _ZN5boost16exception_detail19error_info_injectorIN3ndn8security15ValidatorConfig5ErrorEED1Ev@Base 0.4.1
 _ZN5boost16exception_detail19error_info_injectorIN3ndn8security15ValidatorConfig5ErrorEED2Ev@Base 0.4.1
 _ZN5boost16exception_detail19error_info_injectorIN3ndn8security20SecPublicInfoSqlite35ErrorEEC1ERKS6_@Base 0.4.1
 _ZN5boost16exception_detail19error_info_injectorIN3ndn8security20SecPublicInfoSqlite35ErrorEEC2ERKS6_@Base 0.4.1
 _ZN5boost16exception_detail19error_info_injectorIN3ndn8security20SecPublicInfoSqlite35ErrorEED0Ev@Base 0.4.1
 _ZN5boost16exception_detail19error_info_injectorIN3ndn8security20SecPublicInfoSqlite35ErrorEED1Ev@Base 0.4.1
 _ZN5boost16exception_detail19error_info_injectorIN3ndn8security20SecPublicInfoSqlite35ErrorEED2Ev@Base 0.4.1
 _ZN5boost16exception_detail19error_info_injectorIN3ndn8security2v111Certificate5ErrorEEC1ERKS7_@Base 0.4.1
 _ZN5boost16exception_detail19error_info_injectorIN3ndn8security2v111Certificate5ErrorEEC2ERKS7_@Base 0.4.1
 _ZN5boost16exception_detail19error_info_injectorIN3ndn8security2v111Certificate5ErrorEED0Ev@Base 0.4.1
 _ZN5boost16exception_detail19error_info_injectorIN3ndn8security2v111Certificate5ErrorEED1Ev@Base 0.4.1
 _ZN5boost16exception_detail19error_info_injectorIN3ndn8security2v111Certificate5ErrorEED2Ev@Base 0.4.1
 _ZN5boost16exception_detail19error_info_injectorIN3ndn8security2v119IdentityCertificate5ErrorEEC1ERKS7_@Base 0.4.1
 _ZN5boost16exception_detail19error_info_injectorIN3ndn8security2v119IdentityCertificate5ErrorEEC2ERKS7_@Base 0.4.1
 _ZN5boost16exception_detail19error_info_injectorIN3ndn8security2v119IdentityCertificate5ErrorEED0Ev@Base 0.4.1
 _ZN5boost16exception_detail19error_info_injectorIN3ndn8security2v119IdentityCertificate5ErrorEED1Ev@Base 0.4.1
 _ZN5boost16exception_detail19error_info_injectorIN3ndn8security2v119IdentityCertificate5ErrorEED2Ev@Base 0.4.1
 _ZN5boost16exception_detail19error_info_injectorIN3ndn8security2v19PublicKey5ErrorEEC1ERKS7_@Base 0.4.1
 _ZN5boost16exception_detail19error_info_injectorIN3ndn8security2v19PublicKey5ErrorEEC2ERKS7_@Base 0.4.1
 _ZN5boost16exception_detail19error_info_injectorIN3ndn8security2v19PublicKey5ErrorEED0Ev@Base 0.4.1
 _ZN5boost16exception_detail19error_info_injectorIN3ndn8security2v19PublicKey5ErrorEED1Ev@Base 0.4.1
 _ZN5boost16exception_detail19error_info_injectorIN3ndn8security2v19PublicKey5ErrorEED2Ev@Base 0.4.1
 _ZN5boost16exception_detail19error_info_injectorIN3ndn8security2v221AdditionalDescription5ErrorEEC1ERKS7_@Base 0.4.1
 _ZN5boost16exception_detail19error_info_injectorIN3ndn8security2v221AdditionalDescription5ErrorEEC2ERKS7_@Base 0.4.1
 _ZN5boost16exception_detail19error_info_injectorIN3ndn8security2v221AdditionalDescription5ErrorEED0Ev@Base 0.4.1
 _ZN5boost16exception_detail19error_info_injectorIN3ndn8security2v221AdditionalDescription5ErrorEED1Ev@Base 0.4.1
 _ZN5boost16exception_detail19error_info_injectorIN3ndn8security2v221AdditionalDescription5ErrorEED2Ev@Base 0.4.1
 _ZN5boost16exception_detail19error_info_injectorIN3ndn8security3Pib5ErrorEEC1ERKS6_@Base 0.4.1
 _ZN5boost16exception_detail19error_info_injectorIN3ndn8security3Pib5ErrorEEC2ERKS6_@Base 0.4.1
 _ZN5boost16exception_detail19error_info_injectorIN3ndn8security3Pib5ErrorEED0Ev@Base 0.4.1
 _ZN5boost16exception_detail19error_info_injectorIN3ndn8security3Pib5ErrorEED1Ev@Base 0.4.1
 _ZN5boost16exception_detail19error_info_injectorIN3ndn8security3Pib5ErrorEED2Ev@Base 0.4.1
 _ZN5boost16exception_detail19error_info_injectorIN3ndn8security4conf5ErrorEEC1ERKS6_@Base 0.4.1
 _ZN5boost16exception_detail19error_info_injectorIN3ndn8security4conf5ErrorEEC2ERKS6_@Base 0.4.1
 _ZN5boost16exception_detail19error_info_injectorIN3ndn8security4conf5ErrorEED0Ev@Base 0.4.1
 _ZN5boost16exception_detail19error_info_injectorIN3ndn8security4conf5ErrorEED1Ev@Base 0.4.1
 _ZN5boost16exception_detail19error_info_injectorIN3ndn8security4conf5ErrorEED2Ev@Base 0.4.1
 _ZN5boost16exception_detail19error_info_injectorIN3ndn8security6SecTpm5ErrorEEC1ERKS6_@Base 0.4.1
 _ZN5boost16exception_detail19error_info_injectorIN3ndn8security6SecTpm5ErrorEEC2ERKS6_@Base 0.4.1
 _ZN5boost16exception_detail19error_info_injectorIN3ndn8security6SecTpm5ErrorEED0Ev@Base 0.4.1
 _ZN5boost16exception_detail19error_info_injectorIN3ndn8security6SecTpm5ErrorEED1Ev@Base 0.4.1
 _ZN5boost16exception_detail19error_info_injectorIN3ndn8security6SecTpm5ErrorEED2Ev@Base 0.4.1
 _ZN5boost16exception_detail19error_info_injectorIN3ndn8security7PibImpl5ErrorEEC1ERKS6_@Base 0.4.1
 _ZN5boost16exception_detail19error_info_injectorIN3ndn8security7PibImpl5ErrorEEC2ERKS6_@Base 0.4.1
 _ZN5boost16exception_detail19error_info_injectorIN3ndn8security7PibImpl5ErrorEED0Ev@Base 0.4.1
 _ZN5boost16exception_detail19error_info_injectorIN3ndn8security7PibImpl5ErrorEED1Ev@Base 0.4.1
 _ZN5boost16exception_detail19error_info_injectorIN3ndn8security7PibImpl5ErrorEED2Ev@Base 0.4.1
 _ZN5boost16exception_detail19error_info_injectorIN3ndn8security8KeyChain13MismatchErrorEEC1ERKS6_@Base 0.4.1
 _ZN5boost16exception_detail19error_info_injectorIN3ndn8security8KeyChain13MismatchErrorEEC2ERKS6_@Base 0.4.1
 _ZN5boost16exception_detail19error_info_injectorIN3ndn8security8KeyChain13MismatchErrorEED0Ev@Base 0.4.1
 _ZN5boost16exception_detail19error_info_injectorIN3ndn8security8KeyChain13MismatchErrorEED1Ev@Base 0.4.1
 _ZN5boost16exception_detail19error_info_injectorIN3ndn8security8KeyChain13MismatchErrorEED2Ev@Base 0.4.1
 _ZN5boost16exception_detail19error_info_injectorIN3ndn8security8KeyChain5ErrorEEC1ERKS6_@Base 0.4.1
 _ZN5boost16exception_detail19error_info_injectorIN3ndn8security8KeyChain5ErrorEEC2ERKS6_@Base 0.4.1
 _ZN5boost16exception_detail19error_info_injectorIN3ndn8security8KeyChain5ErrorEED0Ev@Base 0.4.1
 _ZN5boost16exception_detail19error_info_injectorIN3ndn8security8KeyChain5ErrorEED1Ev@Base 0.4.1
 _ZN5boost16exception_detail19error_info_injectorIN3ndn8security8KeyChain5ErrorEED2Ev@Base 0.4.1
 _ZN5boost16exception_detail19error_info_injectorIN3ndn8security9PibMemory5ErrorEEC1ERKS6_@Base 0.4.1
 _ZN5boost16exception_detail19error_info_injectorIN3ndn8security9PibMemory5ErrorEEC2ERKS6_@Base 0.4.1
 _ZN5boost16exception_detail19error_info_injectorIN3ndn8security9PibMemory5ErrorEED0Ev@Base 0.4.1
 _ZN5boost16exception_detail19error_info_injectorIN3ndn8security9PibMemory5ErrorEED1Ev@Base 0.4.1
 _ZN5boost16exception_detail19error_info_injectorIN3ndn8security9PibMemory5ErrorEED2Ev@Base 0.4.1
 _ZN5boost16exception_detail19error_info_injectorIN3ndn8security9transform10PrivateKey5ErrorEEC1ERKS7_@Base 0.4.1
 _ZN5boost16exception_detail19error_info_injectorIN3ndn8security9transform10PrivateKey5ErrorEEC2ERKS7_@Base 0.4.1
 _ZN5boost16exception_detail19error_info_injectorIN3ndn8security9transform10PrivateKey5ErrorEED0Ev@Base 0.4.1
 _ZN5boost16exception_detail19error_info_injectorIN3ndn8security9transform10PrivateKey5ErrorEED1Ev@Base 0.4.1
 _ZN5boost16exception_detail19error_info_injectorIN3ndn8security9transform10PrivateKey5ErrorEED2Ev@Base 0.4.1
 _ZN5boost16exception_detail19error_info_injectorIN3ndn8security9transform5ErrorEEC1ERKS6_@Base 0.4.1
 _ZN5boost16exception_detail19error_info_injectorIN3ndn8security9transform5ErrorEEC2ERKS6_@Base 0.4.1
 _ZN5boost16exception_detail19error_info_injectorIN3ndn8security9transform5ErrorEED0Ev@Base 0.4.1
 _ZN5boost16exception_detail19error_info_injectorIN3ndn8security9transform5ErrorEED1Ev@Base 0.4.1
 _ZN5boost16exception_detail19error_info_injectorIN3ndn8security9transform5ErrorEED2Ev@Base 0.4.1
 _ZN5boost16exception_detail19error_info_injectorIN3ndn8security9transform9PublicKey5ErrorEEC1ERKS7_@Base 0.4.1
 _ZN5boost16exception_detail19error_info_injectorIN3ndn8security9transform9PublicKey5ErrorEEC2ERKS7_@Base 0.4.1
 _ZN5boost16exception_detail19error_info_injectorIN3ndn8security9transform9PublicKey5ErrorEED0Ev@Base 0.4.1
 _ZN5boost16exception_detail19error_info_injectorIN3ndn8security9transform9PublicKey5ErrorEED1Ev@Base 0.4.1
 _ZN5boost16exception_detail19error_info_injectorIN3ndn8security9transform9PublicKey5ErrorEED2Ev@Base 0.4.1
 _ZN5boost16exception_detail19error_info_injectorIN3ndn9Signature5ErrorEEC1ERKS5_@Base 0.4.1
 _ZN5boost16exception_detail19error_info_injectorIN3ndn9Signature5ErrorEEC2ERKS5_@Base 0.4.1
 _ZN5boost16exception_detail19error_info_injectorIN3ndn9Signature5ErrorEED0Ev@Base 0.4.1
 _ZN5boost16exception_detail19error_info_injectorIN3ndn9Signature5ErrorEED1Ev@Base 0.4.1
 _ZN5boost16exception_detail19error_info_injectorIN3ndn9Signature5ErrorEED2Ev@Base 0.4.1
 _ZN5boost16exception_detail19error_info_injectorIN3ndn9Transport5ErrorEEC1ERKS5_@Base 0.4.1
 _ZN5boost16exception_detail19error_info_injectorIN3ndn9Transport5ErrorEEC2ERKS5_@Base 0.4.1
 _ZN5boost16exception_detail19error_info_injectorIN3ndn9Transport5ErrorEED0Ev@Base 0.4.1
 _ZN5boost16exception_detail19error_info_injectorIN3ndn9Transport5ErrorEED1Ev@Base 0.4.1
 _ZN5boost16exception_detail19error_info_injectorIN3ndn9Transport5ErrorEED2Ev@Base 0.4.1
 _ZN5boost16exception_detail19error_info_injectorINS_10lock_errorEED0Ev@Base 0.4.1
 _ZN5boost16exception_detail19error_info_injectorINS_10lock_errorEED1Ev@Base 0.4.1
 _ZN5boost16exception_detail19error_info_injectorINS_10lock_errorEED2Ev@Base 0.4.1
 _ZN5boost16exception_detail19error_info_injectorINS_13property_tree10ini_parser16ini_parser_errorEEC1ERKS5_@Base 0.4.1
 _ZN5boost16exception_detail19error_info_injectorINS_13property_tree10ini_parser16ini_parser_errorEEC2ERKS5_@Base 0.4.1
 _ZN5boost16exception_detail19error_info_injectorINS_13property_tree10ini_parser16ini_parser_errorEED0Ev@Base 0.4.1
 _ZN5boost16exception_detail19error_info_injectorINS_13property_tree10ini_parser16ini_parser_errorEED1Ev@Base 0.4.1
 _ZN5boost16exception_detail19error_info_injectorINS_13property_tree10ini_parser16ini_parser_errorEED2Ev@Base 0.4.1
 _ZN5boost16exception_detail19error_info_injectorINS_13property_tree11info_parser17info_parser_errorEEC1ERKS5_@Base 0.4.1
 _ZN5boost16exception_detail19error_info_injectorINS_13property_tree11info_parser17info_parser_errorEEC2ERKS5_@Base 0.4.1
 _ZN5boost16exception_detail19error_info_injectorINS_13property_tree11info_parser17info_parser_errorEED0Ev@Base 0.4.1
 _ZN5boost16exception_detail19error_info_injectorINS_13property_tree11info_parser17info_parser_errorEED1Ev@Base 0.4.1
 _ZN5boost16exception_detail19error_info_injectorINS_13property_tree11info_parser17info_parser_errorEED2Ev@Base 0.4.1
 _ZN5boost16exception_detail19error_info_injectorINS_15condition_errorEED0Ev@Base 0.4.1
 _ZN5boost16exception_detail19error_info_injectorINS_15condition_errorEED1Ev@Base 0.4.1
 _ZN5boost16exception_detail19error_info_injectorINS_15condition_errorEED2Ev@Base 0.4.1
 _ZN5boost16exception_detail19error_info_injectorINS_16bad_lexical_castEED0Ev@Base 0.4.1
 _ZN5boost16exception_detail19error_info_injectorINS_16bad_lexical_castEED1Ev@Base 0.4.1
 _ZN5boost16exception_detail19error_info_injectorINS_16bad_lexical_castEED2Ev@Base 0.4.1
 _ZN5boost16exception_detail19error_info_injectorINS_17bad_function_callEED0Ev@Base 0.4.1
 _ZN5boost16exception_detail19error_info_injectorINS_17bad_function_callEED1Ev@Base 0.4.1
 _ZN5boost16exception_detail19error_info_injectorINS_17bad_function_callEED2Ev@Base 0.4.1
 _ZN5boost16exception_detail19error_info_injectorINS_21thread_resource_errorEED0Ev@Base 0.4.1
 _ZN5boost16exception_detail19error_info_injectorINS_21thread_resource_errorEED1Ev@Base 0.4.1
 _ZN5boost16exception_detail19error_info_injectorINS_21thread_resource_errorEED2Ev@Base 0.4.1
 _ZN5boost16exception_detail19error_info_injectorINS_6system12system_errorEED0Ev@Base 0.4.1
 _ZN5boost16exception_detail19error_info_injectorINS_6system12system_errorEED1Ev@Base 0.4.1
 _ZN5boost16exception_detail19error_info_injectorINS_6system12system_errorEED2Ev@Base 0.4.1
 _ZN5boost16exception_detail19error_info_injectorINS_9gregorian11bad_weekdayEED0Ev@Base 0.4.1
 _ZN5boost16exception_detail19error_info_injectorINS_9gregorian11bad_weekdayEED1Ev@Base 0.4.1
 _ZN5boost16exception_detail19error_info_injectorINS_9gregorian11bad_weekdayEED2Ev@Base 0.4.1
 _ZN5boost16exception_detail19error_info_injectorINS_9gregorian15bad_day_of_yearEED0Ev@Base 0.4.1
 _ZN5boost16exception_detail19error_info_injectorINS_9gregorian15bad_day_of_yearEED1Ev@Base 0.4.1
 _ZN5boost16exception_detail19error_info_injectorINS_9gregorian15bad_day_of_yearEED2Ev@Base 0.4.1
 _ZN5boost16exception_detail19error_info_injectorINS_9gregorian16bad_day_of_monthEED0Ev@Base 0.4.1
 _ZN5boost16exception_detail19error_info_injectorINS_9gregorian16bad_day_of_monthEED1Ev@Base 0.4.1
 _ZN5boost16exception_detail19error_info_injectorINS_9gregorian16bad_day_of_monthEED2Ev@Base 0.4.1
 _ZN5boost16exception_detail19error_info_injectorINS_9gregorian8bad_yearEED0Ev@Base 0.4.1
 _ZN5boost16exception_detail19error_info_injectorINS_9gregorian8bad_yearEED1Ev@Base 0.4.1
 _ZN5boost16exception_detail19error_info_injectorINS_9gregorian8bad_yearEED2Ev@Base 0.4.1
 _ZN5boost16exception_detail19error_info_injectorINS_9gregorian9bad_monthEED0Ev@Base 0.4.1
 _ZN5boost16exception_detail19error_info_injectorINS_9gregorian9bad_monthEED1Ev@Base 0.4.1
 _ZN5boost16exception_detail19error_info_injectorINS_9gregorian9bad_monthEED2Ev@Base 0.4.1
 _ZN5boost16exception_detail19error_info_injectorINSt8ios_base7failureB5cxx11EED0Ev@Base 0.4.1
 _ZN5boost16exception_detail19error_info_injectorINSt8ios_base7failureB5cxx11EED1Ev@Base 0.4.1
 _ZN5boost16exception_detail19error_info_injectorINSt8ios_base7failureB5cxx11EED2Ev@Base 0.4.1
 _ZN5boost16exception_detail19error_info_injectorISt11logic_errorED0Ev@Base 0.4.1
 _ZN5boost16exception_detail19error_info_injectorISt11logic_errorED1Ev@Base 0.4.1
 _ZN5boost16exception_detail19error_info_injectorISt11logic_errorED2Ev@Base 0.4.1
 _ZN5boost16exception_detail19error_info_injectorISt12domain_errorEC1ERKS3_@Base 0.4.1
 _ZN5boost16exception_detail19error_info_injectorISt12domain_errorEC2ERKS3_@Base 0.4.1
 _ZN5boost16exception_detail19error_info_injectorISt12domain_errorED0Ev@Base 0.4.1
 _ZN5boost16exception_detail19error_info_injectorISt12domain_errorED1Ev@Base 0.4.1
 _ZN5boost16exception_detail19error_info_injectorISt12domain_errorED2Ev@Base 0.4.1
 _ZN5boost16exception_detail19error_info_injectorISt12length_errorEC1ERKS3_@Base 0.4.1
 _ZN5boost16exception_detail19error_info_injectorISt12length_errorEC2ERKS3_@Base 0.4.1
 _ZN5boost16exception_detail19error_info_injectorISt12length_errorED0Ev@Base 0.4.1
 _ZN5boost16exception_detail19error_info_injectorISt12length_errorED1Ev@Base 0.4.1
 _ZN5boost16exception_detail19error_info_injectorISt12length_errorED2Ev@Base 0.4.1
 _ZN5boost16exception_detail19error_info_injectorISt12out_of_rangeEC1ERKS3_@Base 0.4.1
 _ZN5boost16exception_detail19error_info_injectorISt12out_of_rangeEC2ERKS3_@Base 0.4.1
 _ZN5boost16exception_detail19error_info_injectorISt12out_of_rangeED0Ev@Base 0.4.1
 _ZN5boost16exception_detail19error_info_injectorISt12out_of_rangeED1Ev@Base 0.4.1
 _ZN5boost16exception_detail19error_info_injectorISt12out_of_rangeED2Ev@Base 0.4.1
 _ZN5boost16exception_detail19error_info_injectorISt13runtime_errorEC1ERKS3_@Base 0.4.1
 _ZN5boost16exception_detail19error_info_injectorISt13runtime_errorEC2ERKS3_@Base 0.4.1
 _ZN5boost16exception_detail19error_info_injectorISt13runtime_errorED0Ev@Base 0.4.1
 _ZN5boost16exception_detail19error_info_injectorISt13runtime_errorED1Ev@Base 0.4.1
 _ZN5boost16exception_detail19error_info_injectorISt13runtime_errorED2Ev@Base 0.4.1
 _ZN5boost16exception_detail19error_info_injectorISt16invalid_argumentEC1ERKS3_@Base 0.4.1
 _ZN5boost16exception_detail19error_info_injectorISt16invalid_argumentEC2ERKS3_@Base 0.4.1
 _ZN5boost16exception_detail19error_info_injectorISt16invalid_argumentED0Ev@Base 0.4.1
 _ZN5boost16exception_detail19error_info_injectorISt16invalid_argumentED1Ev@Base 0.4.1
 _ZN5boost16exception_detail19error_info_injectorISt16invalid_argumentED2Ev@Base 0.4.1
 _ZN5boost16exception_detail19error_info_injectorISt8bad_castED0Ev@Base 0.4.1
 _ZN5boost16exception_detail19error_info_injectorISt8bad_castED1Ev@Base 0.4.1
 _ZN5boost16exception_detail19error_info_injectorISt8bad_castED2Ev@Base 0.4.1
 _ZN5boost16exception_detail20copy_boost_exceptionEPNS_9exceptionEPKS1_@Base 0.4.1
 _ZN5boost16offset_separatorclIN9__gnu_cxx17__normal_iteratorIPKcNSt7__cxx1112basic_stringIcSt11char_traitsIcESaIcEEEEESB_EEbRT_SD_RT0_@Base 0.4.1
 _ZN5boost16re_detail_10610011raise_errorINS_20regex_traits_wrapperINS_12regex_traitsIcNS_16cpp_regex_traitsIcEEEEEEEEvRKT_NS_15regex_constants10error_typeE@Base 0.4.1
 _ZN5boost16re_detail_10610012perl_matcherIN9__gnu_cxx17__normal_iteratorIPKcNSt7__cxx1112basic_stringIcSt11char_traitsIcESaIcEEEEESaINS_9sub_matchISC_EEENS_12regex_traitsIcNS_16cpp_regex_traitsIcEEEEE10match_failEv@Base 0.4.1
 _ZN5boost16re_detail_10610012perl_matcherIN9__gnu_cxx17__normal_iteratorIPKcNSt7__cxx1112basic_stringIcSt11char_traitsIcESaIcEEEEESaINS_9sub_matchISC_EEENS_12regex_traitsIcNS_16cpp_regex_traitsIcEEEEE10match_jumpEv@Base 0.4.1
 _ZN5boost16re_detail_10610012perl_matcherIN9__gnu_cxx17__normal_iteratorIPKcNSt7__cxx1112basic_stringIcSt11char_traitsIcESaIcEEEEESaINS_9sub_matchISC_EEENS_12regex_traitsIcNS_16cpp_regex_traitsIcEEEEE10match_thenEv@Base 0.4.1
 _ZN5boost16re_detail_10610012perl_matcherIN9__gnu_cxx17__normal_iteratorIPKcNSt7__cxx1112basic_stringIcSt11char_traitsIcESaIcEEEEESaINS_9sub_matchISC_EEENS_12regex_traitsIcNS_16cpp_regex_traitsIcEEEEE10match_wildEv@Base 0.4.1
 _ZN5boost16re_detail_10610012perl_matcherIN9__gnu_cxx17__normal_iteratorIPKcNSt7__cxx1112basic_stringIcSt11char_traitsIcESaIcEEEEESaINS_9sub_matchISC_EEENS_12regex_traitsIcNS_16cpp_regex_traitsIcEEEEE10unwind_altEb@Base 0.4.1
 _ZN5boost16re_detail_10610012perl_matcherIN9__gnu_cxx17__normal_iteratorIPKcNSt7__cxx1112basic_stringIcSt11char_traitsIcESaIcEEEEESaINS_9sub_matchISC_EEENS_12regex_traitsIcNS_16cpp_regex_traitsIcEEEEE10unwind_endEb@Base 0.4.1
 _ZN5boost16re_detail_10610012perl_matcherIN9__gnu_cxx17__normal_iteratorIPKcNSt7__cxx1112basic_stringIcSt11char_traitsIcESaIcEEEEESaINS_9sub_matchISC_EEENS_12regex_traitsIcNS_16cpp_regex_traitsIcEEEEE11match_matchEv@Base 0.4.1
 _ZN5boost16re_detail_10610012perl_matcherIN9__gnu_cxx17__normal_iteratorIPKcNSt7__cxx1112basic_stringIcSt11char_traitsIcESaIcEEEEESaINS_9sub_matchISC_EEENS_12regex_traitsIcNS_16cpp_regex_traitsIcEEEEE11unwind_thenEb@Base 0.4.1
 _ZN5boost16re_detail_10610012perl_matcherIN9__gnu_cxx17__normal_iteratorIPKcNSt7__cxx1112basic_stringIcSt11char_traitsIcESaIcEEEEESaINS_9sub_matchISC_EEENS_12regex_traitsIcNS_16cpp_regex_traitsIcEEEEE12extend_stackEv@Base 0.4.1
 _ZN5boost16re_detail_10610012perl_matcherIN9__gnu_cxx17__normal_iteratorIPKcNSt7__cxx1112basic_stringIcSt11char_traitsIcESaIcEEEEESaINS_9sub_matchISC_EEENS_12regex_traitsIcNS_16cpp_regex_traitsIcEEEEE12match_acceptEv@Base 0.4.1
 _ZN5boost16re_detail_10610012perl_matcherIN9__gnu_cxx17__normal_iteratorIPKcNSt7__cxx1112basic_stringIcSt11char_traitsIcESaIcEEEEESaINS_9sub_matchISC_EEENS_12regex_traitsIcNS_16cpp_regex_traitsIcEEEEE12match_commitEv@Base 0.4.1
 _ZN5boost16re_detail_10610012perl_matcherIN9__gnu_cxx17__normal_iteratorIPKcNSt7__cxx1112basic_stringIcSt11char_traitsIcESaIcEEEEESaINS_9sub_matchISC_EEENS_12regex_traitsIcNS_16cpp_regex_traitsIcEEEEE12unwind_parenEb@Base 0.4.1
 _ZN5boost16re_detail_10610012perl_matcherIN9__gnu_cxx17__normal_iteratorIPKcNSt7__cxx1112basic_stringIcSt11char_traitsIcESaIcEEEEESaINS_9sub_matchISC_EEENS_12regex_traitsIcNS_16cpp_regex_traitsIcEEEEE13match_backrefEv@Base 0.4.1
 _ZN5boost16re_detail_10610012perl_matcherIN9__gnu_cxx17__normal_iteratorIPKcNSt7__cxx1112basic_stringIcSt11char_traitsIcESaIcEEEEESaINS_9sub_matchISC_EEENS_12regex_traitsIcNS_16cpp_regex_traitsIcEEEEE13match_endmarkEv@Base 0.4.1
 _ZN5boost16re_detail_10610012perl_matcherIN9__gnu_cxx17__normal_iteratorIPKcNSt7__cxx1112basic_stringIcSt11char_traitsIcESaIcEEEEESaINS_9sub_matchISC_EEENS_12regex_traitsIcNS_16cpp_regex_traitsIcEEEEE13match_literalEv@Base 0.4.1
 _ZN5boost16re_detail_10610012perl_matcherIN9__gnu_cxx17__normal_iteratorIPKcNSt7__cxx1112basic_stringIcSt11char_traitsIcESaIcEEEEESaINS_9sub_matchISC_EEENS_12regex_traitsIcNS_16cpp_regex_traitsIcEEEEE13unwind_commitEb@Base 0.4.1
 _ZN5boost16re_detail_10610012perl_matcherIN9__gnu_cxx17__normal_iteratorIPKcNSt7__cxx1112basic_stringIcSt11char_traitsIcESaIcEEEEESaINS_9sub_matchISC_EEENS_12regex_traitsIcNS_16cpp_regex_traitsIcEEEEE14match_backstepEv@Base 0.4.1
 _ZN5boost16re_detail_10610012perl_matcherIN9__gnu_cxx17__normal_iteratorIPKcNSt7__cxx1112basic_stringIcSt11char_traitsIcESaIcEEEEESaINS_9sub_matchISC_EEENS_12regex_traitsIcNS_16cpp_regex_traitsIcEEEEE14match_end_lineEv@Base 0.4.1
 _ZN5boost16re_detail_10610012perl_matcherIN9__gnu_cxx17__normal_iteratorIPKcNSt7__cxx1112basic_stringIcSt11char_traitsIcESaIcEEEEESaINS_9sub_matchISC_EEENS_12regex_traitsIcNS_16cpp_regex_traitsIcEEEEE14match_long_setEv@Base 0.4.1
 _ZN5boost16re_detail_10610012perl_matcherIN9__gnu_cxx17__normal_iteratorIPKcNSt7__cxx1112basic_stringIcSt11char_traitsIcESaIcEEEEESaINS_9sub_matchISC_EEENS_12regex_traitsIcNS_16cpp_regex_traitsIcEEEEE14match_word_endEv@Base 0.4.1
 _ZN5boost16re_detail_10610012perl_matcherIN9__gnu_cxx17__normal_iteratorIPKcNSt7__cxx1112basic_stringIcSt11char_traitsIcESaIcEEEEESaINS_9sub_matchISC_EEENS_12regex_traitsIcNS_16cpp_regex_traitsIcEEEEE15match_combiningEv@Base 0.4.1
 _ZN5boost16re_detail_10610012perl_matcherIN9__gnu_cxx17__normal_iteratorIPKcNSt7__cxx1112basic_stringIcSt11char_traitsIcESaIcEEEEESaINS_9sub_matchISC_EEENS_12regex_traitsIcNS_16cpp_regex_traitsIcEEEEE15match_recursionEv@Base 0.4.1
 _ZN5boost16re_detail_10610012perl_matcherIN9__gnu_cxx17__normal_iteratorIPKcNSt7__cxx1112basic_stringIcSt11char_traitsIcESaIcEEEEESaINS_9sub_matchISC_EEENS_12regex_traitsIcNS_16cpp_regex_traitsIcEEEEE15match_startmarkEv@Base 0.4.1
 _ZN5boost16re_detail_10610012perl_matcherIN9__gnu_cxx17__normal_iteratorIPKcNSt7__cxx1112basic_stringIcSt11char_traitsIcESaIcEEEEESaINS_9sub_matchISC_EEENS_12regex_traitsIcNS_16cpp_regex_traitsIcEEEEE16match_all_statesEv@Base 0.4.1
 _ZN5boost16re_detail_10610012perl_matcherIN9__gnu_cxx17__normal_iteratorIPKcNSt7__cxx1112basic_stringIcSt11char_traitsIcESaIcEEEEESaINS_9sub_matchISC_EEENS_12regex_traitsIcNS_16cpp_regex_traitsIcEEEEE16match_buffer_endEv@Base 0.4.1
 _ZN5boost16re_detail_10610012perl_matcherIN9__gnu_cxx17__normal_iteratorIPKcNSt7__cxx1112basic_stringIcSt11char_traitsIcESaIcEEEEESaINS_9sub_matchISC_EEENS_12regex_traitsIcNS_16cpp_regex_traitsIcEEEEE16match_set_repeatEv@Base 0.4.1
 _ZN5boost16re_detail_10610012perl_matcherIN9__gnu_cxx17__normal_iteratorIPKcNSt7__cxx1112basic_stringIcSt11char_traitsIcESaIcEEEEESaINS_9sub_matchISC_EEENS_12regex_traitsIcNS_16cpp_regex_traitsIcEEEEE16match_start_lineEv@Base 0.4.1
 _ZN5boost16re_detail_10610012perl_matcherIN9__gnu_cxx17__normal_iteratorIPKcNSt7__cxx1112basic_stringIcSt11char_traitsIcESaIcEEEEESaINS_9sub_matchISC_EEENS_12regex_traitsIcNS_16cpp_regex_traitsIcEEEEE16match_word_startEv@Base 0.4.1
 _ZN5boost16re_detail_10610012perl_matcherIN9__gnu_cxx17__normal_iteratorIPKcNSt7__cxx1112basic_stringIcSt11char_traitsIcESaIcEEEEESaINS_9sub_matchISC_EEENS_12regex_traitsIcNS_16cpp_regex_traitsIcEEEEE16skip_until_parenEib@Base 0.4.1
 _ZN5boost16re_detail_10610012perl_matcherIN9__gnu_cxx17__normal_iteratorIPKcNSt7__cxx1112basic_stringIcSt11char_traitsIcESaIcEEEEESaINS_9sub_matchISC_EEENS_12regex_traitsIcNS_16cpp_regex_traitsIcEEEEE16unwind_assertionEb@Base 0.4.1
 _ZN5boost16re_detail_10610012perl_matcherIN9__gnu_cxx17__normal_iteratorIPKcNSt7__cxx1112basic_stringIcSt11char_traitsIcESaIcEEEEESaINS_9sub_matchISC_EEENS_12regex_traitsIcNS_16cpp_regex_traitsIcEEEEE16unwind_recursionEb@Base 0.4.1
 _ZN5boost16re_detail_10610012perl_matcherIN9__gnu_cxx17__normal_iteratorIPKcNSt7__cxx1112basic_stringIcSt11char_traitsIcESaIcEEEEESaINS_9sub_matchISC_EEENS_12regex_traitsIcNS_16cpp_regex_traitsIcEEEEE17match_char_repeatEv@Base 0.4.1
 _ZN5boost16re_detail_10610012perl_matcherIN9__gnu_cxx17__normal_iteratorIPKcNSt7__cxx1112basic_stringIcSt11char_traitsIcESaIcEEEEESaINS_9sub_matchISC_EEENS_12regex_traitsIcNS_16cpp_regex_traitsIcEEEEE17match_toggle_caseEv@Base 0.4.1
 _ZN5boost16re_detail_10610012perl_matcherIN9__gnu_cxx17__normal_iteratorIPKcNSt7__cxx1112basic_stringIcSt11char_traitsIcESaIcEEEEESaINS_9sub_matchISC_EEENS_12regex_traitsIcNS_16cpp_regex_traitsIcEEEEE17match_within_wordEv@Base 0.4.1
 _ZN5boost16re_detail_10610012perl_matcherIN9__gnu_cxx17__normal_iteratorIPKcNSt7__cxx1112basic_stringIcSt11char_traitsIcESaIcEEEEESaINS_9sub_matchISC_EEENS_12regex_traitsIcNS_16cpp_regex_traitsIcEEEEE18match_buffer_startEv@Base 0.4.1
 _ZN5boost16re_detail_10610012perl_matcherIN9__gnu_cxx17__normal_iteratorIPKcNSt7__cxx1112basic_stringIcSt11char_traitsIcESaIcEEEEESaINS_9sub_matchISC_EEENS_12regex_traitsIcNS_16cpp_regex_traitsIcEEEEE18push_single_repeatEmPKNS0_9re_repeatESC_i@Base 0.4.1
 _ZN5boost16re_detail_10610012perl_matcherIN9__gnu_cxx17__normal_iteratorIPKcNSt7__cxx1112basic_stringIcSt11char_traitsIcESaIcEEEEESaINS_9sub_matchISC_EEENS_12regex_traitsIcNS_16cpp_regex_traitsIcEEEEE18unwind_char_repeatEb@Base 0.4.1
 _ZN5boost16re_detail_10610012perl_matcherIN9__gnu_cxx17__normal_iteratorIPKcNSt7__cxx1112basic_stringIcSt11char_traitsIcESaIcEEEEESaINS_9sub_matchISC_EEENS_12regex_traitsIcNS_16cpp_regex_traitsIcEEEEE18unwind_extra_blockEb@Base 0.4.1
 _ZN5boost16re_detail_10610012perl_matcherIN9__gnu_cxx17__normal_iteratorIPKcNSt7__cxx1112basic_stringIcSt11char_traitsIcESaIcEEEEESaINS_9sub_matchISC_EEENS_12regex_traitsIcNS_16cpp_regex_traitsIcEEEEE19match_word_boundaryEv@Base 0.4.1
 _ZN5boost16re_detail_10610012perl_matcherIN9__gnu_cxx17__normal_iteratorIPKcNSt7__cxx1112basic_stringIcSt11char_traitsIcESaIcEEEEESaINS_9sub_matchISC_EEENS_12regex_traitsIcNS_16cpp_regex_traitsIcEEEEE19push_repeater_countEiPPNS0_14repeater_countISC_EE@Base 0.4.1
 _ZN5boost16re_detail_10610012perl_matcherIN9__gnu_cxx17__normal_iteratorIPKcNSt7__cxx1112basic_stringIcSt11char_traitsIcESaIcEEEEESaINS_9sub_matchISC_EEENS_12regex_traitsIcNS_16cpp_regex_traitsIcEEEEE20match_assert_backrefEv@Base 0.4.1
 _ZN5boost16re_detail_10610012perl_matcherIN9__gnu_cxx17__normal_iteratorIPKcNSt7__cxx1112basic_stringIcSt11char_traitsIcESaIcEEEEESaINS_9sub_matchISC_EEENS_12regex_traitsIcNS_16cpp_regex_traitsIcEEEEE20unwind_recursion_popEb@Base 0.4.1
 _ZN5boost16re_detail_10610012perl_matcherIN9__gnu_cxx17__normal_iteratorIPKcNSt7__cxx1112basic_stringIcSt11char_traitsIcESaIcEEEEESaINS_9sub_matchISC_EEENS_12regex_traitsIcNS_16cpp_regex_traitsIcEEEEE21match_dot_repeat_fastEv@Base 0.4.1
 _ZN5boost16re_detail_10610012perl_matcherIN9__gnu_cxx17__normal_iteratorIPKcNSt7__cxx1112basic_stringIcSt11char_traitsIcESaIcEEEEESaINS_9sub_matchISC_EEENS_12regex_traitsIcNS_16cpp_regex_traitsIcEEEEE21match_dot_repeat_slowEv@Base 0.4.1
 _ZN5boost16re_detail_10610012perl_matcherIN9__gnu_cxx17__normal_iteratorIPKcNSt7__cxx1112basic_stringIcSt11char_traitsIcESaIcEEEEESaINS_9sub_matchISC_EEENS_12regex_traitsIcNS_16cpp_regex_traitsIcEEEEE21match_long_set_repeatEv@Base 0.4.1
 _ZN5boost16re_detail_10610012perl_matcherIN9__gnu_cxx17__normal_iteratorIPKcNSt7__cxx1112basic_stringIcSt11char_traitsIcESaIcEEEEESaINS_9sub_matchISC_EEENS_12regex_traitsIcNS_16cpp_regex_traitsIcEEEEE21match_soft_buffer_endEv@Base 0.4.1
 _ZN5boost16re_detail_10610012perl_matcherIN9__gnu_cxx17__normal_iteratorIPKcNSt7__cxx1112basic_stringIcSt11char_traitsIcESaIcEEEEESaINS_9sub_matchISC_EEENS_12regex_traitsIcNS_16cpp_regex_traitsIcEEEEE22match_restart_continueEv@Base 0.4.1
 _ZN5boost16re_detail_10610012perl_matcherIN9__gnu_cxx17__normal_iteratorIPKcNSt7__cxx1112basic_stringIcSt11char_traitsIcESaIcEEEEESaINS_9sub_matchISC_EEENS_12regex_traitsIcNS_16cpp_regex_traitsIcEEEEE22unwind_fast_dot_repeatEb@Base 0.4.1
 _ZN5boost16re_detail_10610012perl_matcherIN9__gnu_cxx17__normal_iteratorIPKcNSt7__cxx1112basic_stringIcSt11char_traitsIcESaIcEEEEESaINS_9sub_matchISC_EEENS_12regex_traitsIcNS_16cpp_regex_traitsIcEEEEE22unwind_long_set_repeatEb@Base 0.4.1
 _ZN5boost16re_detail_10610012perl_matcherIN9__gnu_cxx17__normal_iteratorIPKcNSt7__cxx1112basic_stringIcSt11char_traitsIcESaIcEEEEESaINS_9sub_matchISC_EEENS_12regex_traitsIcNS_16cpp_regex_traitsIcEEEEE22unwind_slow_dot_repeatEb@Base 0.4.1
 _ZN5boost16re_detail_10610012perl_matcherIN9__gnu_cxx17__normal_iteratorIPKcNSt7__cxx1112basic_stringIcSt11char_traitsIcESaIcEEEEESaINS_9sub_matchISC_EEENS_12regex_traitsIcNS_16cpp_regex_traitsIcEEEEE23unwind_repeater_counterEb@Base 0.4.1
 _ZN5boost16re_detail_10610012perl_matcherIN9__gnu_cxx17__normal_iteratorIPKcNSt7__cxx1112basic_stringIcSt11char_traitsIcESaIcEEEEESaINS_9sub_matchISC_EEENS_12regex_traitsIcNS_16cpp_regex_traitsIcEEEEE23unwind_short_set_repeatEb@Base 0.4.1
 _ZN5boost16re_detail_10610012perl_matcherIN9__gnu_cxx17__normal_iteratorIPKcNSt7__cxx1112basic_stringIcSt11char_traitsIcESaIcEEEEESaINS_9sub_matchISC_EEENS_12regex_traitsIcNS_16cpp_regex_traitsIcEEEEE24unwind_non_greedy_repeatEb@Base 0.4.1
 _ZN5boost16re_detail_10610012perl_matcherIN9__gnu_cxx17__normal_iteratorIPKcNSt7__cxx1112basic_stringIcSt11char_traitsIcESaIcEEEEESaINS_9sub_matchISC_EEENS_12regex_traitsIcNS_16cpp_regex_traitsIcEEEEE24unwind_recursion_stopperEb@Base 0.4.1
 _ZN5boost16re_detail_10610012perl_matcherIN9__gnu_cxx17__normal_iteratorIPKcNSt7__cxx1112basic_stringIcSt11char_traitsIcESaIcEEEEESaINS_9sub_matchISC_EEENS_12regex_traitsIcNS_16cpp_regex_traitsIcEEEEE25match_dot_repeat_dispatchEv@Base 0.4.1
 _ZN5boost16re_detail_10610012perl_matcherIN9__gnu_cxx17__normal_iteratorIPKcNSt7__cxx1112basic_stringIcSt11char_traitsIcESaIcEEEEESaINS_9sub_matchISC_EEENS_12regex_traitsIcNS_16cpp_regex_traitsIcEEEEE27unwind_greedy_single_repeatEb@Base 0.4.1
 _ZN5boost16re_detail_10610012perl_matcherIN9__gnu_cxx17__normal_iteratorIPKcNSt7__cxx1112basic_stringIcSt11char_traitsIcESaIcEEEEESaINS_9sub_matchISC_EEENS_12regex_traitsIcNS_16cpp_regex_traitsIcEEEEE6unwindEb@Base 0.4.1
 _ZN5boost16re_detail_10610012perl_matcherIN9__gnu_cxx17__normal_iteratorIPKcNSt7__cxx1112basic_stringIcSt11char_traitsIcESaIcEEEEESaINS_9sub_matchISC_EEENS_12regex_traitsIcNS_16cpp_regex_traitsIcEEEEE9match_altEv@Base 0.4.1
 _ZN5boost16re_detail_10610012perl_matcherIN9__gnu_cxx17__normal_iteratorIPKcNSt7__cxx1112basic_stringIcSt11char_traitsIcESaIcEEEEESaINS_9sub_matchISC_EEENS_12regex_traitsIcNS_16cpp_regex_traitsIcEEEEE9match_impEv@Base 0.4.1
 _ZN5boost16re_detail_10610012perl_matcherIN9__gnu_cxx17__normal_iteratorIPKcNSt7__cxx1112basic_stringIcSt11char_traitsIcESaIcEEEEESaINS_9sub_matchISC_EEENS_12regex_traitsIcNS_16cpp_regex_traitsIcEEEEE9match_repEv@Base 0.4.1
 _ZN5boost16re_detail_10610012perl_matcherIN9__gnu_cxx17__normal_iteratorIPKcNSt7__cxx1112basic_stringIcSt11char_traitsIcESaIcEEEEESaINS_9sub_matchISC_EEENS_12regex_traitsIcNS_16cpp_regex_traitsIcEEEEE9match_setEv@Base 0.4.1
 _ZN5boost16re_detail_10610012perl_matcherIN9__gnu_cxx17__normal_iteratorIPKcNSt7__cxx1112basic_stringIcSt11char_traitsIcESaIcEEEEESaINS_9sub_matchISC_EEENS_12regex_traitsIcNS_16cpp_regex_traitsIcEEEEED1Ev@Base 0.4.1
 _ZN5boost16re_detail_10610012perl_matcherIN9__gnu_cxx17__normal_iteratorIPKcNSt7__cxx1112basic_stringIcSt11char_traitsIcESaIcEEEEESaINS_9sub_matchISC_EEENS_12regex_traitsIcNS_16cpp_regex_traitsIcEEEEED2Ev@Base 0.4.1
 _ZN5boost16re_detail_10610014repeater_countIN9__gnu_cxx17__normal_iteratorIPKcNSt7__cxx1112basic_stringIcSt11char_traitsIcESaIcEEEEEE12unwind_untilEiPSD_i@Base 0.4.1
 _ZN5boost16re_detail_10610016re_is_set_memberIN9__gnu_cxx17__normal_iteratorIPKcNSt7__cxx1112basic_stringIcSt11char_traitsIcESaIcEEEEEcNS_12regex_traitsIcNS_16cpp_regex_traitsIcEEEEjEET_SH_SH_PKNS0_11re_set_longIT2_EERKNS0_10regex_dataIT0_T1_EEb@Base 0.4.1
 _ZN5boost16thread_exceptionD0Ev@Base 0.4.1
 _ZN5boost16thread_exceptionD1Ev@Base 0.4.1
 _ZN5boost16thread_exceptionD2Ev@Base 0.4.1
 _ZN5boost17bad_function_callD0Ev@Base 0.4.1
 _ZN5boost17bad_function_callD1Ev@Base 0.4.1
 _ZN5boost17bad_function_callD2Ev@Base 0.4.1
 _ZN5boost19thread_specific_ptrINS_3log11v2_mt_posix5sinks30basic_formatting_sink_frontendIcE18formatting_contextEE11delete_dataD0Ev@Base 0.4.1
 _ZN5boost19thread_specific_ptrINS_3log11v2_mt_posix5sinks30basic_formatting_sink_frontendIcE18formatting_contextEE11delete_dataD1Ev@Base 0.4.1
 _ZN5boost19thread_specific_ptrINS_3log11v2_mt_posix5sinks30basic_formatting_sink_frontendIcE18formatting_contextEE11delete_dataD2Ev@Base 0.4.1
 _ZN5boost19thread_specific_ptrINS_3log11v2_mt_posix5sinks30basic_formatting_sink_frontendIcE18formatting_contextEE11delete_dataclEPv@Base 0.4.1
 _ZN5boost21thread_resource_errorD0Ev@Base 0.4.1
 _ZN5boost21thread_resource_errorD1Ev@Base 0.4.1
 _ZN5boost21thread_resource_errorD2Ev@Base 0.4.1
 _ZN5boost2CV17constrained_valueINS0_23simple_exception_policyItLt1400ELt10000ENS_9gregorian8bad_yearEEEE6assignEt@Base 0.4.1
 _ZN5boost2CV17constrained_valueINS0_23simple_exception_policyItLt1ELt12ENS_9gregorian9bad_monthEEEE6assignEt@Base 0.4.1
 _ZN5boost2CV17constrained_valueINS0_23simple_exception_policyItLt1ELt31ENS_9gregorian16bad_day_of_monthEEEE6assignEt@Base 0.4.1
 _ZN5boost2CV23simple_exception_policyItLt0ELt6ENS_9gregorian11bad_weekdayEE8on_errorEttNS0_14violation_enumE@Base 0.4.1
 _ZN5boost2CV23simple_exception_policyItLt1400ELt10000ENS_9gregorian8bad_yearEE8on_errorEttNS0_14violation_enumE@Base 0.4.1
 _ZN5boost2CV23simple_exception_policyItLt1ELt12ENS_9gregorian9bad_monthEE8on_errorEttNS0_14violation_enumE@Base 0.4.1
 _ZN5boost2CV23simple_exception_policyItLt1ELt31ENS_9gregorian16bad_day_of_monthEE8on_errorEttNS0_14violation_enumE@Base 0.4.1
 _ZN5boost2CV23simple_exception_policyItLt1ELt366ENS_9gregorian15bad_day_of_yearEE8on_errorEttNS0_14violation_enumE@Base 0.4.1
 _ZN5boost3log11v2_mt_posix15type_dispatcher13callback_base10trampolineINS1_3aux21value_ref_initializerINS1_9value_refINS_3mpl7vector2INSt7__cxx1112basic_stringIcSt11char_traitsIcESaIcEEENSB_IwSC_IwESaIwEEEEENS1_11expressions3tag7messageEEEEESF_EEvPvRKT0_@Base 0.4.1
 _ZN5boost3log11v2_mt_posix15type_dispatcher13callback_base10trampolineINS1_3aux21value_ref_initializerINS1_9value_refINS_3mpl7vector2INSt7__cxx1112basic_stringIcSt11char_traitsIcESaIcEEENSB_IwSC_IwESaIwEEEEENS1_11expressions3tag7messageEEEEESI_EEvPvRKT0_@Base 0.4.1
 _ZN5boost3log11v2_mt_posix15type_dispatcher13callback_base10trampolineINS1_9binder1stINS1_10output_funERNS1_11expressions3aux10stream_refINS1_24basic_formatting_ostreamIcSt11char_traitsIcESaIcEEEEEEENSt7__cxx1112basic_stringIcSC_SD_EEEEvPvRKT0_@Base 0.4.1
 _ZN5boost3log11v2_mt_posix15type_dispatcher13callback_base10trampolineINS1_9binder1stINS1_10output_funERNS1_11expressions3aux10stream_refINS1_24basic_formatting_ostreamIcSt11char_traitsIcESaIcEEEEEEENSt7__cxx1112basic_stringIwSB_IwESaIwEEEEEvPvRKT0_@Base 0.4.1
 _ZN5boost3log11v2_mt_posix24basic_formatting_ostreamIcSt11char_traitsIcESaIcEE13aligned_writeEPKcl@Base 0.4.1
 _ZN5boost3log11v2_mt_posix24basic_formatting_ostreamIcSt11char_traitsIcESaIcEE13aligned_writeIwEEvPKT_l@Base 0.4.1
 _ZN5boost3log11v2_mt_posix24basic_formatting_ostreamIcSt11char_traitsIcESaIcEE15formatted_writeEPKcl@Base 0.4.1
 _ZN5boost3log11v2_mt_posix24basic_formatting_ostreamIcSt11char_traitsIcESaIcEED1Ev@Base 0.4.1
 _ZN5boost3log11v2_mt_posix24basic_formatting_ostreamIcSt11char_traitsIcESaIcEED2Ev@Base 0.4.1
 _ZN5boost3log11v2_mt_posix24basic_formatting_ostreamIcSt11char_traitsIcESaIcEElsEPKc@Base 0.4.1
 _ZN5boost3log11v2_mt_posix3aux11record_pumpIN3ndn4util6LoggerEED1Ev@Base 0.4.1
 _ZN5boost3log11v2_mt_posix3aux11record_pumpIN3ndn4util6LoggerEED2Ev@Base 0.4.1
 _ZN5boost3log11v2_mt_posix3aux14light_functionIFbRKNS1_19attribute_value_setEEE4implINS1_6filter14default_filterEE10clone_implEPKv@Base 0.4.1
 _ZN5boost3log11v2_mt_posix3aux14light_functionIFbRKNS1_19attribute_value_setEEE4implINS1_6filter14default_filterEE11invoke_implEPvS6_@Base 0.4.1
 _ZN5boost3log11v2_mt_posix3aux14light_functionIFbRKNS1_19attribute_value_setEEE4implINS1_6filter14default_filterEE12destroy_implEPv@Base 0.4.1
 _ZN5boost3log11v2_mt_posix3aux14light_functionIFvRKNS1_11record_viewENS1_11expressions3aux10stream_refINS1_24basic_formatting_ostreamIcSt11char_traitsIcESaIcEEEEEEE4implINS8_17message_formatterEE10clone_implEPKv@Base 0.4.1
 _ZN5boost3log11v2_mt_posix3aux14light_functionIFvRKNS1_11record_viewENS1_11expressions3aux10stream_refINS1_24basic_formatting_ostreamIcSt11char_traitsIcESaIcEEEEEEE4implINS8_17message_formatterEE11invoke_implEPvS6_SF_@Base 0.4.1
 _ZN5boost3log11v2_mt_posix3aux14light_functionIFvRKNS1_11record_viewENS1_11expressions3aux10stream_refINS1_24basic_formatting_ostreamIcSt11char_traitsIcESaIcEEEEEEE4implINS8_17message_formatterEE12destroy_implEPv@Base 0.4.1
 _ZN5boost3log11v2_mt_posix3aux14light_functionIFvRKNS1_11record_viewENS1_11expressions3aux10stream_refINS1_24basic_formatting_ostreamIcSt11char_traitsIcESaIcEEEEEEE4implINS_7phoenix5actorINS_5proto7exprns_10basic_exprINSL_6tagns_3tag10shift_leftENSL_7argsns_5list2INSK_INSN_INSP_8terminalENSR_4termINSJ_8argumentILi2EEEEELl0EEEEENS7_15attribute_actorINS_3mpl7vector2INSt7__cxx1112basic_stringIcSC_SD_EENS14_IwSB_IwESaIwEEEEENS1_16fallback_to_noneENS7_3tag7messageESK_EEEELl2EEEEEE10clone_implEPKv@Base 0.4.1
 _ZN5boost3log11v2_mt_posix3aux14light_functionIFvRKNS1_11record_viewENS1_11expressions3aux10stream_refINS1_24basic_formatting_ostreamIcSt11char_traitsIcESaIcEEEEEEE4implINS_7phoenix5actorINS_5proto7exprns_10basic_exprINSL_6tagns_3tag10shift_leftENSL_7argsns_5list2INSK_INSN_INSP_8terminalENSR_4termINSJ_8argumentILi2EEEEELl0EEEEENS7_15attribute_actorINS_3mpl7vector2INSt7__cxx1112basic_stringIcSC_SD_EENS14_IwSB_IwESaIwEEEEENS1_16fallback_to_noneENS7_3tag7messageESK_EEEELl2EEEEEE11invoke_implEPvS6_SF_@Base 0.4.1
 _ZN5boost3log11v2_mt_posix3aux14light_functionIFvRKNS1_11record_viewENS1_11expressions3aux10stream_refINS1_24basic_formatting_ostreamIcSt11char_traitsIcESaIcEEEEEEE4implINS_7phoenix5actorINS_5proto7exprns_10basic_exprINSL_6tagns_3tag10shift_leftENSL_7argsns_5list2INSK_INSN_INSP_8terminalENSR_4termINSJ_8argumentILi2EEEEELl0EEEEENS7_15attribute_actorINS_3mpl7vector2INSt7__cxx1112basic_stringIcSC_SD_EENS14_IwSB_IwESaIwEEEEENS1_16fallback_to_noneENS7_3tag7messageESK_EEEELl2EEEEEE12destroy_implEPv@Base 0.4.1
 _ZN5boost3log11v2_mt_posix3aux16threadsafe_queueINS1_11record_viewESaIvEED1Ev@Base 0.4.1
 _ZN5boost3log11v2_mt_posix3aux16threadsafe_queueINS1_11record_viewESaIvEED2Ev@Base 0.4.1
 _ZN5boost3log11v2_mt_posix3aux22basic_ostringstreambufIcSt11char_traitsIcESaIcEE4syncEv@Base 0.4.1
 _ZN5boost3log11v2_mt_posix3aux22basic_ostringstreambufIcSt11char_traitsIcESaIcEE6xsputnEPKcl@Base 0.4.1
 _ZN5boost3log11v2_mt_posix3aux22basic_ostringstreambufIcSt11char_traitsIcESaIcEE8overflowEi@Base 0.4.1
 _ZN5boost3log11v2_mt_posix3aux22basic_ostringstreambufIcSt11char_traitsIcESaIcEED0Ev@Base 0.4.1
 _ZN5boost3log11v2_mt_posix3aux22basic_ostringstreambufIcSt11char_traitsIcESaIcEED1Ev@Base 0.4.1
 _ZN5boost3log11v2_mt_posix3aux22basic_ostringstreambufIcSt11char_traitsIcESaIcEED2Ev@Base 0.4.1
 _ZN5boost3log11v2_mt_posix3aux29type_sequence_dispatcher_base12get_callbackEPNS1_15type_dispatcherENS_9typeindex14stl_type_indexE@Base 0.4.1
 _ZN5boost3log11v2_mt_posix5sinks17asynchronous_sinkINS2_26basic_text_ostream_backendIcEENS2_20unbounded_fifo_queueEE11scoped_flagD1Ev@Base 0.4.1
 _ZN5boost3log11v2_mt_posix5sinks17asynchronous_sinkINS2_26basic_text_ostream_backendIcEENS2_20unbounded_fifo_queueEE11scoped_flagD2Ev@Base 0.4.1
 _ZN5boost3log11v2_mt_posix5sinks17asynchronous_sinkINS2_26basic_text_ostream_backendIcEENS2_20unbounded_fifo_queueEE11try_consumeERKNS1_11record_viewE@Base 0.4.1
 _ZN5boost3log11v2_mt_posix5sinks17asynchronous_sinkINS2_26basic_text_ostream_backendIcEENS2_20unbounded_fifo_queueEE15do_feed_recordsEv@Base 0.4.1
 _ZN5boost3log11v2_mt_posix5sinks17asynchronous_sinkINS2_26basic_text_ostream_backendIcEENS2_20unbounded_fifo_queueEE16scoped_thread_idD1Ev@Base 0.4.1
 _ZN5boost3log11v2_mt_posix5sinks17asynchronous_sinkINS2_26basic_text_ostream_backendIcEENS2_20unbounded_fifo_queueEE16scoped_thread_idD2Ev@Base 0.4.1
 _ZN5boost3log11v2_mt_posix5sinks17asynchronous_sinkINS2_26basic_text_ostream_backendIcEENS2_20unbounded_fifo_queueEE3runEv@Base 0.4.1
 _ZN5boost3log11v2_mt_posix5sinks17asynchronous_sinkINS2_26basic_text_ostream_backendIcEENS2_20unbounded_fifo_queueEE5flushEv@Base 0.4.1
 _ZN5boost3log11v2_mt_posix5sinks17asynchronous_sinkINS2_26basic_text_ostream_backendIcEENS2_20unbounded_fifo_queueEE7consumeERKNS1_11record_viewE@Base 0.4.1
 _ZN5boost3log11v2_mt_posix5sinks17asynchronous_sinkINS2_26basic_text_ostream_backendIcEENS2_20unbounded_fifo_queueEED0Ev@Base 0.4.1
 _ZN5boost3log11v2_mt_posix5sinks17asynchronous_sinkINS2_26basic_text_ostream_backendIcEENS2_20unbounded_fifo_queueEED1Ev@Base 0.4.1
 _ZN5boost3log11v2_mt_posix5sinks17asynchronous_sinkINS2_26basic_text_ostream_backendIcEENS2_20unbounded_fifo_queueEED2Ev@Base 0.4.1
 _ZN5boost3log11v2_mt_posix5sinks19basic_sink_frontend12will_consumeERKNS1_19attribute_value_setE@Base 0.4.1
 _ZN5boost3log11v2_mt_posix5sinks30basic_formatting_sink_frontendIcED0Ev@Base 0.4.1
 _ZN5boost3log11v2_mt_posix5sinks30basic_formatting_sink_frontendIcED1Ev@Base 0.4.1
 _ZN5boost3log11v2_mt_posix5sinks30basic_formatting_sink_frontendIcED2Ev@Base 0.4.1
 _ZN5boost3log11v2_mt_posix5sinks4sink11try_consumeERKNS1_11record_viewE@Base 0.4.1
 _ZN5boost4asio10io_service7service12fork_serviceENS1_10fork_eventE@Base 0.4.1
 _ZN5boost4asio10io_serviceC1Ev@Base 0.4.1
 _ZN5boost4asio10io_serviceC2Ev@Base 0.4.1
 _ZN5boost4asio15basic_io_objectINS0_2ip16resolver_serviceINS2_3udpEEELb0EED1Ev@Base 0.4.1
 _ZN5boost4asio15basic_io_objectINS0_2ip16resolver_serviceINS2_3udpEEELb0EED2Ev@Base 0.4.1
 _ZN5boost4asio21stream_socket_serviceINS0_2ip3tcpEE16shutdown_serviceEv@Base 0.4.1
 _ZN5boost4asio21stream_socket_serviceINS0_2ip3tcpEED0Ev@Base 0.4.1
 _ZN5boost4asio21stream_socket_serviceINS0_2ip3tcpEED1Ev@Base 0.4.1
 _ZN5boost4asio21stream_socket_serviceINS0_2ip3tcpEED2Ev@Base 0.4.1
 _ZN5boost4asio21stream_socket_serviceINS0_5local15stream_protocolEE16shutdown_serviceEv@Base 0.4.1
 _ZN5boost4asio21stream_socket_serviceINS0_5local15stream_protocolEED0Ev@Base 0.4.1
 _ZN5boost4asio21stream_socket_serviceINS0_5local15stream_protocolEED1Ev@Base 0.4.1
 _ZN5boost4asio21stream_socket_serviceINS0_5local15stream_protocolEED2Ev@Base 0.4.1
 _ZN5boost4asio22deadline_timer_serviceIN3ndn4time12steady_clockENS0_11time_traitsIS4_EEE16shutdown_serviceEv@Base 0.4.1
 _ZN5boost4asio22deadline_timer_serviceIN3ndn4time12steady_clockENS0_11time_traitsIS4_EEED0Ev@Base 0.4.1
 _ZN5boost4asio22deadline_timer_serviceIN3ndn4time12steady_clockENS0_11time_traitsIS4_EEED1Ev@Base 0.4.1
 _ZN5boost4asio22deadline_timer_serviceIN3ndn4time12steady_clockENS0_11time_traitsIS4_EEED2Ev@Base 0.4.1
 _ZN5boost4asio22deadline_timer_serviceINS_10posix_time5ptimeENS0_11time_traitsIS3_EEE16shutdown_serviceEv@Base 0.4.1
 _ZN5boost4asio22deadline_timer_serviceINS_10posix_time5ptimeENS0_11time_traitsIS3_EEED0Ev@Base 0.4.1
 _ZN5boost4asio22deadline_timer_serviceINS_10posix_time5ptimeENS0_11time_traitsIS3_EEED1Ev@Base 0.4.1
 _ZN5boost4asio22deadline_timer_serviceINS_10posix_time5ptimeENS0_11time_traitsIS3_EEED2Ev@Base 0.4.1
 _ZN5boost4asio28asio_handler_is_continuationEz@Base 0.4.1
 _ZN5boost4asio2ip16resolver_serviceINS1_3tcpEE12fork_serviceENS0_10io_service10fork_eventE@Base 0.4.1
 _ZN5boost4asio2ip16resolver_serviceINS1_3tcpEE16shutdown_serviceEv@Base 0.4.1
 _ZN5boost4asio2ip16resolver_serviceINS1_3tcpEED0Ev@Base 0.4.1
 _ZN5boost4asio2ip16resolver_serviceINS1_3tcpEED1Ev@Base 0.4.1
 _ZN5boost4asio2ip16resolver_serviceINS1_3tcpEED2Ev@Base 0.4.1
 _ZN5boost4asio2ip16resolver_serviceINS1_3udpEE12fork_serviceENS0_10io_service10fork_eventE@Base 0.4.1
 _ZN5boost4asio2ip16resolver_serviceINS1_3udpEE16shutdown_serviceEv@Base 0.4.1
 _ZN5boost4asio2ip16resolver_serviceINS1_3udpEED0Ev@Base 0.4.1
 _ZN5boost4asio2ip16resolver_serviceINS1_3udpEED1Ev@Base 0.4.1
 _ZN5boost4asio2ip16resolver_serviceINS1_3udpEED2Ev@Base 0.4.1
 _ZN5boost4asio2ip20basic_resolver_entryINS1_3tcpEED1Ev@Base 0.4.1
 _ZN5boost4asio2ip20basic_resolver_entryINS1_3tcpEED2Ev@Base 0.4.1
 _ZN5boost4asio2ip20basic_resolver_entryINS1_3udpEED1Ev@Base 0.4.1
 _ZN5boost4asio2ip20basic_resolver_entryINS1_3udpEED2Ev@Base 0.4.1
 _ZN5boost4asio2ip20basic_resolver_queryINS1_3udpEED1Ev@Base 0.4.1
 _ZN5boost4asio2ip20basic_resolver_queryINS1_3udpEED2Ev@Base 0.4.1
 _ZN5boost4asio2ip23basic_resolver_iteratorINS1_3tcpEE6createEP8addrinfoRKNSt7__cxx1112basic_stringIcSt11char_traitsIcESaIcEEESE_@Base 0.4.1
 _ZN5boost4asio2ip6detail8endpointC1ERKNS1_7addressEt@Base 0.4.1
 _ZN5boost4asio2ip6detail8endpointC2ERKNS1_7addressEt@Base 0.4.1
 _ZN5boost4asio5error18get_netdb_categoryEv@Base 0.4.1
 _ZN5boost4asio5error6detail13misc_categoryD0Ev@Base 0.4.1
 _ZN5boost4asio5error6detail13misc_categoryD1Ev@Base 0.4.1
 _ZN5boost4asio5error6detail13misc_categoryD2Ev@Base 0.4.1
 _ZN5boost4asio5error6detail14netdb_categoryD0Ev@Base 0.4.1
 _ZN5boost4asio5error6detail14netdb_categoryD1Ev@Base 0.4.1
 _ZN5boost4asio5error6detail14netdb_categoryD2Ev@Base 0.4.1
 _ZN5boost4asio5error6detail17addrinfo_categoryD0Ev@Base 0.4.1
 _ZN5boost4asio5error6detail17addrinfo_categoryD1Ev@Base 0.4.1
 _ZN5boost4asio5error6detail17addrinfo_categoryD2Ev@Base 0.4.1
 _ZN5boost4asio5posix25stream_descriptor_service16shutdown_serviceEv@Base 0.4.1
 _ZN5boost4asio5posix25stream_descriptor_serviceD0Ev@Base 0.4.1
 _ZN5boost4asio5posix25stream_descriptor_serviceD1Ev@Base 0.4.1
 _ZN5boost4asio5posix25stream_descriptor_serviceD2Ev@Base 0.4.1
 _ZN5boost4asio6detail10call_stackINS1_14strand_service11strand_implEhE4top_E@Base 0.4.1
 _ZN5boost4asio6detail10call_stackINS1_15task_io_serviceENS1_27task_io_service_thread_infoEE4top_E@Base 0.4.1
 _ZN5boost4asio6detail10resolve_opINS0_2ip3tcpESt5_BindIFSt7_Mem_fnIMN3ndn31StreamTransportWithResolverImplINS7_12TcpTransportES4_EEFvRKNS_6system10error_codeENS3_23basic_resolver_iteratorIS4_EERKSt10shared_ptrINS3_14basic_resolverIS4_NS3_16resolver_serviceIS4_EEEEEEESH_ISA_ESt12_PlaceholderILi1EEST_ILi2EESM_EEE11do_completeEPNS1_15task_io_serviceEPNS1_25task_io_service_operationESE_m@Base 0.4.1
 _ZN5boost4asio6detail10resolve_opINS0_2ip3udpESt5_BindIFSt7_Mem_fnIMN3ndn3dns8ResolverEFvRKNS_6system10error_codeENS3_23basic_resolver_iteratorIS4_EERKSt10shared_ptrIS9_EEEPS9_St12_PlaceholderILi1EESO_ILi2EESH_EEE11do_completeEPNS1_15task_io_serviceEPNS1_25task_io_service_operationESD_m@Base 0.4.1
 _ZN5boost4asio6detail10scoped_ptrINS0_10io_serviceEED1Ev@Base 0.4.1
 _ZN5boost4asio6detail10scoped_ptrINS0_10io_serviceEED2Ev@Base 0.4.1
 _ZN5boost4asio6detail10service_idINS0_21stream_socket_serviceINS0_2ip3tcpEEEED1Ev@Base 0.4.1
 _ZN5boost4asio6detail10service_idINS0_21stream_socket_serviceINS0_2ip3tcpEEEED2Ev@Base 0.4.1
 _ZN5boost4asio6detail10service_idINS0_21stream_socket_serviceINS0_5local15stream_protocolEEEED1Ev@Base 0.4.1
 _ZN5boost4asio6detail10service_idINS0_21stream_socket_serviceINS0_5local15stream_protocolEEEED2Ev@Base 0.4.1
 _ZN5boost4asio6detail10service_idINS0_22deadline_timer_serviceIN3ndn4time12steady_clockENS0_11time_traitsIS6_EEEEED1Ev@Base 0.4.1
 _ZN5boost4asio6detail10service_idINS0_22deadline_timer_serviceIN3ndn4time12steady_clockENS0_11time_traitsIS6_EEEEED2Ev@Base 0.4.1
 _ZN5boost4asio6detail10service_idINS0_22deadline_timer_serviceINS_10posix_time5ptimeENS0_11time_traitsIS5_EEEEED1Ev@Base 0.4.1
 _ZN5boost4asio6detail10service_idINS0_22deadline_timer_serviceINS_10posix_time5ptimeENS0_11time_traitsIS5_EEEEED2Ev@Base 0.4.1
 _ZN5boost4asio6detail10service_idINS0_2ip16resolver_serviceINS3_3tcpEEEED1Ev@Base 0.4.1
 _ZN5boost4asio6detail10service_idINS0_2ip16resolver_serviceINS3_3tcpEEEED2Ev@Base 0.4.1
 _ZN5boost4asio6detail10service_idINS0_2ip16resolver_serviceINS3_3udpEEEED1Ev@Base 0.4.1
 _ZN5boost4asio6detail10service_idINS0_2ip16resolver_serviceINS3_3udpEEEED2Ev@Base 0.4.1
 _ZN5boost4asio6detail10service_idINS0_5posix25stream_descriptor_serviceEED1Ev@Base 0.4.1
 _ZN5boost4asio6detail10service_idINS0_5posix25stream_descriptor_serviceEED2Ev@Base 0.4.1
 _ZN5boost4asio6detail10service_idINS1_13epoll_reactorEED1Ev@Base 0.4.1
 _ZN5boost4asio6detail10service_idINS1_13epoll_reactorEED2Ev@Base 0.4.1
 _ZN5boost4asio6detail10service_idINS1_14strand_serviceEED1Ev@Base 0.4.1
 _ZN5boost4asio6detail10service_idINS1_14strand_serviceEED2Ev@Base 0.4.1
 _ZN5boost4asio6detail10service_idINS1_15task_io_serviceEED1Ev@Base 0.4.1
 _ZN5boost4asio6detail10service_idINS1_15task_io_serviceEED2Ev@Base 0.4.1
 _ZN5boost4asio6detail10socket_ops24translate_addrinfo_errorEi@Base 0.4.1
 _ZN5boost4asio6detail10socket_ops25set_internal_non_blockingEiRhbRNS_6system10error_codeE@Base 0.4.1
 _ZN5boost4asio6detail10socket_ops5closeEiRhbRNS_6system10error_codeE@Base 0.4.1
 _ZN5boost4asio6detail10socket_ops9inet_ptonEiPKcPvPmRNS_6system10error_codeE@Base 0.4.1
 _ZN5boost4asio6detail11posix_mutexC1Ev@Base 0.4.1
 _ZN5boost4asio6detail11posix_mutexC2Ev@Base 0.4.1
 _ZN5boost4asio6detail11timer_queueINS0_11time_traitsIN3ndn4time12steady_clockEEEE14get_all_timersERNS1_8op_queueINS1_25task_io_service_operationEEE@Base 0.4.1
 _ZN5boost4asio6detail11timer_queueINS0_11time_traitsIN3ndn4time12steady_clockEEEE16get_ready_timersERNS1_8op_queueINS1_25task_io_service_operationEEE@Base 0.4.1
 _ZN5boost4asio6detail11timer_queueINS0_11time_traitsIN3ndn4time12steady_clockEEEED0Ev@Base 0.4.1
 _ZN5boost4asio6detail11timer_queueINS0_11time_traitsIN3ndn4time12steady_clockEEEED1Ev@Base 0.4.1
 _ZN5boost4asio6detail11timer_queueINS0_11time_traitsIN3ndn4time12steady_clockEEEED2Ev@Base 0.4.1
 _ZN5boost4asio6detail11timer_queueINS0_11time_traitsINS_10posix_time5ptimeEEEE14get_all_timersERNS1_8op_queueINS1_25task_io_service_operationEEE@Base 0.4.1
 _ZN5boost4asio6detail11timer_queueINS0_11time_traitsINS_10posix_time5ptimeEEEE16get_ready_timersERNS1_8op_queueINS1_25task_io_service_operationEEE@Base 0.4.1
 _ZN5boost4asio6detail11timer_queueINS0_11time_traitsINS_10posix_time5ptimeEEEED0Ev@Base 0.4.1
 _ZN5boost4asio6detail11timer_queueINS0_11time_traitsINS_10posix_time5ptimeEEEED1Ev@Base 0.4.1
 _ZN5boost4asio6detail11timer_queueINS0_11time_traitsINS_10posix_time5ptimeEEEED2Ev@Base 0.4.1
 _ZN5boost4asio6detail11timer_queueINS1_28forwarding_posix_time_traitsEE12remove_timerERNS4_14per_timer_dataE@Base 0.4.1
 _ZN5boost4asio6detail11timer_queueINS1_28forwarding_posix_time_traitsEE14get_all_timersERNS1_8op_queueINS1_25task_io_service_operationEEE@Base 0.4.1
 _ZN5boost4asio6detail11timer_queueINS1_28forwarding_posix_time_traitsEE16get_ready_timersERNS1_8op_queueINS1_25task_io_service_operationEEE@Base 0.4.1
 _ZN5boost4asio6detail11timer_queueINS1_28forwarding_posix_time_traitsEE7up_heapEm@Base 0.4.1
 _ZN5boost4asio6detail11timer_queueINS1_28forwarding_posix_time_traitsEED0Ev@Base 0.4.1
 _ZN5boost4asio6detail11timer_queueINS1_28forwarding_posix_time_traitsEED1Ev@Base 0.4.1
 _ZN5boost4asio6detail11timer_queueINS1_28forwarding_posix_time_traitsEED2Ev@Base 0.4.1
 _ZN5boost4asio6detail12posix_thread4funcINS1_21resolver_service_base22work_io_service_runnerEE3runEv@Base 0.4.1
 _ZN5boost4asio6detail12posix_thread4funcINS1_21resolver_service_base22work_io_service_runnerEED0Ev@Base 0.4.1
 _ZN5boost4asio6detail12posix_thread4funcINS1_21resolver_service_base22work_io_service_runnerEED1Ev@Base 0.4.1
 _ZN5boost4asio6detail12posix_thread4funcINS1_21resolver_service_base22work_io_service_runnerEED2Ev@Base 0.4.1
 _ZN5boost4asio6detail12service_baseINS0_21stream_socket_serviceINS0_2ip3tcpEEEE2idE@Base 0.4.1
 _ZN5boost4asio6detail12service_baseINS0_21stream_socket_serviceINS0_5local15stream_protocolEEEE2idE@Base 0.4.1
 _ZN5boost4asio6detail12service_baseINS0_22deadline_timer_serviceIN3ndn4time12steady_clockENS0_11time_traitsIS6_EEEEE2idE@Base 0.4.1
 _ZN5boost4asio6detail12service_baseINS0_22deadline_timer_serviceINS_10posix_time5ptimeENS0_11time_traitsIS5_EEEEE2idE@Base 0.4.1
 _ZN5boost4asio6detail12service_baseINS0_2ip16resolver_serviceINS3_3tcpEEEE2idE@Base 0.4.1
 _ZN5boost4asio6detail12service_baseINS0_2ip16resolver_serviceINS3_3udpEEEE2idE@Base 0.4.1
 _ZN5boost4asio6detail12service_baseINS0_5posix25stream_descriptor_serviceEE2idE@Base 0.4.1
 _ZN5boost4asio6detail12service_baseINS1_13epoll_reactorEE2idE@Base 0.4.1
 _ZN5boost4asio6detail12service_baseINS1_14strand_serviceEE2idE@Base 0.4.1
 _ZN5boost4asio6detail12service_baseINS1_15task_io_serviceEE2idE@Base 0.4.1
 _ZN5boost4asio6detail12wait_handlerISt5_BindIFSt7_Mem_fnIMN3ndn19StreamTransportImplINS5_12TcpTransportENS0_2ip3tcpEEEFvRKNS_6system10error_codeEEESt10shared_ptrISA_ESt12_PlaceholderILi1EEEEE11do_completeEPNS1_15task_io_serviceEPNS1_25task_io_service_operationESE_m@Base 0.4.1
 _ZN5boost4asio6detail12wait_handlerISt5_BindIFSt7_Mem_fnIMN3ndn19StreamTransportImplINS5_13UnixTransportENS0_5local15stream_protocolEEEFvRKNS_6system10error_codeEEESt10shared_ptrISA_ESt12_PlaceholderILi1EEEEE11do_completeEPNS1_15task_io_serviceEPNS1_25task_io_service_operationESE_m@Base 0.4.1
 _ZN5boost4asio6detail12wait_handlerISt5_BindIFSt7_Mem_fnIMN3ndn4util9scheduler9SchedulerEFvRKNS_6system10error_codeEEEPS8_St12_PlaceholderILi1EEEEE11do_completeEPNS1_15task_io_serviceEPNS1_25task_io_service_operationESC_m@Base 0.4.1
 _ZN5boost4asio6detail13epoll_reactor12cancel_timerINS0_11time_traitsIN3ndn4time12steady_clockEEEEEmRNS1_11timer_queueIT_EERNSB_14per_timer_dataEm@Base 0.4.1
 _ZN5boost4asio6detail13epoll_reactor12fork_serviceENS0_10io_service10fork_eventE@Base 0.4.1
 _ZN5boost4asio6detail13epoll_reactor14schedule_timerINS0_11time_traitsIN3ndn4time12steady_clockEEEEEvRNS1_11timer_queueIT_EERKNSA_9time_typeERNSB_14per_timer_dataEPNS1_7wait_opE@Base 0.4.1
 _ZN5boost4asio6detail13epoll_reactor14schedule_timerINS0_11time_traitsINS_10posix_time5ptimeEEEEEvRNS1_11timer_queueIT_EERKNS9_9time_typeERNSA_14per_timer_dataEPNS1_7wait_opE@Base 0.4.1
 _ZN5boost4asio6detail13epoll_reactor15do_epoll_createEv@Base 0.4.1
 _ZN5boost4asio6detail13epoll_reactor16descriptor_state11do_completeEPNS1_15task_io_serviceEPNS1_25task_io_service_operationERKNS_6system10error_codeEm@Base 0.4.1
 _ZN5boost4asio6detail13epoll_reactor16shutdown_serviceEv@Base 0.4.1
 _ZN5boost4asio6detail13epoll_reactor21deregister_descriptorEiRPNS2_16descriptor_stateEb@Base 0.4.1
 _ZN5boost4asio6detail13epoll_reactor32perform_io_cleanup_on_block_exitD1Ev@Base 0.4.1
 _ZN5boost4asio6detail13epoll_reactor32perform_io_cleanup_on_block_exitD2Ev@Base 0.4.1
 _ZN5boost4asio6detail13epoll_reactor3runEbRNS1_8op_queueINS1_25task_io_service_operationEEE@Base 0.4.1
 _ZN5boost4asio6detail13epoll_reactor8start_opEiiRPNS2_16descriptor_stateEPNS1_10reactor_opEbb@Base 0.4.1
 _ZN5boost4asio6detail13epoll_reactorD0Ev@Base 0.4.1
 _ZN5boost4asio6detail13epoll_reactorD1Ev@Base 0.4.1
 _ZN5boost4asio6detail13epoll_reactorD2Ev@Base 0.4.1
 _ZN5boost4asio6detail14do_throw_errorERKNS_6system10error_codeE@Base 0.4.1
 _ZN5boost4asio6detail14do_throw_errorERKNS_6system10error_codeEPKc@Base 0.4.1
 _ZN5boost4asio6detail15keyword_tss_ptrINS1_10call_stackINS1_15task_io_serviceENS1_27task_io_service_thread_infoEE7contextEE6value_E@Base 0.4.1
 _ZN5boost4asio6detail15task_io_service11do_dispatchEPNS1_25task_io_service_operationE@Base 0.4.1
 _ZN5boost4asio6detail15task_io_service12task_cleanupD1Ev@Base 0.4.1
 _ZN5boost4asio6detail15task_io_service12task_cleanupD2Ev@Base 0.4.1
 _ZN5boost4asio6detail15task_io_service12work_cleanupD1Ev@Base 0.4.1
 _ZN5boost4asio6detail15task_io_service12work_cleanupD2Ev@Base 0.4.1
 _ZN5boost4asio6detail15task_io_service13work_finishedEv@Base 0.4.1
 _ZN5boost4asio6detail15task_io_service16shutdown_serviceEv@Base 0.4.1
 _ZN5boost4asio6detail15task_io_service25post_deferred_completionsERNS1_8op_queueINS1_25task_io_service_operationEEE@Base 0.4.1
 _ZN5boost4asio6detail15task_io_service25post_immediate_completionEPNS1_25task_io_service_operationEb@Base 0.4.1
 _ZN5boost4asio6detail15task_io_service26wake_one_thread_and_unlockERNS1_11scoped_lockINS1_11posix_mutexEEE@Base 0.4.1
 _ZN5boost4asio6detail15task_io_service3runERNS_6system10error_codeE@Base 0.4.1
 _ZN5boost4asio6detail15task_io_service4pollERNS_6system10error_codeE@Base 0.4.1
 _ZN5boost4asio6detail15task_io_service4postINS1_7binder1ISt5_BindIFSt7_Mem_fnIMN3ndn19StreamTransportImplINS7_12TcpTransportENS0_2ip3tcpEEEFvRKNS_6system10error_codeEEESt10shared_ptrISC_ESt12_PlaceholderILi1EEEESE_EEEEvRT_@Base 0.4.1
 _ZN5boost4asio6detail15task_io_service4postINS1_7binder1ISt5_BindIFSt7_Mem_fnIMN3ndn19StreamTransportImplINS7_13UnixTransportENS0_5local15stream_protocolEEEFvRKNS_6system10error_codeEEESt10shared_ptrISC_ESt12_PlaceholderILi1EEEESE_EEEEvRT_@Base 0.4.1
 _ZN5boost4asio6detail15task_io_service4postIZZN3ndn4Face4ImplC4ERS5_ENKUlvE_clEvEUlvE_EEvRT_@Base 0.4.1
 _ZN5boost4asio6detail15task_io_service9init_taskEv@Base 0.4.1
 _ZN5boost4asio6detail15task_io_serviceD0Ev@Base 0.4.1
 _ZN5boost4asio6detail15task_io_serviceD1Ev@Base 0.4.1
 _ZN5boost4asio6detail15task_io_serviceD2Ev@Base 0.4.1
 _ZN5boost4asio6detail16service_registry14do_use_serviceERKNS0_10io_service7service3keyEPFPS4_RS3_E@Base 0.4.1
 _ZN5boost4asio6detail16service_registry6createINS0_21stream_socket_serviceINS0_2ip3tcpEEEEEPNS0_10io_service7serviceERS8_@Base 0.4.1
 _ZN5boost4asio6detail16service_registry6createINS0_21stream_socket_serviceINS0_5local15stream_protocolEEEEEPNS0_10io_service7serviceERS8_@Base 0.4.1
 _ZN5boost4asio6detail16service_registry6createINS0_22deadline_timer_serviceIN3ndn4time12steady_clockENS0_11time_traitsIS7_EEEEEEPNS0_10io_service7serviceERSB_@Base 0.4.1
 _ZN5boost4asio6detail16service_registry6createINS0_22deadline_timer_serviceINS_10posix_time5ptimeENS0_11time_traitsIS6_EEEEEEPNS0_10io_service7serviceERSA_@Base 0.4.1
 _ZN5boost4asio6detail16service_registry6createINS0_2ip16resolver_serviceINS4_3tcpEEEEEPNS0_10io_service7serviceERS8_@Base 0.4.1
 _ZN5boost4asio6detail16service_registry6createINS0_2ip16resolver_serviceINS4_3udpEEEEEPNS0_10io_service7serviceERS8_@Base 0.4.1
 _ZN5boost4asio6detail16service_registry6createINS0_5posix25stream_descriptor_serviceEEEPNS0_10io_service7serviceERS6_@Base 0.4.1
 _ZN5boost4asio6detail16service_registry6createINS1_13epoll_reactorEEEPNS0_10io_service7serviceERS5_@Base 0.4.1
 _ZN5boost4asio6detail16thread_info_base8allocateEPS2_m@Base 0.4.1
 _ZN5boost4asio6detail18completion_handlerINS1_7binder1ISt5_BindIFSt7_Mem_fnIMN3ndn19StreamTransportImplINS6_12TcpTransportENS0_2ip3tcpEEEFvRKNS_6system10error_codeEEESt10shared_ptrISB_ESt12_PlaceholderILi1EEEESD_EEE11do_completeEPNS1_15task_io_serviceEPNS1_25task_io_service_operationESF_m@Base 0.4.1
 _ZN5boost4asio6detail18completion_handlerINS1_7binder1ISt5_BindIFSt7_Mem_fnIMN3ndn19StreamTransportImplINS6_13UnixTransportENS0_5local15stream_protocolEEEFvRKNS_6system10error_codeEEESt10shared_ptrISB_ESt12_PlaceholderILi1EEEESD_EEE11do_completeEPNS1_15task_io_serviceEPNS1_25task_io_service_operationESF_m@Base 0.4.1
 _ZN5boost4asio6detail18completion_handlerISt5_BindIFZN3ndn3dns8Resolver15onResolveResultERKNS_6system10error_codeENS0_2ip23basic_resolver_iteratorINSB_3udpEEERKSt10shared_ptrIS6_EEUlSI_E_SG_EEE11do_completeEPNS1_15task_io_serviceEPNS1_25task_io_service_operationESA_m@Base 0.4.1
 _ZN5boost4asio6detail18completion_handlerISt5_BindIFZN3ndn3dns8Resolver16onResolveTimeoutERKSt10shared_ptrIS6_EEUlSA_E_S8_EEE11do_completeEPNS1_15task_io_serviceEPNS1_25task_io_service_operationERKNS_6system10error_codeEm@Base 0.4.1
 _ZN5boost4asio6detail18completion_handlerIZZN3ndn4Face4ImplC4ERS4_ENKUlvE_clEvEUlvE_E11do_completeEPNS1_15task_io_serviceEPNS1_25task_io_service_operationERKNS_6system10error_codeEm@Base 0.4.1
 _ZN5boost4asio6detail18descriptor_read_opINS0_17mutable_buffers_1ESt5_BindIFSt7_Mem_fnIMN3ndn4util14NetworkMonitor4ImplEFvRKNS_6system10error_codeEmEEPS9_St12_PlaceholderILi1EESI_ILi2EEEEE11do_completeEPNS1_15task_io_serviceEPNS1_25task_io_service_operationESD_m@Base 0.4.1
 _ZN5boost4asio6detail21resolver_service_base16shutdown_serviceEv@Base 0.4.1
 _ZN5boost4asio6detail22deadline_timer_serviceINS0_11time_traitsINS_10posix_time5ptimeEEEE6cancelERNS7_19implementation_typeERNS_6system10error_codeE@Base 0.4.1
 _ZN5boost4asio6detail23descriptor_read_op_baseINS0_17mutable_buffers_1EE10do_performEPNS1_10reactor_opE@Base 0.4.1
 _ZN5boost4asio6detail23reactive_socket_recv_opINS0_17mutable_buffers_1ESt5_BindIFSt7_Mem_fnIMN3ndn19StreamTransportImplINS6_12TcpTransportENS0_2ip3tcpEEEFvRKNS_6system10error_codeEmEESt10shared_ptrISB_ESt12_PlaceholderILi1EESL_ILi2EEEEE11do_completeEPNS1_15task_io_serviceEPNS1_25task_io_service_operationESF_m@Base 0.4.1
 _ZN5boost4asio6detail23reactive_socket_recv_opINS0_17mutable_buffers_1ESt5_BindIFSt7_Mem_fnIMN3ndn19StreamTransportImplINS6_13UnixTransportENS0_5local15stream_protocolEEEFvRKNS_6system10error_codeEmEESt10shared_ptrISB_ESt12_PlaceholderILi1EESL_ILi2EEEEE11do_completeEPNS1_15task_io_serviceEPNS1_25task_io_service_operationESF_m@Base 0.4.1
 _ZN5boost4asio6detail23reactive_socket_send_opINS1_17consuming_buffersINS0_12const_bufferENSt7__cxx114listIN3ndn5BlockESaIS8_EEEEENS1_8write_opINS0_19basic_stream_socketINS0_2ip3tcpENS0_21stream_socket_serviceISF_EEEESA_NS1_14transfer_all_tESt5_BindIFSt7_Mem_fnIMNS7_19StreamTransportImplINS7_12TcpTransportESF_EEFvRKNS_6system10error_codeESt14_List_iteratorISA_EEESt10shared_ptrISO_ESt12_PlaceholderILi1EESU_EEEEE11do_completeEPNS1_15task_io_serviceEPNS1_25task_io_service_operationESS_m@Base 0.4.1
 _ZN5boost4asio6detail23reactive_socket_send_opINS1_17consuming_buffersINS0_12const_bufferENSt7__cxx114listIN3ndn5BlockESaIS8_EEEEENS1_8write_opINS0_19basic_stream_socketINS0_5local15stream_protocolENS0_21stream_socket_serviceISF_EEEESA_NS1_14transfer_all_tESt5_BindIFSt7_Mem_fnIMNS7_19StreamTransportImplINS7_13UnixTransportESF_EEFvRKNS_6system10error_codeESt14_List_iteratorISA_EEESt10shared_ptrISO_ESt12_PlaceholderILi1EESU_EEEEE11do_completeEPNS1_15task_io_serviceEPNS1_25task_io_service_operationESS_m@Base 0.4.1
 _ZN5boost4asio6detail26eventfd_select_interrupter16open_descriptorsEv@Base 0.4.1
 _ZN5boost4asio6detail26reactive_socket_connect_opISt5_BindIFSt7_Mem_fnIMN3ndn19StreamTransportImplINS5_12TcpTransportENS0_2ip3tcpEEEFvRKNS_6system10error_codeEEESt10shared_ptrISA_ESt12_PlaceholderILi1EEEEE11do_completeEPNS1_15task_io_serviceEPNS1_25task_io_service_operationESE_m@Base 0.4.1
 _ZN5boost4asio6detail26reactive_socket_connect_opISt5_BindIFSt7_Mem_fnIMN3ndn19StreamTransportImplINS5_13UnixTransportENS0_5local15stream_protocolEEEFvRKNS_6system10error_codeEEESt10shared_ptrISA_ESt12_PlaceholderILi1EEEEE11do_completeEPNS1_15task_io_serviceEPNS1_25task_io_service_operationESE_m@Base 0.4.1
 _ZN5boost4asio6detail27reactive_descriptor_service7destroyERNS2_19implementation_typeE@Base 0.4.1
 _ZN5boost4asio6detail27task_io_service_thread_infoD1Ev@Base 0.4.1
 _ZN5boost4asio6detail27task_io_service_thread_infoD2Ev@Base 0.4.1
 _ZN5boost4asio6detail28reactive_socket_recv_op_baseINS0_17mutable_buffers_1EE10do_performEPNS1_10reactor_opE@Base 0.4.1
 _ZN5boost4asio6detail28reactive_socket_send_op_baseINS1_17consuming_buffersINS0_12const_bufferENSt7__cxx114listIN3ndn5BlockESaIS8_EEEEEE10do_performEPNS1_10reactor_opE@Base 0.4.1
 _ZN5boost4asio6detail28reactive_socket_service_base7do_openERNS2_24base_implementation_typeEiiiRNS_6system10error_codeE@Base 0.4.1
 _ZN5boost4asio6detail31reactive_socket_connect_op_base10do_performEPNS1_10reactor_opE@Base 0.4.1
 _ZN5boost4asio6detail7binder2ISt5_BindIFSt7_Mem_fnIMN3ndn3dns8ResolverEFvRKNS_6system10error_codeENS0_2ip23basic_resolver_iteratorINSC_3udpEEERKSt10shared_ptrIS7_EEEPS7_St12_PlaceholderILi1EESO_ILi2EESH_EES9_SF_ED1Ev@Base 0.4.1
 _ZN5boost4asio6detail7binder2ISt5_BindIFSt7_Mem_fnIMN3ndn3dns8ResolverEFvRKNS_6system10error_codeENS0_2ip23basic_resolver_iteratorINSC_3udpEEERKSt10shared_ptrIS7_EEEPS7_St12_PlaceholderILi1EESO_ILi2EESH_EES9_SF_ED2Ev@Base 0.4.1
 _ZN5boost4asio6detail7tss_ptrINS1_10call_stackINS1_14strand_service11strand_implEhE7contextEED1Ev@Base 0.4.1
 _ZN5boost4asio6detail7tss_ptrINS1_10call_stackINS1_14strand_service11strand_implEhE7contextEED2Ev@Base 0.4.1
 _ZN5boost4asio6detail7tss_ptrINS1_10call_stackINS1_15task_io_serviceENS1_27task_io_service_thread_infoEE7contextEED1Ev@Base 0.4.1
 _ZN5boost4asio6detail7tss_ptrINS1_10call_stackINS1_15task_io_serviceENS1_27task_io_service_thread_infoEE7contextEED2Ev@Base 0.4.1
 _ZN5boost4asio6detail8op_queueINS1_25task_io_service_operationEED1Ev@Base 0.4.1
 _ZN5boost4asio6detail8op_queueINS1_25task_io_service_operationEED2Ev@Base 0.4.1
 _ZN5boost4asio6detail8write_opINS0_19basic_stream_socketINS0_2ip3tcpENS0_21stream_socket_serviceIS5_EEEENSt7__cxx114listIN3ndn5BlockESaISC_EEENS1_14transfer_all_tESt5_BindIFSt7_Mem_fnIMNSB_19StreamTransportImplINSB_12TcpTransportES5_EEFvRKNS_6system10error_codeESt14_List_iteratorISE_EEESt10shared_ptrISK_ESt12_PlaceholderILi1EESQ_EEED1Ev@Base 0.4.1
 _ZN5boost4asio6detail8write_opINS0_19basic_stream_socketINS0_2ip3tcpENS0_21stream_socket_serviceIS5_EEEENSt7__cxx114listIN3ndn5BlockESaISC_EEENS1_14transfer_all_tESt5_BindIFSt7_Mem_fnIMNSB_19StreamTransportImplINSB_12TcpTransportES5_EEFvRKNS_6system10error_codeESt14_List_iteratorISE_EEESt10shared_ptrISK_ESt12_PlaceholderILi1EESQ_EEED2Ev@Base 0.4.1
 _ZN5boost4asio6detail8write_opINS0_19basic_stream_socketINS0_2ip3tcpENS0_21stream_socket_serviceIS5_EEEENSt7__cxx114listIN3ndn5BlockESaISC_EEENS1_14transfer_all_tESt5_BindIFSt7_Mem_fnIMNSB_19StreamTransportImplINSB_12TcpTransportES5_EEFvRKNS_6system10error_codeESt14_List_iteratorISE_EEESt10shared_ptrISK_ESt12_PlaceholderILi1EESQ_EEEclESO_mi@Base 0.4.1
 _ZN5boost4asio6detail8write_opINS0_19basic_stream_socketINS0_5local15stream_protocolENS0_21stream_socket_serviceIS5_EEEENSt7__cxx114listIN3ndn5BlockESaISC_EEENS1_14transfer_all_tESt5_BindIFSt7_Mem_fnIMNSB_19StreamTransportImplINSB_13UnixTransportES5_EEFvRKNS_6system10error_codeESt14_List_iteratorISE_EEESt10shared_ptrISK_ESt12_PlaceholderILi1EESQ_EEED1Ev@Base 0.4.1
 _ZN5boost4asio6detail8write_opINS0_19basic_stream_socketINS0_5local15stream_protocolENS0_21stream_socket_serviceIS5_EEEENSt7__cxx114listIN3ndn5BlockESaISC_EEENS1_14transfer_all_tESt5_BindIFSt7_Mem_fnIMNSB_19StreamTransportImplINSB_13UnixTransportES5_EEFvRKNS_6system10error_codeESt14_List_iteratorISE_EEESt10shared_ptrISK_ESt12_PlaceholderILi1EESQ_EEED2Ev@Base 0.4.1
 _ZN5boost4asio6detail8write_opINS0_19basic_stream_socketINS0_5local15stream_protocolENS0_21stream_socket_serviceIS5_EEEENSt7__cxx114listIN3ndn5BlockESaISC_EEENS1_14transfer_all_tESt5_BindIFSt7_Mem_fnIMNSB_19StreamTransportImplINSB_13UnixTransportES5_EEFvRKNS_6system10error_codeESt14_List_iteratorISE_EEESt10shared_ptrISK_ESt12_PlaceholderILi1EESQ_EEEclESO_mi@Base 0.4.1
 _ZN5boost6chrono12clock_stringIN3ndn4time12steady_clockEcE5sinceB5cxx11Ev@Base 0.4.1
 _ZN5boost6chrono12clock_stringIN3ndn4time12system_clockEcE5sinceB5cxx11Ev@Base 0.4.1
 _ZN5boost6chrono14duration_punctIcE2idE@Base 0.4.1
 _ZN5boost6chrono14duration_punctIcE6init_CEv@Base 0.4.1
 _ZN5boost6chrono14duration_punctIcED0Ev@Base 0.4.1
 _ZN5boost6chrono14duration_punctIcED1Ev@Base 0.4.1
 _ZN5boost6chrono14duration_punctIcED2Ev@Base 0.4.1
 _ZN5boost6chronolsIcSt11char_traitsIcElNS_5ratioILl1ELl1000EEEEERSt13basic_ostreamIT_T0_ESA_RKNS0_8durationIT1_T2_EE@Base 0.4.1
 _ZN5boost6detail11thread_dataINS_3_bi6bind_tIvNS_4_mfi3mf0IvNS_3log11v2_mt_posix5sinks17asynchronous_sinkINS8_26basic_text_ostream_backendIcEENS8_20unbounded_fifo_queueEEEEENS2_5list1INS2_5valueIPSD_EEEEEEE3runEv@Base 0.4.1
 _ZN5boost6detail11thread_dataINS_3_bi6bind_tIvNS_4_mfi3mf0IvNS_3log11v2_mt_posix5sinks17asynchronous_sinkINS8_26basic_text_ostream_backendIcEENS8_20unbounded_fifo_queueEEEEENS2_5list1INS2_5valueIPSD_EEEEEEED0Ev@Base 0.4.1
 _ZN5boost6detail11thread_dataINS_3_bi6bind_tIvNS_4_mfi3mf0IvNS_3log11v2_mt_posix5sinks17asynchronous_sinkINS8_26basic_text_ostream_backendIcEENS8_20unbounded_fifo_queueEEEEENS2_5list1INS2_5valueIPSD_EEEEEEED1Ev@Base 0.4.1
 _ZN5boost6detail11thread_dataINS_3_bi6bind_tIvNS_4_mfi3mf0IvNS_3log11v2_mt_posix5sinks17asynchronous_sinkINS8_26basic_text_ostream_backendIcEENS8_20unbounded_fifo_queueEEEEENS2_5list1INS2_5valueIPSD_EEEEEEED2Ev@Base 0.4.1
 _ZN5boost6detail15sp_counted_base7destroyEv@Base 0.4.1
 _ZN5boost6detail16thread_data_base25notify_all_at_thread_exitEPNS_18condition_variableEPNS_5mutexE@Base 0.4.1
 _ZN5boost6detail17sp_counted_impl_pINS0_11thread_dataINS_3_bi6bind_tIvNS_4_mfi3mf0IvNS_3log11v2_mt_posix5sinks17asynchronous_sinkINS9_26basic_text_ostream_backendIcEENS9_20unbounded_fifo_queueEEEEENS3_5list1INS3_5valueIPSE_EEEEEEEEE11get_deleterERKSt9type_info@Base 0.4.1
 _ZN5boost6detail17sp_counted_impl_pINS0_11thread_dataINS_3_bi6bind_tIvNS_4_mfi3mf0IvNS_3log11v2_mt_posix5sinks17asynchronous_sinkINS9_26basic_text_ostream_backendIcEENS9_20unbounded_fifo_queueEEEEENS3_5list1INS3_5valueIPSE_EEEEEEEEE19get_untyped_deleterEv@Base 0.4.1
 _ZN5boost6detail17sp_counted_impl_pINS0_11thread_dataINS_3_bi6bind_tIvNS_4_mfi3mf0IvNS_3log11v2_mt_posix5sinks17asynchronous_sinkINS9_26basic_text_ostream_backendIcEENS9_20unbounded_fifo_queueEEEEENS3_5list1INS3_5valueIPSE_EEEEEEEEE7disposeEv@Base 0.4.1
 _ZN5boost6detail17sp_counted_impl_pINS0_11thread_dataINS_3_bi6bind_tIvNS_4_mfi3mf0IvNS_3log11v2_mt_posix5sinks17asynchronous_sinkINS9_26basic_text_ostream_backendIcEENS9_20unbounded_fifo_queueEEEEENS3_5list1INS3_5valueIPSE_EEEEEEEEED0Ev@Base 0.4.1
 _ZN5boost6detail17sp_counted_impl_pINS0_11thread_dataINS_3_bi6bind_tIvNS_4_mfi3mf0IvNS_3log11v2_mt_posix5sinks17asynchronous_sinkINS9_26basic_text_ostream_backendIcEENS9_20unbounded_fifo_queueEEEEENS3_5list1INS3_5valueIPSE_EEEEEEEEED1Ev@Base 0.4.1
 _ZN5boost6detail17sp_counted_impl_pINS0_11thread_dataINS_3_bi6bind_tIvNS_4_mfi3mf0IvNS_3log11v2_mt_posix5sinks17asynchronous_sinkINS9_26basic_text_ostream_backendIcEENS9_20unbounded_fifo_queueEEEEENS3_5list1INS3_5valueIPSE_EEEEEEEEED2Ev@Base 0.4.1
 _ZN5boost6detail17sp_counted_impl_pINS_10filesystem6detail11dir_itr_impEE11get_deleterERKSt9type_info@Base 0.4.1
 _ZN5boost6detail17sp_counted_impl_pINS_10filesystem6detail11dir_itr_impEE19get_untyped_deleterEv@Base 0.4.1
 _ZN5boost6detail17sp_counted_impl_pINS_10filesystem6detail11dir_itr_impEE7disposeEv@Base 0.4.1
 _ZN5boost6detail17sp_counted_impl_pINS_10filesystem6detail11dir_itr_impEED0Ev@Base 0.4.1
 _ZN5boost6detail17sp_counted_impl_pINS_10filesystem6detail11dir_itr_impEED1Ev@Base 0.4.1
 _ZN5boost6detail17sp_counted_impl_pINS_10filesystem6detail11dir_itr_impEED2Ev@Base 0.4.1
 _ZN5boost6detail18lcast_ret_unsignedISt11char_traitsIcEjcE22main_convert_iterationEv@Base 0.4.1
 _ZN5boost6detail18lcast_ret_unsignedISt11char_traitsIcEjcE7convertEv@Base 0.4.1
 _ZN5boost6detail18lcast_ret_unsignedISt11char_traitsIcEmcE22main_convert_iterationEv@Base 0.4.1
 _ZN5boost6detail18lcast_ret_unsignedISt11char_traitsIcEtcE22main_convert_iterationEv@Base 0.4.1
 _ZN5boost6detail18lcast_ret_unsignedISt11char_traitsIcEtcE7convertEv@Base 0.4.1
 _ZN5boost6detail18sp_counted_impl_pdIPNS_19thread_specific_ptrINS_3log11v2_mt_posix5sinks30basic_formatting_sink_frontendIcE18formatting_contextEE11delete_dataENS0_14do_heap_deleteISA_EEE11get_deleterERKSt9type_info@Base 0.4.1
 _ZN5boost6detail18sp_counted_impl_pdIPNS_19thread_specific_ptrINS_3log11v2_mt_posix5sinks30basic_formatting_sink_frontendIcE18formatting_contextEE11delete_dataENS0_14do_heap_deleteISA_EEE19get_untyped_deleterEv@Base 0.4.1
 _ZN5boost6detail18sp_counted_impl_pdIPNS_19thread_specific_ptrINS_3log11v2_mt_posix5sinks30basic_formatting_sink_frontendIcE18formatting_contextEE11delete_dataENS0_14do_heap_deleteISA_EEE7disposeEv@Base 0.4.1
 _ZN5boost6detail18sp_counted_impl_pdIPNS_19thread_specific_ptrINS_3log11v2_mt_posix5sinks30basic_formatting_sink_frontendIcE18formatting_contextEE11delete_dataENS0_14do_heap_deleteISA_EEED0Ev@Base 0.4.1
 _ZN5boost6detail18sp_counted_impl_pdIPNS_19thread_specific_ptrINS_3log11v2_mt_posix5sinks30basic_formatting_sink_frontendIcE18formatting_contextEE11delete_dataENS0_14do_heap_deleteISA_EEED1Ev@Base 0.4.1
 _ZN5boost6detail18sp_counted_impl_pdIPNS_19thread_specific_ptrINS_3log11v2_mt_posix5sinks30basic_formatting_sink_frontendIcE18formatting_contextEE11delete_dataENS0_14do_heap_deleteISA_EEED2Ev@Base 0.4.1
 _ZN5boost6detail18sp_counted_impl_pdIPNS_3log11v2_mt_posix5sinks17asynchronous_sinkINS4_26basic_text_ostream_backendIcEENS4_20unbounded_fifo_queueEEENS0_13sp_ms_deleterIS9_EEE11get_deleterERKSt9type_info@Base 0.4.1
 _ZN5boost6detail18sp_counted_impl_pdIPNS_3log11v2_mt_posix5sinks17asynchronous_sinkINS4_26basic_text_ostream_backendIcEENS4_20unbounded_fifo_queueEEENS0_13sp_ms_deleterIS9_EEE19get_untyped_deleterEv@Base 0.4.1
 _ZN5boost6detail18sp_counted_impl_pdIPNS_3log11v2_mt_posix5sinks17asynchronous_sinkINS4_26basic_text_ostream_backendIcEENS4_20unbounded_fifo_queueEEENS0_13sp_ms_deleterIS9_EEE7disposeEv@Base 0.4.1
 _ZN5boost6detail18sp_counted_impl_pdIPNS_3log11v2_mt_posix5sinks17asynchronous_sinkINS4_26basic_text_ostream_backendIcEENS4_20unbounded_fifo_queueEEENS0_13sp_ms_deleterIS9_EEED0Ev@Base 0.4.1
 _ZN5boost6detail18sp_counted_impl_pdIPNS_3log11v2_mt_posix5sinks17asynchronous_sinkINS4_26basic_text_ostream_backendIcEENS4_20unbounded_fifo_queueEEENS0_13sp_ms_deleterIS9_EEED1Ev@Base 0.4.1
 _ZN5boost6detail18sp_counted_impl_pdIPNS_3log11v2_mt_posix5sinks17asynchronous_sinkINS4_26basic_text_ostream_backendIcEENS4_20unbounded_fifo_queueEEENS0_13sp_ms_deleterIS9_EEED2Ev@Base 0.4.1
 _ZN5boost6detail18sp_counted_impl_pdIPNS_3log11v2_mt_posix5sinks26basic_text_ostream_backendIcEENS0_13sp_ms_deleterIS6_EEE11get_deleterERKSt9type_info@Base 0.4.1
 _ZN5boost6detail18sp_counted_impl_pdIPNS_3log11v2_mt_posix5sinks26basic_text_ostream_backendIcEENS0_13sp_ms_deleterIS6_EEE19get_untyped_deleterEv@Base 0.4.1
 _ZN5boost6detail18sp_counted_impl_pdIPNS_3log11v2_mt_posix5sinks26basic_text_ostream_backendIcEENS0_13sp_ms_deleterIS6_EEE7disposeEv@Base 0.4.1
 _ZN5boost6detail18sp_counted_impl_pdIPNS_3log11v2_mt_posix5sinks26basic_text_ostream_backendIcEENS0_13sp_ms_deleterIS6_EEED0Ev@Base 0.4.1
 _ZN5boost6detail18sp_counted_impl_pdIPNS_3log11v2_mt_posix5sinks26basic_text_ostream_backendIcEENS0_13sp_ms_deleterIS6_EEED1Ev@Base 0.4.1
 _ZN5boost6detail18sp_counted_impl_pdIPNS_3log11v2_mt_posix5sinks26basic_text_ostream_backendIcEENS0_13sp_ms_deleterIS6_EEED2Ev@Base 0.4.1
 _ZN5boost6detail20interruption_checkerD1Ev@Base 0.4.1
 _ZN5boost6detail20interruption_checkerD2Ev@Base 0.4.1
 _ZN5boost6detail22lexical_converter_implINSt7__cxx1112basic_stringIcSt11char_traitsIcESaIcEEEN3ndn15DigestAlgorithmEE11try_convertERKS9_RS7_@Base 0.4.1
 _ZN5boost6detail22lexical_converter_implINSt7__cxx1112basic_stringIcSt11char_traitsIcESaIcEEEN3ndn20BlockCipherAlgorithmEE11try_convertERKS9_RS7_@Base 0.4.1
 _ZN5boost6detail8function15functor_managerINS_9algorithm6detail13token_finderFINS4_10is_any_ofFIcEEEEE6manageERKNS1_15function_bufferERSA_NS1_30functor_manager_operation_typeE@Base 0.4.1
 _ZN5boost6detail8function16has_empty_targetEz@Base 0.4.1
 _ZN5boost6detail8function21function_obj_invoker2INS_9algorithm6detail13token_finderFINS4_10is_any_ofFIcEEEENS_14iterator_rangeIN9__gnu_cxx17__normal_iteratorIPKcNSt7__cxx1112basic_stringIcSt11char_traitsIcESaIcEEEEEEESK_SK_E6invokeERNS1_15function_bufferESK_SK_@Base 0.4.1
 _ZN5boost6system10error_code21unspecified_bool_trueEv@Base 0.4.1
 _ZN5boost6system12system_errorC1ERKS1_@Base 0.4.1
 _ZN5boost6system12system_errorC2ERKS1_@Base 0.4.1
 _ZN5boost6system12system_errorD0Ev@Base 0.4.1
 _ZN5boost6system12system_errorD1Ev@Base 0.4.1
 _ZN5boost6system12system_errorD2Ev@Base 0.4.1
 _ZN5boost6systemeqERKNS0_10error_codeERKNS0_15error_conditionE@Base 0.4.1
 _ZN5boost6threadD1Ev@Base 0.4.1
 _ZN5boost6threadD2Ev@Base 0.4.1
 _ZN5boost9algorithm10iter_splitISt6vectorINS_14iterator_rangeIN9__gnu_cxx17__normal_iteratorIPKcNSt7__cxx1112basic_stringIcSt11char_traitsIcESaIcEEEEEEESaISF_EEKSD_NS0_6detail13token_finderFINSJ_10is_any_ofFIcEEEEEERT_SP_RT0_T1_@Base 0.4.1
 _ZN5boost9algorithm11replace_allINSt7__cxx1112basic_stringIcSt11char_traitsIcESaIcEEEA3_cS7_EEvRT_RKT0_RKT1_@Base 0.4.1
 _ZN5boost9algorithm6detail10is_any_ofFIcED1Ev@Base 0.4.1
 _ZN5boost9algorithm6detail10is_any_ofFIcED2Ev@Base 0.4.1
 _ZN5boost9algorithm6detail21find_format_all_impl2INSt7__cxx1112basic_stringIcSt11char_traitsIcESaIcEEENS1_13first_finderFIN9__gnu_cxx17__normal_iteratorIPKcS8_EENS0_8is_equalEEENS1_13empty_formatFIcEENS_14iterator_rangeINSB_IPcS8_EEEENS1_15empty_containerIcEEEEvRT_T0_T1_T2_T3_@Base 0.4.1
 _ZN5boost9algorithm6detail21find_format_all_impl2INSt7__cxx1112basic_stringIcSt11char_traitsIcESaIcEEENS1_13first_finderFIPKcNS0_8is_equalEEENS1_13const_formatFINS_14iterator_rangeIN9__gnu_cxx17__normal_iteratorISB_S8_EEEEEENSF_INSH_IPcS8_EEEESJ_EEvRT_T0_T1_T2_T3_@Base 0.4.1
 _ZN5boost9algorithm6detail21find_format_all_impl2INSt7__cxx1112basic_stringIcSt11char_traitsIcESaIcEEENS1_13first_finderFIPKcNS0_8is_equalEEENS1_13const_formatFINS_14iterator_rangeISB_EEEENSF_IN9__gnu_cxx17__normal_iteratorIPcS8_EEEESG_EEvRT_T0_T1_T2_T3_@Base 0.4.1
 _ZN5boost9algorithm6detail21find_format_all_impl2INSt7__cxx1112basic_stringIcSt11char_traitsIcESaIcEEENS1_13first_finderFIPKcNS0_8is_equalEEENS1_13empty_formatFIcEENS_14iterator_rangeIN9__gnu_cxx17__normal_iteratorIPcS8_EEEENS1_15empty_containerIcEEEEvRT_T0_T1_T2_T3_@Base 0.4.1
 _ZN5boost9algorithm6detail22process_segment_helperILb0EEclISt5dequeIcSaIcEENSt7__cxx1112basic_stringIcSt11char_traitsIcES6_EEN9__gnu_cxx17__normal_iteratorIPcSC_EEEET1_RT_RT0_SH_SH_SH_@Base 0.4.1
 _ZN5boost9algorithm6detail6insertINSt7__cxx1112basic_stringIcSt11char_traitsIcESaIcEEESt15_Deque_iteratorIcRcPcEEEvRT_NSD_8iteratorET0_SG_@Base 0.4.1
 _ZN5boost9algorithm6equalsINSt7__cxx1112basic_stringIcSt11char_traitsIcESaIcEEEA4_cNS0_9is_iequalEEEbRKT_RKT0_T1_@Base 0.4.1
 _ZN5boost9algorithm7iequalsINSt7__cxx1112basic_stringIcSt11char_traitsIcESaIcEEEA13_cEEbRKT_RKT0_RKSt6locale@Base 0.4.1
 _ZN5boost9algorithm7iequalsINSt7__cxx1112basic_stringIcSt11char_traitsIcESaIcEEEA20_cEEbRKT_RKT0_RKSt6locale@Base 0.4.1
 _ZN5boost9algorithm7iequalsINSt7__cxx1112basic_stringIcSt11char_traitsIcESaIcEEEA4_cEEbRKT_RKT0_RKSt6locale@Base 0.4.1
 _ZN5boost9algorithm7iequalsINSt7__cxx1112basic_stringIcSt11char_traitsIcESaIcEEEA5_cEEbRKT_RKT0_RKSt6locale@Base 0.4.1
 _ZN5boost9algorithm7iequalsINSt7__cxx1112basic_stringIcSt11char_traitsIcESaIcEEEA6_cEEbRKT_RKT0_RKSt6locale@Base 0.4.1
 _ZN5boost9algorithm7iequalsINSt7__cxx1112basic_stringIcSt11char_traitsIcESaIcEEEA8_cEEbRKT_RKT0_RKSt6locale@Base 0.4.1
 _ZN5boost9algorithm7iequalsINSt7__cxx1112basic_stringIcSt11char_traitsIcESaIcEEEA9_cEEbRKT_RKT0_RKSt6locale@Base 0.4.1
 _ZN5boost9date_time10date_facetINS_9gregorian4dateEcSt19ostreambuf_iteratorIcSt11char_traitsIcEEE14set_iso_formatEv@Base 0.4.1
 _ZN5boost9date_time10date_facetINS_9gregorian4dateEcSt19ostreambuf_iteratorIcSt11char_traitsIcEEE17long_month_formatE@Base 0.4.1
 _ZN5boost9date_time10date_facetINS_9gregorian4dateEcSt19ostreambuf_iteratorIcSt11char_traitsIcEEE18short_month_formatE@Base 0.4.1
 _ZN5boost9date_time10date_facetINS_9gregorian4dateEcSt19ostreambuf_iteratorIcSt11char_traitsIcEEE19long_weekday_formatE@Base 0.4.1
 _ZN5boost9date_time10date_facetINS_9gregorian4dateEcSt19ostreambuf_iteratorIcSt11char_traitsIcEEE20iso_format_specifierE@Base 0.4.1
 _ZN5boost9date_time10date_facetINS_9gregorian4dateEcSt19ostreambuf_iteratorIcSt11char_traitsIcEEE20short_weekday_formatE@Base 0.4.1
 _ZN5boost9date_time10date_facetINS_9gregorian4dateEcSt19ostreambuf_iteratorIcSt11char_traitsIcEEE23set_iso_extended_formatEv@Base 0.4.1
 _ZN5boost9date_time10date_facetINS_9gregorian4dateEcSt19ostreambuf_iteratorIcSt11char_traitsIcEEE29iso_format_extended_specifierE@Base 0.4.1
 _ZN5boost9date_time10date_facetINS_9gregorian4dateEcSt19ostreambuf_iteratorIcSt11char_traitsIcEEEC1EPKcNS0_16period_formatterIcS7_EENS0_24special_values_formatterIcS7_EENS0_24date_generator_formatterIS3_cS7_EEm@Base 0.4.1
 _ZN5boost9date_time10date_facetINS_9gregorian4dateEcSt19ostreambuf_iteratorIcSt11char_traitsIcEEEC2EPKcNS0_16period_formatterIcS7_EENS0_24special_values_formatterIcS7_EENS0_24date_generator_formatterIS3_cS7_EEm@Base 0.4.1
 _ZN5boost9date_time10date_facetINS_9gregorian4dateEcSt19ostreambuf_iteratorIcSt11char_traitsIcEEED0Ev@Base 0.4.1
 _ZN5boost9date_time10date_facetINS_9gregorian4dateEcSt19ostreambuf_iteratorIcSt11char_traitsIcEEED1Ev@Base 0.4.1
 _ZN5boost9date_time10date_facetINS_9gregorian4dateEcSt19ostreambuf_iteratorIcSt11char_traitsIcEEED2Ev@Base 0.4.1
 _ZN5boost9date_time10time_facetINS_10posix_time5ptimeEcSt19ostreambuf_iteratorIcSt11char_traitsIcEEE14seconds_formatE@Base 0.4.1
 _ZN5boost9date_time10time_facetINS_10posix_time5ptimeEcSt19ostreambuf_iteratorIcSt11char_traitsIcEEE14set_iso_formatEv@Base 0.4.1
 _ZN5boost9date_time10time_facetINS_10posix_time5ptimeEcSt19ostreambuf_iteratorIcSt11char_traitsIcEEE15zone_iso_formatE@Base 0.4.1
 _ZN5boost9date_time10time_facetINS_10posix_time5ptimeEcSt19ostreambuf_iteratorIcSt11char_traitsIcEEE16zone_name_formatE@Base 0.4.1
 _ZN5boost9date_time10time_facetINS_10posix_time5ptimeEcSt19ostreambuf_iteratorIcSt11char_traitsIcEEE18zone_abbrev_formatE@Base 0.4.1
 _ZN5boost9date_time10time_facetINS_10posix_time5ptimeEcSt19ostreambuf_iteratorIcSt11char_traitsIcEEE19default_time_formatE@Base 0.4.1
 _ZN5boost9date_time10time_facetINS_10posix_time5ptimeEcSt19ostreambuf_iteratorIcSt11char_traitsIcEEE23set_iso_extended_formatEv@Base 0.4.1
 _ZN5boost9date_time10time_facetINS_10posix_time5ptimeEcSt19ostreambuf_iteratorIcSt11char_traitsIcEEE24posix_zone_string_formatE@Base 0.4.1
 _ZN5boost9date_time10time_facetINS_10posix_time5ptimeEcSt19ostreambuf_iteratorIcSt11char_traitsIcEEE24zone_iso_extended_formatE@Base 0.4.1
 _ZN5boost9date_time10time_facetINS_10posix_time5ptimeEcSt19ostreambuf_iteratorIcSt11char_traitsIcEEE25fractional_seconds_formatE@Base 0.4.1
 _ZN5boost9date_time10time_facetINS_10posix_time5ptimeEcSt19ostreambuf_iteratorIcSt11char_traitsIcEEE25iso_time_format_specifierE@Base 0.4.1
 _ZN5boost9date_time10time_facetINS_10posix_time5ptimeEcSt19ostreambuf_iteratorIcSt11char_traitsIcEEE27duration_sign_negative_onlyE@Base 0.4.1
 _ZN5boost9date_time10time_facetINS_10posix_time5ptimeEcSt19ostreambuf_iteratorIcSt11char_traitsIcEEE28default_time_duration_formatE@Base 0.4.1
 _ZN5boost9date_time10time_facetINS_10posix_time5ptimeEcSt19ostreambuf_iteratorIcSt11char_traitsIcEEE2idE@Base 0.4.1
 _ZN5boost9date_time10time_facetINS_10posix_time5ptimeEcSt19ostreambuf_iteratorIcSt11char_traitsIcEEE33fractional_seconds_or_none_formatE@Base 0.4.1
 _ZN5boost9date_time10time_facetINS_10posix_time5ptimeEcSt19ostreambuf_iteratorIcSt11char_traitsIcEEE34iso_time_format_extended_specifierE@Base 0.4.1
 _ZN5boost9date_time10time_facetINS_10posix_time5ptimeEcSt19ostreambuf_iteratorIcSt11char_traitsIcEEE38seconds_with_fractional_seconds_formatE@Base 0.4.1
 _ZN5boost9date_time10time_facetINS_10posix_time5ptimeEcSt19ostreambuf_iteratorIcSt11char_traitsIcEEEC1Em@Base 0.4.1
 _ZN5boost9date_time10time_facetINS_10posix_time5ptimeEcSt19ostreambuf_iteratorIcSt11char_traitsIcEEEC2Em@Base 0.4.1
 _ZN5boost9date_time10time_facetINS_10posix_time5ptimeEcSt19ostreambuf_iteratorIcSt11char_traitsIcEEED0Ev@Base 0.4.1
 _ZN5boost9date_time10time_facetINS_10posix_time5ptimeEcSt19ostreambuf_iteratorIcSt11char_traitsIcEEED1Ev@Base 0.4.1
 _ZN5boost9date_time10time_facetINS_10posix_time5ptimeEcSt19ostreambuf_iteratorIcSt11char_traitsIcEEED2Ev@Base 0.4.1
 _ZN5boost9date_time12time_formatsIcE14seconds_formatE@Base 0.4.1
 _ZN5boost9date_time12time_formatsIcE15zone_iso_formatE@Base 0.4.1
 _ZN5boost9date_time12time_formatsIcE16zone_name_formatE@Base 0.4.1
 _ZN5boost9date_time12time_formatsIcE18zone_abbrev_formatE@Base 0.4.1
 _ZN5boost9date_time12time_formatsIcE19default_time_formatE@Base 0.4.1
 _ZN5boost9date_time12time_formatsIcE24full_24_hour_time_formatE@Base 0.4.1
 _ZN5boost9date_time12time_formatsIcE24posix_zone_string_formatE@Base 0.4.1
 _ZN5boost9date_time12time_formatsIcE24zone_iso_extended_formatE@Base 0.4.1
 _ZN5boost9date_time12time_formatsIcE25default_time_input_formatE@Base 0.4.1
 _ZN5boost9date_time12time_formatsIcE25fractional_seconds_formatE@Base 0.4.1
 _ZN5boost9date_time12time_formatsIcE25iso_time_format_specifierE@Base 0.4.1
 _ZN5boost9date_time12time_formatsIcE25short_24_hour_time_formatE@Base 0.4.1
 _ZN5boost9date_time12time_formatsIcE27duration_sign_negative_onlyE@Base 0.4.1
 _ZN5boost9date_time12time_formatsIcE28default_time_duration_formatE@Base 0.4.1
 _ZN5boost9date_time12time_formatsIcE33fractional_seconds_or_none_formatE@Base 0.4.1
 _ZN5boost9date_time12time_formatsIcE33full_24_hour_time_expanded_formatE@Base 0.4.1
 _ZN5boost9date_time12time_formatsIcE34iso_time_format_extended_specifierE@Base 0.4.1
 _ZN5boost9date_time12time_formatsIcE34short_24_hour_time_expanded_formatE@Base 0.4.1
 _ZN5boost9date_time12time_formatsIcE38seconds_with_fractional_seconds_formatE@Base 0.4.1
 _ZN5boost9date_time13period_parserINS_9gregorian4dateEcE24default_period_separatorE@Base 0.4.1
 _ZN5boost9date_time13period_parserINS_9gregorian4dateEcE30default_period_start_delimeterE@Base 0.4.1
 _ZN5boost9date_time13period_parserINS_9gregorian4dateEcE39default_period_open_range_end_delimeterE@Base 0.4.1
 _ZN5boost9date_time13period_parserINS_9gregorian4dateEcE41default_period_closed_range_end_delimeterE@Base 0.4.1
 _ZN5boost9date_time14microsec_clockINS_10posix_time5ptimeEE11create_timeEPFP2tmPKlS6_E@Base 0.4.1
 _ZN5boost9date_time16counted_time_repINS_10posix_time33millisec_posix_time_system_configEEC1ERKNS_9gregorian4dateERKNS2_13time_durationE@Base 0.4.1
 _ZN5boost9date_time16counted_time_repINS_10posix_time33millisec_posix_time_system_configEEC2ERKNS_9gregorian4dateERKNS2_13time_durationE@Base 0.4.1
 _ZN5boost9date_time16date_input_facetINS_9gregorian4dateEcSt19istreambuf_iteratorIcSt11char_traitsIcEEE14set_iso_formatEv@Base 0.4.1
 _ZN5boost9date_time16date_input_facetINS_9gregorian4dateEcSt19istreambuf_iteratorIcSt11char_traitsIcEEE18short_month_formatE@Base 0.4.1
 _ZN5boost9date_time16date_input_facetINS_9gregorian4dateEcSt19istreambuf_iteratorIcSt11char_traitsIcEEE20iso_format_specifierE@Base 0.4.1
 _ZN5boost9date_time16date_input_facetINS_9gregorian4dateEcSt19istreambuf_iteratorIcSt11char_traitsIcEEE20short_weekday_formatE@Base 0.4.1
 _ZN5boost9date_time16date_input_facetINS_9gregorian4dateEcSt19istreambuf_iteratorIcSt11char_traitsIcEEE22four_digit_year_formatE@Base 0.4.1
 _ZN5boost9date_time16date_input_facetINS_9gregorian4dateEcSt19istreambuf_iteratorIcSt11char_traitsIcEEE23set_iso_extended_formatEv@Base 0.4.1
 _ZN5boost9date_time16date_input_facetINS_9gregorian4dateEcSt19istreambuf_iteratorIcSt11char_traitsIcEEE29iso_format_extended_specifierE@Base 0.4.1
 _ZN5boost9date_time16date_input_facetINS_9gregorian4dateEcSt19istreambuf_iteratorIcSt11char_traitsIcEEEC1ERKNSt7__cxx1112basic_stringIcS6_SaIcEEEm@Base 0.4.1
 _ZN5boost9date_time16date_input_facetINS_9gregorian4dateEcSt19istreambuf_iteratorIcSt11char_traitsIcEEEC2ERKNSt7__cxx1112basic_stringIcS6_SaIcEEEm@Base 0.4.1
 _ZN5boost9date_time16date_input_facetINS_9gregorian4dateEcSt19istreambuf_iteratorIcSt11char_traitsIcEEED0Ev@Base 0.4.1
 _ZN5boost9date_time16date_input_facetINS_9gregorian4dateEcSt19istreambuf_iteratorIcSt11char_traitsIcEEED1Ev@Base 0.4.1
 _ZN5boost9date_time16date_input_facetINS_9gregorian4dateEcSt19istreambuf_iteratorIcSt11char_traitsIcEEED2Ev@Base 0.4.1
 _ZN5boost9date_time16period_formatterIcSt19ostreambuf_iteratorIcSt11char_traitsIcEEE24default_period_separatorE@Base 0.4.1
 _ZN5boost9date_time16period_formatterIcSt19ostreambuf_iteratorIcSt11char_traitsIcEEE30default_period_start_delimeterE@Base 0.4.1
 _ZN5boost9date_time16period_formatterIcSt19ostreambuf_iteratorIcSt11char_traitsIcEEE39default_period_open_range_end_delimeterE@Base 0.4.1
 _ZN5boost9date_time16period_formatterIcSt19ostreambuf_iteratorIcSt11char_traitsIcEEE41default_period_closed_range_end_delimeterE@Base 0.4.1
 _ZN5boost9date_time16period_formatterIcSt19ostreambuf_iteratorIcSt11char_traitsIcEEEC1ERKS6_@Base 0.4.1
 _ZN5boost9date_time16period_formatterIcSt19ostreambuf_iteratorIcSt11char_traitsIcEEEC2ERKS6_@Base 0.4.1
 _ZN5boost9date_time16period_formatterIcSt19ostreambuf_iteratorIcSt11char_traitsIcEEED1Ev@Base 0.4.1
 _ZN5boost9date_time16period_formatterIcSt19ostreambuf_iteratorIcSt11char_traitsIcEEED2Ev@Base 0.4.1
 _ZN5boost9date_time16time_input_facetINS_10posix_time5ptimeEcSt19istreambuf_iteratorIcSt11char_traitsIcEEE14set_iso_formatEv@Base 0.4.1
 _ZN5boost9date_time16time_input_facetINS_10posix_time5ptimeEcSt19istreambuf_iteratorIcSt11char_traitsIcEEE23set_iso_extended_formatEv@Base 0.4.1
 _ZN5boost9date_time16time_input_facetINS_10posix_time5ptimeEcSt19istreambuf_iteratorIcSt11char_traitsIcEEE25default_time_input_formatE@Base 0.4.1
 _ZN5boost9date_time16time_input_facetINS_10posix_time5ptimeEcSt19istreambuf_iteratorIcSt11char_traitsIcEEE25iso_time_format_specifierE@Base 0.4.1
 _ZN5boost9date_time16time_input_facetINS_10posix_time5ptimeEcSt19istreambuf_iteratorIcSt11char_traitsIcEEE28default_time_duration_formatE@Base 0.4.1
 _ZN5boost9date_time16time_input_facetINS_10posix_time5ptimeEcSt19istreambuf_iteratorIcSt11char_traitsIcEEE2idE@Base 0.4.1
 _ZN5boost9date_time16time_input_facetINS_10posix_time5ptimeEcSt19istreambuf_iteratorIcSt11char_traitsIcEEE34iso_time_format_extended_specifierE@Base 0.4.1
 _ZN5boost9date_time16time_input_facetINS_10posix_time5ptimeEcSt19istreambuf_iteratorIcSt11char_traitsIcEEED0Ev@Base 0.4.1
 _ZN5boost9date_time16time_input_facetINS_10posix_time5ptimeEcSt19istreambuf_iteratorIcSt11char_traitsIcEEED1Ev@Base 0.4.1
 _ZN5boost9date_time16time_input_facetINS_10posix_time5ptimeEcSt19istreambuf_iteratorIcSt11char_traitsIcEEED2Ev@Base 0.4.1
 _ZN5boost9date_time17string_parse_treeIcE6insertERKNSt7__cxx1112basic_stringIcSt11char_traitsIcESaIcEEEt@Base 0.4.1
 _ZN5boost9date_time17string_parse_treeIcEC1ESt6vectorINSt7__cxx1112basic_stringIcSt11char_traitsIcESaIcEEESaIS9_EEj@Base 0.4.1
 _ZN5boost9date_time17string_parse_treeIcEC2ESt6vectorINSt7__cxx1112basic_stringIcSt11char_traitsIcESaIcEEESaIS9_EEj@Base 0.4.1
 _ZN5boost9date_time17var_string_to_intIscEET_RSt19istreambuf_iteratorIT0_St11char_traitsIS4_EERKS7_j@Base 0.4.1
 _ZN5boost9date_time19counted_time_systemINS0_16counted_time_repINS_10posix_time33millisec_posix_time_system_configEEEE12get_time_repENS0_14special_valuesE@Base 0.4.1
 _ZN5boost9date_time19counted_time_systemINS0_16counted_time_repINS_10posix_time33millisec_posix_time_system_configEEEE14subtract_timesERKS5_S8_@Base 0.4.1
 _ZN5boost9date_time19counted_time_systemINS0_16counted_time_repINS_10posix_time33millisec_posix_time_system_configEEEE15get_time_of_dayERKS5_@Base 0.4.1
 _ZN5boost9date_time19fixed_string_to_intIicEET_RSt19istreambuf_iteratorIT0_St11char_traitsIS4_EES8_RNS0_18parse_match_resultIS4_EEjRKS4_@Base 0.4.1
 _ZN5boost9date_time19fixed_string_to_intIscEET_RSt19istreambuf_iteratorIT0_St11char_traitsIS4_EES8_RNS0_18parse_match_resultIS4_EEjRKS4_@Base 0.4.1
 _ZN5boost9date_time20gather_month_stringsIcEESt6vectorINSt7__cxx1112basic_stringIT_St11char_traitsIS5_ESaIS5_EEESaIS9_EERKSt6localeb@Base 0.4.1
 _ZN5boost9date_time21date_generator_parserINS_9gregorian4dateEcE11last_stringE@Base 0.4.1
 _ZN5boost9date_time21date_generator_parserINS_9gregorian4dateEcE12after_stringE@Base 0.4.1
 _ZN5boost9date_time21date_generator_parserINS_9gregorian4dateEcE12fifth_stringE@Base 0.4.1
 _ZN5boost9date_time21date_generator_parserINS_9gregorian4dateEcE12first_stringE@Base 0.4.1
 _ZN5boost9date_time21date_generator_parserINS_9gregorian4dateEcE12third_stringE@Base 0.4.1
 _ZN5boost9date_time21date_generator_parserINS_9gregorian4dateEcE13before_stringE@Base 0.4.1
 _ZN5boost9date_time21date_generator_parserINS_9gregorian4dateEcE13fourth_stringE@Base 0.4.1
 _ZN5boost9date_time21date_generator_parserINS_9gregorian4dateEcE13second_stringE@Base 0.4.1
 _ZN5boost9date_time21date_generator_parserINS_9gregorian4dateEcE9of_stringE@Base 0.4.1
 _ZN5boost9date_time21date_generator_parserINS_9gregorian4dateEcEC1Ev@Base 0.4.1
 _ZN5boost9date_time21date_generator_parserINS_9gregorian4dateEcEC2Ev@Base 0.4.1
 _ZN5boost9date_time21special_values_parserINS_9gregorian4dateEcE11nadt_stringE@Base 0.4.1
 _ZN5boost9date_time21special_values_parserINS_9gregorian4dateEcE14neg_inf_stringE@Base 0.4.1
 _ZN5boost9date_time21special_values_parserINS_9gregorian4dateEcE14pos_inf_stringE@Base 0.4.1
 _ZN5boost9date_time21special_values_parserINS_9gregorian4dateEcE20max_date_time_stringE@Base 0.4.1
 _ZN5boost9date_time21special_values_parserINS_9gregorian4dateEcE20min_date_time_stringE@Base 0.4.1
 _ZN5boost9date_time21special_values_parserINS_9gregorian4dateEcEC1Ev@Base 0.4.1
 _ZN5boost9date_time21special_values_parserINS_9gregorian4dateEcEC2Ev@Base 0.4.1
 _ZN5boost9date_time22gather_weekday_stringsIcEESt6vectorINSt7__cxx1112basic_stringIT_St11char_traitsIS5_ESaIS5_EEESaIS9_EERKSt6localeb@Base 0.4.1
 _ZN5boost9date_time22parse_undelimited_dateINS_9gregorian4dateEEET_RKNSt7__cxx1112basic_stringIcSt11char_traitsIcESaIcEEE@Base 0.4.1
 _ZN5boost9date_time22time_resolution_traitsINS0_37time_resolution_traits_adapted64_implELNS0_16time_resolutionsE5ELl1000000ELt6EiE13to_tick_countEiiil@Base 0.4.1
 _ZN5boost9date_time23gregorian_calendar_baseINS0_19year_month_day_baseINS_9gregorian9greg_yearENS3_10greg_monthENS3_8greg_dayEEEjE15from_day_numberEj@Base 0.4.1
 _ZN5boost9date_time24date_generator_formatterINS_9gregorian4dateEcSt19ostreambuf_iteratorIcSt11char_traitsIcEEE11last_stringE@Base 0.4.1
 _ZN5boost9date_time24date_generator_formatterINS_9gregorian4dateEcSt19ostreambuf_iteratorIcSt11char_traitsIcEEE12after_stringE@Base 0.4.1
 _ZN5boost9date_time24date_generator_formatterINS_9gregorian4dateEcSt19ostreambuf_iteratorIcSt11char_traitsIcEEE12fifth_stringE@Base 0.4.1
 _ZN5boost9date_time24date_generator_formatterINS_9gregorian4dateEcSt19ostreambuf_iteratorIcSt11char_traitsIcEEE12first_stringE@Base 0.4.1
 _ZN5boost9date_time24date_generator_formatterINS_9gregorian4dateEcSt19ostreambuf_iteratorIcSt11char_traitsIcEEE12third_stringE@Base 0.4.1
 _ZN5boost9date_time24date_generator_formatterINS_9gregorian4dateEcSt19ostreambuf_iteratorIcSt11char_traitsIcEEE13before_stringE@Base 0.4.1
 _ZN5boost9date_time24date_generator_formatterINS_9gregorian4dateEcSt19ostreambuf_iteratorIcSt11char_traitsIcEEE13fourth_stringE@Base 0.4.1
 _ZN5boost9date_time24date_generator_formatterINS_9gregorian4dateEcSt19ostreambuf_iteratorIcSt11char_traitsIcEEE13second_stringE@Base 0.4.1
 _ZN5boost9date_time24date_generator_formatterINS_9gregorian4dateEcSt19ostreambuf_iteratorIcSt11char_traitsIcEEE9of_stringE@Base 0.4.1
 _ZN5boost9date_time24date_generator_formatterINS_9gregorian4dateEcSt19ostreambuf_iteratorIcSt11char_traitsIcEEEC1Ev@Base 0.4.1
 _ZN5boost9date_time24date_generator_formatterINS_9gregorian4dateEcSt19ostreambuf_iteratorIcSt11char_traitsIcEEEC2Ev@Base 0.4.1
 _ZN5boost9date_time24special_values_formatterIcSt19ostreambuf_iteratorIcSt11char_traitsIcEEE27default_special_value_namesE@Base 0.4.1
 _ZN5boost9date_time31parse_undelimited_time_durationINS_10posix_time13time_durationEEET_RKNSt7__cxx1112basic_stringIcSt11char_traitsIcESaIcEEE@Base 0.4.1
 _ZN5boost9date_time6c_time6gmtimeEPKlP2tm@Base 0.4.1
 _ZN5boost9function0IvE5dummy7nonnullEv@Base 0.4.1
 _ZN5boost9gregorian11bad_weekdayD0Ev@Base 0.4.1
 _ZN5boost9gregorian11bad_weekdayD1Ev@Base 0.4.1
 _ZN5boost9gregorian11bad_weekdayD2Ev@Base 0.4.1
 _ZN5boost9gregorian15bad_day_of_yearD0Ev@Base 0.4.1
 _ZN5boost9gregorian15bad_day_of_yearD1Ev@Base 0.4.1
 _ZN5boost9gregorian15bad_day_of_yearD2Ev@Base 0.4.1
 _ZN5boost9gregorian16bad_day_of_monthD0Ev@Base 0.4.1
 _ZN5boost9gregorian16bad_day_of_monthD1Ev@Base 0.4.1
 _ZN5boost9gregorian16bad_day_of_monthD2Ev@Base 0.4.1
 _ZN5boost9gregorian4dateC1ENS0_9greg_yearENS0_10greg_monthENS0_8greg_dayE@Base 0.4.1
 _ZN5boost9gregorian4dateC1ENS_9date_time14special_valuesE@Base 0.4.1
 _ZN5boost9gregorian4dateC2ENS0_9greg_yearENS0_10greg_monthENS0_8greg_dayE@Base 0.4.1
 _ZN5boost9gregorian4dateC2ENS_9date_time14special_valuesE@Base 0.4.1
 _ZN5boost9gregorian5to_tmERKNS0_4dateE@Base 0.4.1
 _ZN5boost9gregorian8bad_yearD0Ev@Base 0.4.1
 _ZN5boost9gregorian8bad_yearD1Ev@Base 0.4.1
 _ZN5boost9gregorian8bad_yearD2Ev@Base 0.4.1
 _ZN5boost9gregorian9bad_monthD0Ev@Base 0.4.1
 _ZN5boost9gregorian9bad_monthD1Ev@Base 0.4.1
 _ZN5boost9gregorian9bad_monthD2Ev@Base 0.4.1
 _ZN5boost9iostreams13stream_bufferIN3ndn6detail18BufferAppendDeviceESt11char_traitsIcESaIcENS0_6outputEED0Ev@Base 0.4.1
 _ZN5boost9iostreams13stream_bufferIN3ndn6detail18BufferAppendDeviceESt11char_traitsIcESaIcENS0_6outputEED1Ev@Base 0.4.1
 _ZN5boost9iostreams13stream_bufferIN3ndn6detail18BufferAppendDeviceESt11char_traitsIcESaIcENS0_6outputEED2Ev@Base 0.4.1
 _ZN5boost9iostreams6detail11stream_baseIN3ndn6detail18BufferAppendDeviceESt11char_traitsIcESaIcESoED2Ev@Base 0.4.1
 _ZN5boost9iostreams6detail16linked_streambufIcSt11char_traitsIcEE5closeESt13_Ios_Openmode@Base 0.4.1
 _ZN5boost9iostreams6detail18indirect_streambufIN3ndn6detail18BufferAppendDeviceESt11char_traitsIcESaIcENS0_6outputEE10close_implESt13_Ios_Openmode@Base 0.4.1
 _ZN5boost9iostreams6detail18indirect_streambufIN3ndn6detail18BufferAppendDeviceESt11char_traitsIcESaIcENS0_6outputEE11strict_syncEv@Base 0.4.1
 _ZN5boost9iostreams6detail18indirect_streambufIN3ndn6detail18BufferAppendDeviceESt11char_traitsIcESaIcENS0_6outputEE13init_get_areaEv@Base 0.4.1
 _ZN5boost9iostreams6detail18indirect_streambufIN3ndn6detail18BufferAppendDeviceESt11char_traitsIcESaIcENS0_6outputEE13init_put_areaEv@Base 0.4.1
 _ZN5boost9iostreams6detail18indirect_streambufIN3ndn6detail18BufferAppendDeviceESt11char_traitsIcESaIcENS0_6outputEE14component_implEv@Base 0.4.1
 _ZN5boost9iostreams6detail18indirect_streambufIN3ndn6detail18BufferAppendDeviceESt11char_traitsIcESaIcENS0_6outputEE14set_auto_closeEb@Base 0.4.1
 _ZN5boost9iostreams6detail18indirect_streambufIN3ndn6detail18BufferAppendDeviceESt11char_traitsIcESaIcENS0_6outputEE4openERKS5_ll@Base 0.4.1
 _ZN5boost9iostreams6detail18indirect_streambufIN3ndn6detail18BufferAppendDeviceESt11char_traitsIcESaIcENS0_6outputEE4syncEv@Base 0.4.1
 _ZN5boost9iostreams6detail18indirect_streambufIN3ndn6detail18BufferAppendDeviceESt11char_traitsIcESaIcENS0_6outputEE5closeEv@Base 0.4.1
 _ZN5boost9iostreams6detail18indirect_streambufIN3ndn6detail18BufferAppendDeviceESt11char_traitsIcESaIcENS0_6outputEE5imbueERKSt6locale@Base 0.4.1
 _ZN5boost9iostreams6detail18indirect_streambufIN3ndn6detail18BufferAppendDeviceESt11char_traitsIcESaIcENS0_6outputEE7seekoffElSt12_Ios_SeekdirSt13_Ios_Openmode@Base 0.4.1
 _ZN5boost9iostreams6detail18indirect_streambufIN3ndn6detail18BufferAppendDeviceESt11char_traitsIcESaIcENS0_6outputEE7seekposESt4fposI11__mbstate_tESt13_Ios_Openmode@Base 0.4.1
 _ZN5boost9iostreams6detail18indirect_streambufIN3ndn6detail18BufferAppendDeviceESt11char_traitsIcESaIcENS0_6outputEE8overflowEi@Base 0.4.1
 _ZN5boost9iostreams6detail18indirect_streambufIN3ndn6detail18BufferAppendDeviceESt11char_traitsIcESaIcENS0_6outputEE8set_nextEPNS1_16linked_streambufIcS7_EE@Base 0.4.1
 _ZN5boost9iostreams6detail18indirect_streambufIN3ndn6detail18BufferAppendDeviceESt11char_traitsIcESaIcENS0_6outputEE9pbackfailEi@Base 0.4.1
 _ZN5boost9iostreams6detail18indirect_streambufIN3ndn6detail18BufferAppendDeviceESt11char_traitsIcESaIcENS0_6outputEE9seek_implElSt12_Ios_SeekdirSt13_Ios_Openmode@Base 0.4.1
 _ZN5boost9iostreams6detail18indirect_streambufIN3ndn6detail18BufferAppendDeviceESt11char_traitsIcESaIcENS0_6outputEE9sync_implEv@Base 0.4.1
 _ZN5boost9iostreams6detail18indirect_streambufIN3ndn6detail18BufferAppendDeviceESt11char_traitsIcESaIcENS0_6outputEE9underflowEv@Base 0.4.1
 _ZN5boost9iostreams6detail18indirect_streambufIN3ndn6detail18BufferAppendDeviceESt11char_traitsIcESaIcENS0_6outputEED0Ev@Base 0.4.1
 _ZN5boost9iostreams6detail18indirect_streambufIN3ndn6detail18BufferAppendDeviceESt11char_traitsIcESaIcENS0_6outputEED1Ev@Base 0.4.1
 _ZN5boost9iostreams6detail18indirect_streambufIN3ndn6detail18BufferAppendDeviceESt11char_traitsIcESaIcENS0_6outputEED2Ev@Base 0.4.1
 _ZN8CryptoPP10BufferlessINS_22BufferedTransformationEE13IsolatedFlushEbb@Base 0.4.1
 _ZN8CryptoPP10DL_KeyImplINS_15PKCS8PrivateKeyENS_21DL_GroupParameters_ECINS_3ECPEEENS_3OIDEED2Ev@Base 0.4.1
 _ZN8CryptoPP10FileSourceC1EPKcbPNS_22BufferedTransformationEb@Base 0.4.1
 _ZN8CryptoPP10FileSourceC2EPKcbPNS_22BufferedTransformationEb@Base 0.4.1
 _ZN8CryptoPP10FileSourceD0Ev@Base 0.4.1
 _ZN8CryptoPP10FileSourceD1Ev@Base 0.4.1
 _ZN8CryptoPP10FileSourceD2Ev@Base 0.4.1
 _ZN8CryptoPP10RandomPoolD0Ev@Base 0.4.1
 _ZN8CryptoPP10RandomPoolD1Ev@Base 0.4.1
 _ZN8CryptoPP10RandomPoolD2Ev@Base 0.4.1
 _ZN8CryptoPP11ProxyFilterD0Ev@Base 0.4.1
 _ZN8CryptoPP11ProxyFilterD1Ev@Base 0.4.1
 _ZN8CryptoPP11ProxyFilterD2Ev@Base 0.4.1
 _ZN8CryptoPP11RSAFunctionC1Ev@Base 0.4.1
 _ZN8CryptoPP11RSAFunctionD1Ev@Base 0.4.1
 _ZN8CryptoPP11StringStoreC1EPKhm@Base 0.4.1
 _ZN8CryptoPP11StringStoreC2EPKhm@Base 0.4.1
 _ZN8CryptoPP12BERDecodeErrD0Ev@Base 0.4.1
 _ZN8CryptoPP12BERDecodeErrD1Ev@Base 0.4.1
 _ZN8CryptoPP12BERDecodeErrD2Ev@Base 0.4.1
 _ZN8CryptoPP12DL_PublicKeyINS_8ECPPointEE10AssignFromERKNS_14NameValuePairsE@Base 0.4.1
 _ZN8CryptoPP12DL_PublicKeyINS_8ECPPointEE16SetPublicElementERKS1_@Base 0.4.1
 _ZN8CryptoPP12IteratedHashIjNS_10EnumToTypeINS_9ByteOrderELi1EEELj64ENS_18HashTransformationEE7DataBufEv@Base 0.4.1
 _ZN8CryptoPP12SignerFilterC1ERNS_21RandomNumberGeneratorERKNS_9PK_SignerEPNS_22BufferedTransformationEb@Base 0.4.1
 _ZN8CryptoPP12SignerFilterC2ERNS_21RandomNumberGeneratorERKNS_9PK_SignerEPNS_22BufferedTransformationEb@Base 0.4.1
 _ZN8CryptoPP12StringSourceC1EPKhmbPNS_22BufferedTransformationE@Base 0.4.1
 _ZN8CryptoPP12StringSourceC2EPKhmbPNS_22BufferedTransformationE@Base 0.4.1
 _ZN8CryptoPP12StringSourceD0Ev@Base 0.4.1
 _ZN8CryptoPP12StringSourceD1Ev@Base 0.4.1
 _ZN8CryptoPP12StringSourceD2Ev@Base 0.4.1
 _ZN8CryptoPP13AutoSignalingINS_14InputRejectingINS_22BufferedTransformationEEEE24SetAutoSignalPropagationEi@Base 0.4.1
 _ZN8CryptoPP13Base64DecoderC1EPNS_22BufferedTransformationE@Base 0.4.1
 _ZN8CryptoPP13Base64DecoderC2EPNS_22BufferedTransformationE@Base 0.4.1
 _ZN8CryptoPP13Base64EncoderC1EPNS_22BufferedTransformationEbi@Base 0.4.1
 _ZN8CryptoPP13Base64EncoderC2EPNS_22BufferedTransformationEbi@Base 0.4.1
 _ZN8CryptoPP13DL_PrivateKeyINS_8ECPPointEE10AssignFromERKNS_14NameValuePairsE@Base 0.4.1
 _ZN8CryptoPP13TF_ObjectImplINS_13TF_SignerBaseENS_25TF_SignatureSchemeOptionsINS_5TF_SSINS_8PKCS1v15ENS_6SHA256ENS_3RSAEiEES6_NS_39PKCS1v15_SignatureMessageEncodingMethodES5_EENS_21InvertibleRSAFunctionEE9AccessKeyEv@Base 0.4.1
 _ZN8CryptoPP13TF_ObjectImplINS_13TF_SignerBaseENS_25TF_SignatureSchemeOptionsINS_5TF_SSINS_8PKCS1v15ENS_6SHA256ENS_3RSAEiEES6_NS_39PKCS1v15_SignatureMessageEncodingMethodES5_EENS_21InvertibleRSAFunctionEED0Ev@Base 0.4.1
 _ZN8CryptoPP13TF_ObjectImplINS_13TF_SignerBaseENS_25TF_SignatureSchemeOptionsINS_5TF_SSINS_8PKCS1v15ENS_6SHA256ENS_3RSAEiEES6_NS_39PKCS1v15_SignatureMessageEncodingMethodES5_EENS_21InvertibleRSAFunctionEED1Ev@Base 0.4.1
 _ZN8CryptoPP13TF_ObjectImplINS_13TF_SignerBaseENS_25TF_SignatureSchemeOptionsINS_5TF_SSINS_8PKCS1v15ENS_6SHA256ENS_3RSAEiEES6_NS_39PKCS1v15_SignatureMessageEncodingMethodES5_EENS_21InvertibleRSAFunctionEED2Ev@Base 0.4.1
 _ZN8CryptoPP13TF_ObjectImplINS_15TF_VerifierBaseENS_25TF_SignatureSchemeOptionsINS_5TF_SSINS_8PKCS1v15ENS_6SHA256ENS_3RSAEiEES6_NS_39PKCS1v15_SignatureMessageEncodingMethodES5_EENS_11RSAFunctionEE9AccessKeyEv@Base 0.4.1
 _ZN8CryptoPP13TF_ObjectImplINS_15TF_VerifierBaseENS_25TF_SignatureSchemeOptionsINS_5TF_SSINS_8PKCS1v15ENS_6SHA256ENS_3RSAEiEES6_NS_39PKCS1v15_SignatureMessageEncodingMethodES5_EENS_11RSAFunctionEED0Ev@Base 0.4.1
 _ZN8CryptoPP13TF_ObjectImplINS_15TF_VerifierBaseENS_25TF_SignatureSchemeOptionsINS_5TF_SSINS_8PKCS1v15ENS_6SHA256ENS_3RSAEiEES6_NS_39PKCS1v15_SignatureMessageEncodingMethodES5_EENS_11RSAFunctionEED1Ev@Base 0.4.1
 _ZN8CryptoPP13TF_ObjectImplINS_15TF_VerifierBaseENS_25TF_SignatureSchemeOptionsINS_5TF_SSINS_8PKCS1v15ENS_6SHA256ENS_3RSAEiEES6_NS_39PKCS1v15_SignatureMessageEncodingMethodES5_EENS_11RSAFunctionEED2Ev@Base 0.4.1
 _ZN8CryptoPP14BERDecodeErrorEv@Base 0.4.1
 _ZN8CryptoPP14CBC_Decryption13ResizeBuffersEv@Base 0.4.1
 _ZN8CryptoPP14CipherModeBase13ResizeBuffersEv@Base 0.4.1
 _ZN8CryptoPP14CipherModeBase15SetFeedbackSizeEj@Base 0.4.1
 _ZN8CryptoPP14CryptoMaterial10PrecomputeEj@Base 0.4.1
 _ZN8CryptoPP14CryptoMaterial15InvalidMaterialD0Ev@Base 0.4.1
 _ZN8CryptoPP14CryptoMaterial15InvalidMaterialD1Ev@Base 0.4.1
 _ZN8CryptoPP14CryptoMaterial15InvalidMaterialD2Ev@Base 0.4.1
 _ZN8CryptoPP14CryptoMaterial18LoadPrecomputationERNS_22BufferedTransformationE@Base 0.4.1
 _ZN8CryptoPP14CryptoMaterial4LoadERNS_22BufferedTransformationE@Base 0.4.1
 _ZN8CryptoPP14InputRejectingINS_22BufferedTransformationEE11ChannelPut2ERKNSt7__cxx1112basic_stringIcSt11char_traitsIcESaIcEEEPKhmib@Base 0.4.1
 _ZN8CryptoPP14InputRejectingINS_22BufferedTransformationEE13InputRejectedC1Ev@Base 0.4.1
 _ZN8CryptoPP14InputRejectingINS_22BufferedTransformationEE13InputRejectedC2Ev@Base 0.4.1
 _ZN8CryptoPP14InputRejectingINS_22BufferedTransformationEE13InputRejectedD0Ev@Base 0.4.1
 _ZN8CryptoPP14InputRejectingINS_22BufferedTransformationEE13InputRejectedD1Ev@Base 0.4.1
 _ZN8CryptoPP14InputRejectingINS_22BufferedTransformationEE13InputRejectedD2Ev@Base 0.4.1
 _ZN8CryptoPP14InputRejectingINS_22BufferedTransformationEE13IsolatedFlushEbb@Base 0.4.1
 _ZN8CryptoPP14InputRejectingINS_22BufferedTransformationEE23ChannelMessageSeriesEndERKNSt7__cxx1112basic_stringIcSt11char_traitsIcESaIcEEEib@Base 0.4.1
 _ZN8CryptoPP14InputRejectingINS_22BufferedTransformationEE24IsolatedMessageSeriesEndEb@Base 0.4.1
 _ZN8CryptoPP14InputRejectingINS_22BufferedTransformationEE4Put2EPKhmib@Base 0.4.1
 _ZN8CryptoPP14InputRejectingINS_6FilterEE11ChannelPut2ERKNSt7__cxx1112basic_stringIcSt11char_traitsIcESaIcEEEPKhmib@Base 0.4.1
 _ZN8CryptoPP14InputRejectingINS_6FilterEE13InputRejectedC1Ev@Base 0.4.1
 _ZN8CryptoPP14InputRejectingINS_6FilterEE13InputRejectedC2Ev@Base 0.4.1
 _ZN8CryptoPP14InputRejectingINS_6FilterEE13InputRejectedD0Ev@Base 0.4.1
 _ZN8CryptoPP14InputRejectingINS_6FilterEE13InputRejectedD1Ev@Base 0.4.1
 _ZN8CryptoPP14InputRejectingINS_6FilterEE13InputRejectedD2Ev@Base 0.4.1
 _ZN8CryptoPP14InputRejectingINS_6FilterEE13IsolatedFlushEbb@Base 0.4.1
 _ZN8CryptoPP14InputRejectingINS_6FilterEE23ChannelMessageSeriesEndERKNSt7__cxx1112basic_stringIcSt11char_traitsIcESaIcEEEib@Base 0.4.1
 _ZN8CryptoPP14InputRejectingINS_6FilterEE24IsolatedMessageSeriesEndEb@Base 0.4.1
 _ZN8CryptoPP14InputRejectingINS_6FilterEE4Put2EPKhmib@Base 0.4.1
 _ZN8CryptoPP14MakeParametersINS_23ConstByteArrayParameterEEENS_19AlgorithmParametersEPKcRKT_b@Base 0.4.1
 _ZN8CryptoPP14MakeParametersIPKcEENS_19AlgorithmParametersES2_RKT_b@Base 0.4.1
 _ZN8CryptoPP14NameValuePairs17ValueTypeMismatchC1ERKNSt7__cxx1112basic_stringIcSt11char_traitsIcESaIcEEERKSt9type_infoSC_@Base 0.4.1
 _ZN8CryptoPP14NameValuePairs17ValueTypeMismatchC2ERKNSt7__cxx1112basic_stringIcSt11char_traitsIcESaIcEEERKSt9type_infoSC_@Base 0.4.1
 _ZN8CryptoPP14NameValuePairs17ValueTypeMismatchD0Ev@Base 0.4.1
 _ZN8CryptoPP14NameValuePairs17ValueTypeMismatchD1Ev@Base 0.4.1
 _ZN8CryptoPP14NameValuePairs17ValueTypeMismatchD2Ev@Base 0.4.1
 _ZN8CryptoPP14NameValuePairs19ThrowIfTypeMismatchEPKcRKSt9type_infoS5_@Base 0.4.1
 _ZN8CryptoPP14NotImplementedD0Ev@Base 0.4.1
 _ZN8CryptoPP14NotImplementedD1Ev@Base 0.4.1
 _ZN8CryptoPP14NotImplementedD2Ev@Base 0.4.1
 _ZN8CryptoPP14SourceTemplateINS_11StringStoreEE13PumpMessages2ERjb@Base 0.4.1
 _ZN8CryptoPP14SourceTemplateINS_11StringStoreEE18IsolatedInitializeERKNS_14NameValuePairsE@Base 0.4.1
 _ZN8CryptoPP14SourceTemplateINS_11StringStoreEE24SetAutoSignalPropagationEi@Base 0.4.1
 _ZN8CryptoPP14SourceTemplateINS_11StringStoreEE5Pump2ERyb@Base 0.4.1
 _ZN8CryptoPP14SourceTemplateINS_11StringStoreEE8PumpAll2Eb@Base 0.4.1
 _ZN8CryptoPP14SourceTemplateINS_11StringStoreEED0Ev@Base 0.4.1
 _ZN8CryptoPP14SourceTemplateINS_11StringStoreEED1Ev@Base 0.4.1
 _ZN8CryptoPP14SourceTemplateINS_11StringStoreEED2Ev@Base 0.4.1
 _ZN8CryptoPP14SourceTemplateINS_9FileStoreEE13PumpMessages2ERjb@Base 0.4.1
 _ZN8CryptoPP14SourceTemplateINS_9FileStoreEE18IsolatedInitializeERKNS_14NameValuePairsE@Base 0.4.1
 _ZN8CryptoPP14SourceTemplateINS_9FileStoreEE24SetAutoSignalPropagationEi@Base 0.4.1
 _ZN8CryptoPP14SourceTemplateINS_9FileStoreEE5Pump2ERyb@Base 0.4.1
 _ZN8CryptoPP14SourceTemplateINS_9FileStoreEE8PumpAll2Eb@Base 0.4.1
 _ZN8CryptoPP14SourceTemplateINS_9FileStoreEED0Ev@Base 0.4.1
 _ZN8CryptoPP14SourceTemplateINS_9FileStoreEED1Ev@Base 0.4.1
 _ZN8CryptoPP14SourceTemplateINS_9FileStoreEED2Ev@Base 0.4.1
 _ZN8CryptoPP15InvalidArgumentD0Ev@Base 0.4.1
 _ZN8CryptoPP15InvalidArgumentD1Ev@Base 0.4.1
 _ZN8CryptoPP15InvalidArgumentD2Ev@Base 0.4.1
 _ZN8CryptoPP15PKCS8PrivateKeyC2Ev@Base 0.4.1
 _ZN8CryptoPP15PKCS8PrivateKeyD2Ev@Base 0.4.1
 _ZN8CryptoPP16BlockCipherFinalILNS_9CipherDirE0ENS_8DES_EDE34BaseEED0Ev@Base 0.4.1
 _ZN8CryptoPP16BlockCipherFinalILNS_9CipherDirE0ENS_8DES_EDE34BaseEED1Ev@Base 0.4.1
 _ZN8CryptoPP16BlockCipherFinalILNS_9CipherDirE0ENS_8DES_EDE34BaseEED2Ev@Base 0.4.1
 _ZN8CryptoPP16BlockCipherFinalILNS_9CipherDirE1ENS_8DES_EDE34BaseEED0Ev@Base 0.4.1
 _ZN8CryptoPP16BlockCipherFinalILNS_9CipherDirE1ENS_8DES_EDE34BaseEED1Ev@Base 0.4.1
 _ZN8CryptoPP16BlockCipherFinalILNS_9CipherDirE1ENS_8DES_EDE34BaseEED2Ev@Base 0.4.1
 _ZN8CryptoPP16DL_PrivateKey_ECINS_3ECPEEC2Ev@Base 0.4.1
 _ZN8CryptoPP16DL_PrivateKey_ECINS_3ECPEED2Ev@Base 0.4.1
 _ZN8CryptoPP16DL_PublicKeyImplINS_21DL_GroupParameters_ECINS_3ECPEEEEC2Ev@Base 0.4.1
 _ZN8CryptoPP16DL_PublicKeyImplINS_21DL_GroupParameters_ECINS_3ECPEEEED2Ev@Base 0.4.1
 _ZN8CryptoPP16PK_FinalTemplateINS_13DL_SignerImplINS_25DL_SignatureSchemeOptionsINS_5DL_SSINS_13DL_Keys_ECDSAINS_3ECPEEENS_18DL_Algorithm_ECDSAIS5_EENS_37DL_SignatureMessageEncodingMethod_DSAENS_6SHA256EiEES6_S8_S9_SA_EEEEED0Ev@Base 0.4.1
 _ZN8CryptoPP16PK_FinalTemplateINS_13DL_SignerImplINS_25DL_SignatureSchemeOptionsINS_5DL_SSINS_13DL_Keys_ECDSAINS_3ECPEEENS_18DL_Algorithm_ECDSAIS5_EENS_37DL_SignatureMessageEncodingMethod_DSAENS_6SHA256EiEES6_S8_S9_SA_EEEEED1Ev@Base 0.4.1
 _ZN8CryptoPP16PK_FinalTemplateINS_13DL_SignerImplINS_25DL_SignatureSchemeOptionsINS_5DL_SSINS_13DL_Keys_ECDSAINS_3ECPEEENS_18DL_Algorithm_ECDSAIS5_EENS_37DL_SignatureMessageEncodingMethod_DSAENS_6SHA256EiEES6_S8_S9_SA_EEEEED2Ev@Base 0.4.1
 _ZN8CryptoPP16PK_FinalTemplateINS_13TF_SignerImplINS_25TF_SignatureSchemeOptionsINS_5TF_SSINS_8PKCS1v15ENS_6SHA256ENS_3RSAEiEES6_NS_39PKCS1v15_SignatureMessageEncodingMethodES5_EEEEED0Ev@Base 0.4.1
 _ZN8CryptoPP16PK_FinalTemplateINS_13TF_SignerImplINS_25TF_SignatureSchemeOptionsINS_5TF_SSINS_8PKCS1v15ENS_6SHA256ENS_3RSAEiEES6_NS_39PKCS1v15_SignatureMessageEncodingMethodES5_EEEEED1Ev@Base 0.4.1
 _ZN8CryptoPP16PK_FinalTemplateINS_13TF_SignerImplINS_25TF_SignatureSchemeOptionsINS_5TF_SSINS_8PKCS1v15ENS_6SHA256ENS_3RSAEiEES6_NS_39PKCS1v15_SignatureMessageEncodingMethodES5_EEEEED2Ev@Base 0.4.1
 _ZN8CryptoPP16PK_FinalTemplateINS_15DL_VerifierImplINS_25DL_SignatureSchemeOptionsINS_5DL_SSINS_13DL_Keys_ECDSAINS_3ECPEEENS_18DL_Algorithm_ECDSAIS5_EENS_37DL_SignatureMessageEncodingMethod_DSAENS_6SHA256EiEES6_S8_S9_SA_EEEEED0Ev@Base 0.4.1
 _ZN8CryptoPP16PK_FinalTemplateINS_15DL_VerifierImplINS_25DL_SignatureSchemeOptionsINS_5DL_SSINS_13DL_Keys_ECDSAINS_3ECPEEENS_18DL_Algorithm_ECDSAIS5_EENS_37DL_SignatureMessageEncodingMethod_DSAENS_6SHA256EiEES6_S8_S9_SA_EEEEED1Ev@Base 0.4.1
 _ZN8CryptoPP16PK_FinalTemplateINS_15DL_VerifierImplINS_25DL_SignatureSchemeOptionsINS_5DL_SSINS_13DL_Keys_ECDSAINS_3ECPEEENS_18DL_Algorithm_ECDSAIS5_EENS_37DL_SignatureMessageEncodingMethod_DSAENS_6SHA256EiEES6_S8_S9_SA_EEEEED2Ev@Base 0.4.1
 _ZN8CryptoPP16PK_FinalTemplateINS_15TF_VerifierImplINS_25TF_SignatureSchemeOptionsINS_5TF_SSINS_8PKCS1v15ENS_6SHA256ENS_3RSAEiEES6_NS_39PKCS1v15_SignatureMessageEncodingMethodES5_EEEEED0Ev@Base 0.4.1
 _ZN8CryptoPP16PK_FinalTemplateINS_15TF_VerifierImplINS_25TF_SignatureSchemeOptionsINS_5TF_SSINS_8PKCS1v15ENS_6SHA256ENS_3RSAEiEES6_NS_39PKCS1v15_SignatureMessageEncodingMethodES5_EEEEED1Ev@Base 0.4.1
 _ZN8CryptoPP16PK_FinalTemplateINS_15TF_VerifierImplINS_25TF_SignatureSchemeOptionsINS_5TF_SSINS_8PKCS1v15ENS_6SHA256ENS_3RSAEiEES6_NS_39PKCS1v15_SignatureMessageEncodingMethodES5_EEEEED2Ev@Base 0.4.1
 _ZN8CryptoPP17BERDecodeUnsignedIbEEvRNS_22BufferedTransformationERT_hS3_S3_@Base 0.4.1
 _ZN8CryptoPP17BERDecodeUnsignedIjEEvRNS_22BufferedTransformationERT_hS3_S3_@Base 0.4.1
 _ZN8CryptoPP17BERGeneralDecoder15StoreInitializeERKNS_14NameValuePairsE@Base 0.4.1
 _ZN8CryptoPP17DL_ObjectImplBaseINS_13DL_SignerBaseINS_8ECPPointEEENS_25DL_SignatureSchemeOptionsINS_5DL_SSINS_13DL_Keys_ECDSAINS_3ECPEEENS_18DL_Algorithm_ECDSAIS7_EENS_37DL_SignatureMessageEncodingMethod_DSAENS_6SHA256EiEES8_SA_SB_SC_EENS_50DL_PrivateKey_WithSignaturePairwiseConsistencyTestINS_16DL_PrivateKey_ECIS7_EENS_5ECDSAIS7_SC_EEEEE16AccessPrivateKeyEv@Base 0.4.1
 _ZN8CryptoPP17DL_ObjectImplBaseINS_13DL_SignerBaseINS_8ECPPointEEENS_25DL_SignatureSchemeOptionsINS_5DL_SSINS_13DL_Keys_ECDSAINS_3ECPEEENS_18DL_Algorithm_ECDSAIS7_EENS_37DL_SignatureMessageEncodingMethod_DSAENS_6SHA256EiEES8_SA_SB_SC_EENS_50DL_PrivateKey_WithSignaturePairwiseConsistencyTestINS_16DL_PrivateKey_ECIS7_EENS_5ECDSAIS7_SC_EEEEE18AccessKeyInterfaceEv@Base 0.4.1
 _ZN8CryptoPP17DL_ObjectImplBaseINS_15DL_VerifierBaseINS_8ECPPointEEENS_25DL_SignatureSchemeOptionsINS_5DL_SSINS_13DL_Keys_ECDSAINS_3ECPEEENS_18DL_Algorithm_ECDSAIS7_EENS_37DL_SignatureMessageEncodingMethod_DSAENS_6SHA256EiEES8_SA_SB_SC_EENS_15DL_PublicKey_ECIS7_EEE15AccessPublicKeyEv@Base 0.4.1
 _ZN8CryptoPP17DL_ObjectImplBaseINS_15DL_VerifierBaseINS_8ECPPointEEENS_25DL_SignatureSchemeOptionsINS_5DL_SSINS_13DL_Keys_ECDSAINS_3ECPEEENS_18DL_Algorithm_ECDSAIS7_EENS_37DL_SignatureMessageEncodingMethod_DSAENS_6SHA256EiEES8_SA_SB_SC_EENS_15DL_PublicKey_ECIS7_EEE18AccessKeyInterfaceEv@Base 0.4.1
 _ZN8CryptoPP17InvalidDataFormatD0Ev@Base 0.4.1
 _ZN8CryptoPP17InvalidDataFormatD1Ev@Base 0.4.1
 _ZN8CryptoPP17InvalidDataFormatD2Ev@Base 0.4.1
 _ZN8CryptoPP17SimpleProxyFilter7LastPutEPKhm@Base 0.4.1
 _ZN8CryptoPP17SimpleProxyFilter8FirstPutEPKh@Base 0.4.1
 _ZN8CryptoPP17SimpleProxyFilterD0Ev@Base 0.4.1
 _ZN8CryptoPP17SimpleProxyFilterD1Ev@Base 0.4.1
 _ZN8CryptoPP17SimpleProxyFilterD2Ev@Base 0.4.1
 _ZN8CryptoPP17TF_ObjectImplBaseINS_13TF_SignerBaseENS_25TF_SignatureSchemeOptionsINS_5TF_SSINS_8PKCS1v15ENS_6SHA256ENS_3RSAEiEES6_NS_39PKCS1v15_SignatureMessageEncodingMethodES5_EENS_21InvertibleRSAFunctionEE16AccessPrivateKeyEv@Base 0.4.1
 _ZN8CryptoPP17TF_ObjectImplBaseINS_15TF_VerifierBaseENS_25TF_SignatureSchemeOptionsINS_5TF_SSINS_8PKCS1v15ENS_6SHA256ENS_3RSAEiEES6_NS_39PKCS1v15_SignatureMessageEncodingMethodES5_EENS_11RSAFunctionEE15AccessPublicKeyEv@Base 0.4.1
 _ZN8CryptoPP18BERSequenceDecoderD0Ev@Base 0.4.1
 _ZN8CryptoPP18BERSequenceDecoderD1Ev@Base 0.4.1
 _ZN8CryptoPP18BERSequenceDecoderD2Ev@Base 0.4.1
 _ZN8CryptoPP18DERSequenceEncoderD0Ev@Base 0.4.1
 _ZN8CryptoPP18DERSequenceEncoderD1Ev@Base 0.4.1
 _ZN8CryptoPP18DERSequenceEncoderD2Ev@Base 0.4.1
 _ZN8CryptoPP18HashTransformation12VerifyDigestEPKhS2_m@Base 0.4.1
 _ZN8CryptoPP18HashTransformation15CalculateDigestEPhPKhm@Base 0.4.1
 _ZN8CryptoPP18HashTransformation17CreateUpdateSpaceERm@Base 0.4.1
 _ZN8CryptoPP18HashTransformation21VerifyTruncatedDigestEPKhmS2_m@Base 0.4.1
 _ZN8CryptoPP18HashTransformation24CalculateTruncatedDigestEPhmPKhm@Base 0.4.1
 _ZN8CryptoPP18HashTransformation5FinalEPh@Base 0.4.1
 _ZN8CryptoPP18HashTransformation6VerifyEPKh@Base 0.4.1
 _ZN8CryptoPP18HashTransformation7RestartEv@Base 0.4.1
 _ZN8CryptoPP18PublicKeyAlgorithm14AccessMaterialEv@Base 0.4.1
 _ZN8CryptoPP18StandardReallocateIhNS_20AllocatorWithCleanupIhLb0EEEEENT0_7pointerERS3_PT_NS3_9size_typeES8_b@Base 0.4.1
 _ZN8CryptoPP18StandardReallocateIhNS_20AllocatorWithCleanupIhLb1EEEEENT0_7pointerERS3_PT_NS3_9size_typeES8_b@Base 0.4.1
 _ZN8CryptoPP19PrivateKeyAlgorithm14AccessMaterialEv@Base 0.4.1
 _ZN8CryptoPP20AutoSeededRandomPoolD0Ev@Base 0.4.1
 _ZN8CryptoPP20AutoSeededRandomPoolD1Ev@Base 0.4.1
 _ZN8CryptoPP20AutoSeededRandomPoolD2Ev@Base 0.4.1
 _ZN8CryptoPP20StreamTransformation4SeekEy@Base 0.4.1
 _ZN8CryptoPP21DL_GroupParameters_ECINS_3ECPEED1Ev@Base 0.4.1
 _ZN8CryptoPP21InvertibleRSAFunctionC1Ev@Base 0.4.1
 _ZN8CryptoPP21InvertibleRSAFunctionD1Ev@Base 0.4.1
 _ZN8CryptoPP21PK_MessageAccumulator14TruncatedFinalEPhm@Base 0.4.1
 _ZN8CryptoPP21SimpleKeyingInterface13ResynchronizeEPKhi@Base 0.4.1
 _ZN8CryptoPP22BufferedTransformation10AttachableEv@Base 0.4.1
 _ZN8CryptoPP22BufferedTransformation14CreatePutSpaceERm@Base 0.4.1
 _ZN8CryptoPP22BufferedTransformation14PutModifiable2EPhmib@Base 0.4.1
 _ZN8CryptoPP22BufferedTransformation20GetNextMessageSeriesEv@Base 0.4.1
 _ZN8CryptoPP22BufferedTransformation22AttachedTransformationEv@Base 0.4.1
 _ZN8CryptoPP22BufferedTransformation24IsolatedMessageSeriesEndEb@Base 0.4.1
 _ZN8CryptoPP22BufferedTransformation24SetAutoSignalPropagationEi@Base 0.4.1
 _ZN8CryptoPP22BufferedTransformation6DetachEPS0_@Base 0.4.1
 _ZN8CryptoPP22DL_GroupParametersImplINS_16EcPrecomputationINS_3ECPEEENS_30DL_FixedBasePrecomputationImplINS_8ECPPointEEENS_18DL_GroupParametersIS5_EEED2Ev@Base 0.4.1
 _ZN8CryptoPP23AlgorithmParametersBase16ParameterNotUsedC1EPKc@Base 0.4.1
 _ZN8CryptoPP23AlgorithmParametersBase16ParameterNotUsedC2EPKc@Base 0.4.1
 _ZN8CryptoPP23AlgorithmParametersBase16ParameterNotUsedD0Ev@Base 0.4.1
 _ZN8CryptoPP23AlgorithmParametersBase16ParameterNotUsedD1Ev@Base 0.4.1
 _ZN8CryptoPP23AlgorithmParametersBase16ParameterNotUsedD2Ev@Base 0.4.1
 _ZN8CryptoPP23AlgorithmParametersBaseD0Ev@Base 0.4.1
 _ZN8CryptoPP23AlgorithmParametersBaseD1Ev@Base 0.4.1
 _ZN8CryptoPP23AlgorithmParametersBaseD2Ev@Base 0.4.1
 _ZN8CryptoPP23FilterWithBufferedInput12FlushDerivedEv@Base 0.4.1
 _ZN8CryptoPP23FilterWithBufferedInput13NextPutSingleEPKh@Base 0.4.1
 _ZN8CryptoPP23FilterWithBufferedInput14PutModifiable2EPhmib@Base 0.4.1
 _ZN8CryptoPP23FilterWithBufferedInput17InitializeDerivedERKNS_14NameValuePairsE@Base 0.4.1
 _ZN8CryptoPP23FilterWithBufferedInput34InitializeDerivedAndReturnNewSizesERKNS_14NameValuePairsERmS4_S4_@Base 0.4.1
 _ZN8CryptoPP23FilterWithBufferedInput4Put2EPKhmib@Base 0.4.1
 _ZN8CryptoPP23FilterWithBufferedInput7NextPutEPKhm@Base 0.4.1
 _ZN8CryptoPP25PK_MessageAccumulatorBase6UpdateEPKhm@Base 0.4.1
 _ZN8CryptoPP25PK_MessageAccumulatorBaseD0Ev@Base 0.4.1
 _ZN8CryptoPP25PK_MessageAccumulatorBaseD1Ev@Base 0.4.1
 _ZN8CryptoPP25PK_MessageAccumulatorBaseD2Ev@Base 0.4.1
 _ZN8CryptoPP25PK_MessageAccumulatorImplINS_6SHA256EE10AccessHashEv@Base 0.4.1
 _ZN8CryptoPP25PK_MessageAccumulatorImplINS_6SHA256EED0Ev@Base 0.4.1
 _ZN8CryptoPP25PK_MessageAccumulatorImplINS_6SHA256EED1Ev@Base 0.4.1
 _ZN8CryptoPP25PK_MessageAccumulatorImplINS_6SHA256EED2Ev@Base 0.4.1
 _ZN8CryptoPP27AlgorithmParametersTemplateIPKcED0Ev@Base 0.4.1
 _ZN8CryptoPP27AlgorithmParametersTemplateIPKcED1Ev@Base 0.4.1
 _ZN8CryptoPP27AlgorithmParametersTemplateIPKcED2Ev@Base 0.4.1
 _ZN8CryptoPP27AlgorithmParametersTemplateIPKiED0Ev@Base 0.4.1
 _ZN8CryptoPP27AlgorithmParametersTemplateIPKiED1Ev@Base 0.4.1
 _ZN8CryptoPP27AlgorithmParametersTemplateIPKiED2Ev@Base 0.4.1
 _ZN8CryptoPP27AlgorithmParametersTemplateIPSiED0Ev@Base 0.4.1
 _ZN8CryptoPP27AlgorithmParametersTemplateIPSiED1Ev@Base 0.4.1
 _ZN8CryptoPP27AlgorithmParametersTemplateIPSiED2Ev@Base 0.4.1
 _ZN8CryptoPP27AlgorithmParametersTemplateIPSoED0Ev@Base 0.4.1
 _ZN8CryptoPP27AlgorithmParametersTemplateIPSoED1Ev@Base 0.4.1
 _ZN8CryptoPP27AlgorithmParametersTemplateIPSoED2Ev@Base 0.4.1
 _ZN8CryptoPP27BlockOrientedCipherModeBase13ResizeBuffersEv@Base 0.4.1
 _ZN8CryptoPP27BlockOrientedCipherModeBase13ResynchronizeEPKhi@Base 0.4.1
 _ZN8CryptoPP27BlockOrientedCipherModeBaseD0Ev@Base 0.4.1
 _ZN8CryptoPP27BlockOrientedCipherModeBaseD1Ev@Base 0.4.1
 _ZN8CryptoPP27BlockOrientedCipherModeBaseD2Ev@Base 0.4.1
 _ZN8CryptoPP31IteratedHashWithStaticTransformIjNS_10EnumToTypeINS_9ByteOrderELi1EEELj64ELj20ENS_4SHA1ELj0ELb0EE24HashEndianCorrectedBlockEPKj@Base 0.4.1
 _ZN8CryptoPP31IteratedHashWithStaticTransformIjNS_10EnumToTypeINS_9ByteOrderELi1EEELj64ELj20ENS_4SHA1ELj0ELb0EE4InitEv@Base 0.4.1
 _ZN8CryptoPP31IteratedHashWithStaticTransformIjNS_10EnumToTypeINS_9ByteOrderELi1EEELj64ELj20ENS_4SHA1ELj0ELb0EE8StateBufEv@Base 0.4.1
 _ZN8CryptoPP31IteratedHashWithStaticTransformIjNS_10EnumToTypeINS_9ByteOrderELi1EEELj64ELj20ENS_4SHA1ELj0ELb0EED0Ev@Base 0.4.1
 _ZN8CryptoPP31IteratedHashWithStaticTransformIjNS_10EnumToTypeINS_9ByteOrderELi1EEELj64ELj20ENS_4SHA1ELj0ELb0EED1Ev@Base 0.4.1
 _ZN8CryptoPP31IteratedHashWithStaticTransformIjNS_10EnumToTypeINS_9ByteOrderELi1EEELj64ELj20ENS_4SHA1ELj0ELb0EED2Ev@Base 0.4.1
 _ZN8CryptoPP31IteratedHashWithStaticTransformIjNS_10EnumToTypeINS_9ByteOrderELi1EEELj64ELj32ENS_6SHA256ELj32ELb1EE24HashEndianCorrectedBlockEPKj@Base 0.4.1
 _ZN8CryptoPP31IteratedHashWithStaticTransformIjNS_10EnumToTypeINS_9ByteOrderELi1EEELj64ELj32ENS_6SHA256ELj32ELb1EE4InitEv@Base 0.4.1
 _ZN8CryptoPP31IteratedHashWithStaticTransformIjNS_10EnumToTypeINS_9ByteOrderELi1EEELj64ELj32ENS_6SHA256ELj32ELb1EE8StateBufEv@Base 0.4.1
 _ZN8CryptoPP31IteratedHashWithStaticTransformIjNS_10EnumToTypeINS_9ByteOrderELi1EEELj64ELj32ENS_6SHA256ELj32ELb1EED0Ev@Base 0.4.1
 _ZN8CryptoPP31IteratedHashWithStaticTransformIjNS_10EnumToTypeINS_9ByteOrderELi1EEELj64ELj32ENS_6SHA256ELj32ELb1EED1Ev@Base 0.4.1
 _ZN8CryptoPP31IteratedHashWithStaticTransformIjNS_10EnumToTypeINS_9ByteOrderELi1EEELj64ELj32ENS_6SHA256ELj32ELb1EED2Ev@Base 0.4.1
 _ZN8CryptoPP36CipherModeFinalTemplate_CipherHolderINS_16BlockCipherFinalILNS_9CipherDirE0ENS_8DES_EDE34BaseEEENS_14CBC_EncryptionEED0Ev@Base 0.4.1
 _ZN8CryptoPP36CipherModeFinalTemplate_CipherHolderINS_16BlockCipherFinalILNS_9CipherDirE0ENS_8DES_EDE34BaseEEENS_14CBC_EncryptionEED1Ev@Base 0.4.1
 _ZN8CryptoPP36CipherModeFinalTemplate_CipherHolderINS_16BlockCipherFinalILNS_9CipherDirE0ENS_8DES_EDE34BaseEEENS_14CBC_EncryptionEED2Ev@Base 0.4.1
 _ZN8CryptoPP36CipherModeFinalTemplate_CipherHolderINS_16BlockCipherFinalILNS_9CipherDirE1ENS_8DES_EDE34BaseEEENS_14CBC_DecryptionEED0Ev@Base 0.4.1
 _ZN8CryptoPP36CipherModeFinalTemplate_CipherHolderINS_16BlockCipherFinalILNS_9CipherDirE1ENS_8DES_EDE34BaseEEENS_14CBC_DecryptionEED1Ev@Base 0.4.1
 _ZN8CryptoPP36CipherModeFinalTemplate_CipherHolderINS_16BlockCipherFinalILNS_9CipherDirE1ENS_8DES_EDE34BaseEEENS_14CBC_DecryptionEED2Ev@Base 0.4.1
 _ZN8CryptoPP4ASN19secp256r1Ev@Base 0.4.1
 _ZN8CryptoPP4HMACINS_4SHA1EE10AccessHashEv@Base 0.4.1
 _ZN8CryptoPP4HMACINS_4SHA1EED0Ev@Base 0.4.1
 _ZN8CryptoPP4HMACINS_4SHA1EED1Ev@Base 0.4.1
 _ZN8CryptoPP4HMACINS_4SHA1EED2Ev@Base 0.4.1
 _ZN8CryptoPP4SHA1D0Ev@Base 0.4.1
 _ZN8CryptoPP4SHA1D1Ev@Base 0.4.1
 _ZN8CryptoPP4SHA1D2Ev@Base 0.4.1
 _ZN8CryptoPP5Store18IsolatedInitializeERKNS_14NameValuePairsE@Base 0.4.1
 _ZN8CryptoPP6Filter10AttachableEv@Base 0.4.1
 _ZN8CryptoPP8ECPPointD1Ev@Base 0.4.1
 _ZN8CryptoPP8ECPPointD2Ev@Base 0.4.1
 _ZN8CryptoPP8FileSinkC1EPKcb@Base 0.4.1
 _ZN8CryptoPP8FileSinkC1ERSo@Base 0.4.1
 _ZN8CryptoPP8FileSinkC2EPKcb@Base 0.4.1
 _ZN8CryptoPP8FileSinkC2ERSo@Base 0.4.1
 _ZN8CryptoPP8SecBlockIhNS_20AllocatorWithCleanupIhLb0EEEE6AssignEPKhm@Base 0.4.1
 _ZN8CryptoPP8memcpy_sEPvmPKvm@Base 0.4.1
 _ZN8CryptoPP9ExceptionC1ENS0_9ErrorTypeERKNSt7__cxx1112basic_stringIcSt11char_traitsIcESaIcEEE@Base 0.4.1
 _ZN8CryptoPP9ExceptionC2ENS0_9ErrorTypeERKNSt7__cxx1112basic_stringIcSt11char_traitsIcESaIcEEE@Base 0.4.1
 _ZN8CryptoPP9ExceptionD0Ev@Base 0.4.1
 _ZN8CryptoPP9ExceptionD1Ev@Base 0.4.1
 _ZN8CryptoPP9ExceptionD2Ev@Base 0.4.1
 _ZN8CryptoPPplERKNS_3OIDEm@Base 0.4.1
 _ZN9__gnu_cxx12__to_xstringINSt7__cxx1112basic_stringIcSt11char_traitsIcESaIcEEEcEET_PFiPT0_mPKS8_P13__va_list_tagEmSB_z@Base 0.4.1
 _ZNK3ndn10KeyLocator10wireEncodeEv@Base 0.4.1
 _ZNK3ndn10KeyLocator10wireEncodeILb0EEEmRNS_8encoding12EncodingImplIXT_EEE@Base 0.4.1
 _ZNK3ndn10KeyLocator10wireEncodeILb1EEEmRNS_8encoding12EncodingImplIXT_EEE@Base 0.4.1
 _ZNK3ndn10KeyLocator12getKeyDigestEv@Base 0.4.1
 _ZNK3ndn10KeyLocator7getNameEv@Base 0.4.1
 _ZNK3ndn10KeyLocatoreqERKS0_@Base 0.4.1
 _ZNK3ndn13SignatureInfo10wireEncodeEv@Base 0.4.1
 _ZNK3ndn13SignatureInfo10wireEncodeILb0EEEmRNS_8encoding12EncodingImplIXT_EEE@Base 0.4.1
 _ZNK3ndn13SignatureInfo10wireEncodeILb1EEEmRNS_8encoding12EncodingImplIXT_EEE@Base 0.4.1
 _ZNK3ndn13SignatureInfo13getKeyLocatorEv@Base 0.4.1
 _ZNK3ndn13SignatureInfo17getValidityPeriodEv@Base 0.4.1
 _ZNK3ndn13SignatureInfo18getTypeSpecificTlvEj@Base 0.4.1
 _ZNK3ndn13SignatureInfoeqERKS0_@Base 0.4.1
 _ZNK3ndn14InterestFilter9doesMatchERKNS_4NameE@Base 0.4.1
 _ZNK3ndn14InterestFiltercvRKNS_4NameEEv@Base 0.4.1
 _ZNK3ndn2lp10NackHeader10wireEncodeEv@Base 0.4.1
 _ZNK3ndn2lp10NackHeader10wireEncodeILb0EEEmRNS_8encoding12EncodingImplIXT_EEE@Base 0.4.1
 _ZNK3ndn2lp10NackHeader10wireEncodeILb1EEEmRNS_8encoding12EncodingImplIXT_EEE@Base 0.4.1
 _ZNK3ndn2lp10NackHeader9getReasonEv@Base 0.4.1
 _ZNK3ndn2lp11CachePolicy10wireEncodeEv@Base 0.4.1
 _ZNK3ndn2lp11CachePolicy10wireEncodeILb0EEEmRNS_8encoding12EncodingImplIXT_EEE@Base 0.4.1
 _ZNK3ndn2lp11CachePolicy10wireEncodeILb1EEEmRNS_8encoding12EncodingImplIXT_EEE@Base 0.4.1
 _ZNK3ndn2lp11CachePolicy9getPolicyEv@Base 0.4.1
 _ZNK3ndn2lp6Packet10wireEncodeEv@Base 0.4.1
 _ZNK3ndn2lp6Packet10wireEncodeILb0EEEmRNS_8encoding12EncodingImplIXT_EEE@Base 0.4.1
 _ZNK3ndn2lp6Packet10wireEncodeILb1EEEmRNS_8encoding12EncodingImplIXT_EEE@Base 0.4.1
 _ZNK3ndn2lp6Packet3getINS0_6detail9FieldDeclINS0_19field_location_tags6HeaderEmLm816ELb0EEEEENT_9ValueTypeEm@Base 0.4.1
 _ZNK3ndn2lp6Packet3getINS0_6detail9FieldDeclINS0_19field_location_tags6HeaderEmLm817ELb0EEEEENT_9ValueTypeEm@Base 0.4.1
 _ZNK3ndn2lp6Packet5countINS0_6detail9FieldDeclINS0_19field_location_tags6HeaderEmLm816ELb0EEEEEmv@Base 0.4.1
 _ZNK3ndn2lp6Packet5countINS0_6detail9FieldDeclINS0_19field_location_tags6HeaderEmLm817ELb0EEEEEmv@Base 0.4.1
 _ZNK3ndn3Oid5equalERKS0_@Base 0.4.1
 _ZNK3ndn3Oid6encodeERN8CryptoPP22BufferedTransformationE@Base 0.4.1
 _ZNK3ndn3Oid8toStringB5cxx11Ev@Base 0.4.1
 _ZNK3ndn3nfd10FaceStatus10wireEncodeEv@Base 0.4.1
 _ZNK3ndn3nfd10FaceStatus10wireEncodeILb0EEEmRNS_8encoding12EncodingImplIXT_EEE@Base 0.4.1
 _ZNK3ndn3nfd10FaceStatus10wireEncodeILb1EEEmRNS_8encoding12EncodingImplIXT_EEE@Base 0.4.1
 _ZNK3ndn3nfd10FaceStatus9wireResetEv@Base 0.4.1
 _ZNK3ndn3nfd10FibDataset11parseResultESt10shared_ptrIKNS_6BufferEE@Base 0.4.1
 _ZNK3ndn3nfd10RibDataset11parseResultESt10shared_ptrIKNS_6BufferEE@Base 0.4.1
 _ZNK3ndn3nfd13ChannelStatus10wireEncodeEv@Base 0.4.1
 _ZNK3ndn3nfd13ChannelStatus10wireEncodeILb0EEEmRNS_8encoding12EncodingImplIXT_EEE@Base 0.4.1
 _ZNK3ndn3nfd13ChannelStatus10wireEncodeILb1EEEmRNS_8encoding12EncodingImplIXT_EEE@Base 0.4.1
 _ZNK3ndn3nfd13NextHopRecord10wireEncodeEv@Base 0.4.1
 _ZNK3ndn3nfd13NextHopRecord10wireEncodeILb0EEEmRNS_8encoding12EncodingImplIXT_EEE@Base 0.4.1
 _ZNK3ndn3nfd13NextHopRecord10wireEncodeILb1EEEmRNS_8encoding12EncodingImplIXT_EEE@Base 0.4.1
 _ZNK3ndn3nfd13StatusDataset13addParametersERNS_4NameE@Base 0.4.1
 _ZNK3ndn3nfd13StatusDataset16getDatasetPrefixERKNS_4NameE@Base 0.4.1
 _ZNK3ndn3nfd14ChannelDataset11parseResultESt10shared_ptrIKNS_6BufferEE@Base 0.4.1
 _ZNK3ndn3nfd14ControlCommand14FieldValidator8validateERKNS0_17ControlParametersE@Base 0.4.1
 _ZNK3ndn3nfd14ControlCommand14getRequestNameERKNS_4NameERKNS0_17ControlParametersE@Base 0.4.1
 _ZNK3ndn3nfd14ControlCommand15validateRequestERKNS0_17ControlParametersE@Base 0.4.1
 _ZNK3ndn3nfd14ControlCommand16validateResponseERKNS0_17ControlParametersE@Base 0.4.1
 _ZNK3ndn3nfd14ControlCommand22applyDefaultsToRequestERNS0_17ControlParametersE@Base 0.4.1
 _ZNK3ndn3nfd14ControlCommand23applyDefaultsToResponseERNS0_17ControlParametersE@Base 0.4.1
 _ZNK3ndn3nfd14StrategyChoice10wireEncodeEv@Base 0.4.1
 _ZNK3ndn3nfd14StrategyChoice10wireEncodeILb0EEEmRNS_8encoding12EncodingImplIXT_EEE@Base 0.4.1
 _ZNK3ndn3nfd14StrategyChoice10wireEncodeILb1EEEmRNS_8encoding12EncodingImplIXT_EEE@Base 0.4.1
 _ZNK3ndn3nfd15FaceDatasetBase11parseResultESt10shared_ptrIKNS_6BufferEE@Base 0.4.1
 _ZNK3ndn3nfd15FaceQueryFilter10wireEncodeEv@Base 0.4.1
 _ZNK3ndn3nfd15FaceQueryFilter10wireEncodeILb0EEEmRNS_8encoding12EncodingImplIXT_EEE@Base 0.4.1
 _ZNK3ndn3nfd15FaceQueryFilter10wireEncodeILb1EEEmRNS_8encoding12EncodingImplIXT_EEE@Base 0.4.1
 _ZNK3ndn3nfd15ForwarderStatus10wireEncodeEv@Base 0.4.1
 _ZNK3ndn3nfd15ForwarderStatus10wireEncodeILb0EEEmRNS_8encoding12EncodingImplIXT_EEE@Base 0.4.1
 _ZNK3ndn3nfd15ForwarderStatus10wireEncodeILb1EEEmRNS_8encoding12EncodingImplIXT_EEE@Base 0.4.1
 _ZNK3ndn3nfd16FaceQueryDataset13addParametersERNS_4NameE@Base 0.4.1
 _ZNK3ndn3nfd17ControlParameters10getFlagBitEm@Base 0.4.1
 _ZNK3ndn3nfd17ControlParameters10hasFlagBitEm@Base 0.4.1
 _ZNK3ndn3nfd17ControlParameters10wireEncodeEv@Base 0.4.1
 _ZNK3ndn3nfd17ControlParameters10wireEncodeILb0EEEmRNS_8encoding12EncodingImplIXT_EEE@Base 0.4.1
 _ZNK3ndn3nfd17ControlParameters10wireEncodeILb1EEEmRNS_8encoding12EncodingImplIXT_EEE@Base 0.4.1
 _ZNK3ndn3nfd17FaceCreateCommand15validateRequestERKNS0_17ControlParametersE@Base 0.4.1
 _ZNK3ndn3nfd17FaceCreateCommand16validateResponseERKNS0_17ControlParametersE@Base 0.4.1
 _ZNK3ndn3nfd17FaceCreateCommand22applyDefaultsToRequestERNS0_17ControlParametersE@Base 0.4.1
 _ZNK3ndn3nfd17FaceUpdateCommand15validateRequestERKNS0_17ControlParametersE@Base 0.4.1
 _ZNK3ndn3nfd17FaceUpdateCommand16validateResponseERKNS0_17ControlParametersE@Base 0.4.1
 _ZNK3ndn3nfd17FaceUpdateCommand22applyDefaultsToRequestERNS0_17ControlParametersE@Base 0.4.1
 _ZNK3ndn3nfd18FaceDestroyCommand15validateRequestERKNS0_17ControlParametersE@Base 0.4.1
 _ZNK3ndn3nfd18FaceDestroyCommand16validateResponseERKNS0_17ControlParametersE@Base 0.4.1
 _ZNK3ndn3nfd18RibRegisterCommand16validateResponseERKNS0_17ControlParametersE@Base 0.4.1
 _ZNK3ndn3nfd18RibRegisterCommand22applyDefaultsToRequestERNS0_17ControlParametersE@Base 0.4.1
 _ZNK3ndn3nfd20FibAddNextHopCommand16validateResponseERKNS0_17ControlParametersE@Base 0.4.1
 _ZNK3ndn3nfd20FibAddNextHopCommand22applyDefaultsToRequestERNS0_17ControlParametersE@Base 0.4.1
 _ZNK3ndn3nfd20RibUnregisterCommand16validateResponseERKNS0_17ControlParametersE@Base 0.4.1
 _ZNK3ndn3nfd20RibUnregisterCommand22applyDefaultsToRequestERNS0_17ControlParametersE@Base 0.4.1
 _ZNK3ndn3nfd21FaceEventNotification10wireEncodeEv@Base 0.4.1
 _ZNK3ndn3nfd21FaceEventNotification10wireEncodeILb0EEEmRNS_8encoding12EncodingImplIXT_EEE@Base 0.4.1
 _ZNK3ndn3nfd21FaceEventNotification10wireEncodeILb1EEEmRNS_8encoding12EncodingImplIXT_EEE@Base 0.4.1
 _ZNK3ndn3nfd21FaceEventNotification9wireResetEv@Base 0.4.1
 _ZNK3ndn3nfd21StrategyChoiceDataset11parseResultESt10shared_ptrIKNS_6BufferEE@Base 0.4.1
 _ZNK3ndn3nfd23FaceLocalControlCommand15validateRequestERKNS0_17ControlParametersE@Base 0.4.1
 _ZNK3ndn3nfd23FaceLocalControlCommand16validateResponseERKNS0_17ControlParametersE@Base 0.4.1
 _ZNK3ndn3nfd23FibRemoveNextHopCommand16validateResponseERKNS0_17ControlParametersE@Base 0.4.1
 _ZNK3ndn3nfd23FibRemoveNextHopCommand22applyDefaultsToRequestERNS0_17ControlParametersE@Base 0.4.1
 _ZNK3ndn3nfd26StrategyChoiceUnsetCommand15validateRequestERKNS0_17ControlParametersE@Base 0.4.1
 _ZNK3ndn3nfd26StrategyChoiceUnsetCommand16validateResponseERKNS0_17ControlParametersE@Base 0.4.1
 _ZNK3ndn3nfd29ForwarderGeneralStatusDataset11parseResultESt10shared_ptrIKNS_6BufferEE@Base 0.4.1
 _ZNK3ndn3nfd5Route10wireEncodeEv@Base 0.4.1
 _ZNK3ndn3nfd5Route10wireEncodeILb0EEEmRNS_8encoding12EncodingImplIXT_EEE@Base 0.4.1
 _ZNK3ndn3nfd5Route10wireEncodeILb1EEEmRNS_8encoding12EncodingImplIXT_EEE@Base 0.4.1
 _ZNK3ndn3nfd8FibEntry10wireEncodeEv@Base 0.4.1
 _ZNK3ndn3nfd8FibEntry10wireEncodeILb0EEEmRNS_8encoding12EncodingImplIXT_EEE@Base 0.4.1
 _ZNK3ndn3nfd8FibEntry10wireEncodeILb1EEEmRNS_8encoding12EncodingImplIXT_EEE@Base 0.4.1
 _ZNK3ndn3nfd8RibEntry10wireEncodeEv@Base 0.4.1
 _ZNK3ndn3nfd8RibEntry10wireEncodeILb0EEEmRNS_8encoding12EncodingImplIXT_EEE@Base 0.4.1
 _ZNK3ndn3nfd8RibEntry10wireEncodeILb1EEEmRNS_8encoding12EncodingImplIXT_EEE@Base 0.4.1
 _ZNK3ndn4Data10getContentEv@Base 0.4.1
 _ZNK3ndn4Data10wireEncodeERNS_8encoding12EncodingImplILb1EEERKNS_5BlockE@Base 0.4.1
 _ZNK3ndn4Data10wireEncodeEv@Base 0.4.1
 _ZNK3ndn4Data10wireEncodeILb0EEEmRNS_8encoding12EncodingImplIXT_EEEb@Base 0.4.1
 _ZNK3ndn4Data10wireEncodeILb1EEEmRNS_8encoding12EncodingImplIXT_EEEb@Base 0.4.1
 _ZNK3ndn4Data11getFullNameEv@Base 0.4.1
 _ZNK3ndn4DataeqERKS0_@Base 0.4.1
 _ZNK3ndn4DataneERKS0_@Base 0.4.1
 _ZNK3ndn4Face20getNPendingInterestsEv@Base 0.4.1
 _ZNK3ndn4Link13encodeContentILb0EEEmRNS_8encoding12EncodingImplIXT_EEE@Base 0.4.1
 _ZNK3ndn4Link13encodeContentILb1EEEmRNS_8encoding12EncodingImplIXT_EEE@Base 0.4.1
 _ZNK3ndn4Link14getDelegationsEv@Base 0.4.1
 _ZNK3ndn4Name10getSubNameElm@Base 0.4.1
 _ZNK3ndn4Name10isPrefixOfERKS0_@Base 0.4.1
 _ZNK3ndn4Name10wireEncodeEv@Base 0.4.1
 _ZNK3ndn4Name10wireEncodeILb0EEEmRNS_8encoding12EncodingImplIXT_EEE@Base 0.4.1
 _ZNK3ndn4Name10wireEncodeILb1EEEmRNS_8encoding12EncodingImplIXT_EEE@Base 0.4.1
 _ZNK3ndn4Name12getSuccessorEv@Base 0.4.1
 _ZNK3ndn4Name5toUriB5cxx11Ev@Base 0.4.1
 _ZNK3ndn4Name6equalsERKS0_@Base 0.4.1
 _ZNK3ndn4Name7compareEmmRKS0_mm@Base 0.4.1
 _ZNK3ndn4Name8deepCopyEv@Base 0.4.1
 _ZNK3ndn4mgmt15ControlResponse10wireEncodeEv@Base 0.4.1
 _ZNK3ndn4mgmt20StatusDatasetContext9getExpiryEv@Base 0.4.1
 _ZNK3ndn4mgmt20StatusDatasetContext9getPrefixEv@Base 0.4.1
 _ZNK3ndn4name9Component10wireEncodeEv@Base 0.4.1
 _ZNK3ndn4name9Component10wireEncodeILb0EEEmRNS_8encoding12EncodingImplIXT_EEE@Base 0.4.1
 _ZNK3ndn4name9Component10wireEncodeILb1EEEmRNS_8encoding12EncodingImplIXT_EEE@Base 0.4.1
 _ZNK3ndn4name9Component11isTimestampEv@Base 0.4.1
 _ZNK3ndn4name9Component11toTimestampEv@Base 0.4.1
 _ZNK3ndn4name9Component12getSuccessorEv@Base 0.4.1
 _ZNK3ndn4name9Component15isSegmentOffsetEv@Base 0.4.1
 _ZNK3ndn4name9Component15toSegmentOffsetEv@Base 0.4.1
 _ZNK3ndn4name9Component16isSequenceNumberEv@Base 0.4.1
 _ZNK3ndn4name9Component16toSequenceNumberEv@Base 0.4.1
 _ZNK3ndn4name9Component18isNumberWithMarkerEh@Base 0.4.1
 _ZNK3ndn4name9Component18toNumberWithMarkerEh@Base 0.4.1
 _ZNK3ndn4name9Component22isImplicitSha256DigestEv@Base 0.4.1
 _ZNK3ndn4name9Component5toUriB5cxx11Ev@Base 0.4.1
 _ZNK3ndn4name9Component5toUriERSo@Base 0.4.1
 _ZNK3ndn4name9Component6equalsERKS1_@Base 0.4.1
 _ZNK3ndn4name9Component7compareERKS1_@Base 0.4.1
 _ZNK3ndn4name9Component8isNumberEv@Base 0.4.1
 _ZNK3ndn4name9Component8toNumberEv@Base 0.4.1
 _ZNK3ndn4name9Component9isGenericEv@Base 0.4.1
 _ZNK3ndn4name9Component9isSegmentEv@Base 0.4.1
 _ZNK3ndn4name9Component9isVersionEv@Base 0.4.1
 _ZNK3ndn4name9Component9toSegmentEv@Base 0.4.1
 _ZNK3ndn4name9Component9toVersionEv@Base 0.4.1
 _ZNK3ndn4time13UnitTestClockINS0_12steady_clockEE15toPosixDurationERKN5boost6chrono8durationIlNS4_5ratioILl1ELl1000000000EEEEE@Base 0.4.1
 _ZNK3ndn4time13UnitTestClockINS0_12steady_clockEE6getNowEv@Base 0.4.1
 _ZNK3ndn4time13UnitTestClockINS0_12steady_clockEE8getSinceB5cxx11Ev@Base 0.4.1
 _ZNK3ndn4time13UnitTestClockINS0_12system_clockEE15toPosixDurationERKN5boost6chrono8durationIlNS4_5ratioILl1ELl1000000000EEEEE@Base 0.4.1
 _ZNK3ndn4time13UnitTestClockINS0_12system_clockEE6getNowEv@Base 0.4.1
 _ZNK3ndn4time13UnitTestClockINS0_12system_clockEE8getSinceB5cxx11Ev@Base 0.4.1
 _ZNK3ndn4util15InMemoryStorage10printCacheERSo@Base 0.4.1
 _ZNK3ndn4util15InMemoryStorage11selectChildERKNS_8InterestEN5boost11multi_index6detail19bidir_node_iteratorINS7_18ordered_index_nodeINS7_19null_augment_policyENS7_15index_node_baseIPNS0_20InMemoryStorageEntryESaISD_EEEEEEE@Base 0.4.1
 _ZNK3ndn4util15InMemoryStorage13findNextFreshEN5boost11multi_index6detail19bidir_node_iteratorINS4_18ordered_index_nodeINS4_19null_augment_policyENS4_15index_node_baseIPNS0_20InMemoryStorageEntryESaISA_EEEEEEE@Base 0.4.1
 _ZNK3ndn4util15InMemoryStorage3endEv@Base 0.4.1
 _ZNK3ndn4util15InMemoryStorage5beginEv@Base 0.4.1
 _ZNK3ndn4util19TcpCanonizeProvider12checkAddressB5cxx11ERKN5boost4asio2ip7addressE@Base 0.4.1
 _ZNK3ndn4util21EtherCanonizeProvider10getSchemesB5cxx11Ev@Base 0.4.1
 _ZNK3ndn4util21EtherCanonizeProvider11isCanonicalERKNS0_7FaceUriE@Base 0.4.1
 _ZNK3ndn4util21EtherCanonizeProvider8canonizeERKNS0_7FaceUriERKSt8functionIFvS4_EERKS5_IFvRKNSt7__cxx1112basic_stringIcSt11char_traitsIcESaIcEEEEERN5boost4asio10io_serviceERKNSM_6chrono8durationIlNSM_5ratioILl1ELl1000000000EEEEE@Base 0.4.1
 _ZNK3ndn4util22IpHostCanonizeProviderIN5boost4asio2ip3tcpEE10getSchemesB5cxx11Ev@Base 0.4.1
 _ZNK3ndn4util22IpHostCanonizeProviderIN5boost4asio2ip3tcpEE11isCanonicalERKNS0_7FaceUriE@Base 0.4.1
 _ZNK3ndn4util22IpHostCanonizeProviderIN5boost4asio2ip3tcpEE12checkAddressB5cxx11ERKNS4_7addressE@Base 0.4.1
 _ZNK3ndn4util22IpHostCanonizeProviderIN5boost4asio2ip3tcpEE12onDnsFailureESt10shared_ptrINS0_7FaceUriEERKSt8functionIFvRKNSt7__cxx1112basic_stringIcSt11char_traitsIcESaIcEEEEESI_@Base 0.4.1
 _ZNK3ndn4util22IpHostCanonizeProviderIN5boost4asio2ip3tcpEE12onDnsSuccessESt10shared_ptrINS0_7FaceUriEERKSt8functionIFvRKS8_EERKSA_IFvRKNSt7__cxx1112basic_stringIcSt11char_traitsIcESaIcEEEEERKNS4_7addressE@Base 0.4.1
 _ZNK3ndn4util22IpHostCanonizeProviderIN5boost4asio2ip3tcpEE8canonizeERKNS0_7FaceUriERKSt8functionIFvS9_EERKSA_IFvRKNSt7__cxx1112basic_stringIcSt11char_traitsIcESaIcEEEEERNS3_10io_serviceERKNS2_6chrono8durationIlNS2_5ratioILl1ELl1000000000EEEEE@Base 0.4.1
 _ZNK3ndn4util22IpHostCanonizeProviderIN5boost4asio2ip3udpEE10getSchemesB5cxx11Ev@Base 0.4.1
 _ZNK3ndn4util22IpHostCanonizeProviderIN5boost4asio2ip3udpEE11isCanonicalERKNS0_7FaceUriE@Base 0.4.1
 _ZNK3ndn4util22IpHostCanonizeProviderIN5boost4asio2ip3udpEE12checkAddressB5cxx11ERKNS4_7addressE@Base 0.4.1
 _ZNK3ndn4util22IpHostCanonizeProviderIN5boost4asio2ip3udpEE12onDnsFailureESt10shared_ptrINS0_7FaceUriEERKSt8functionIFvRKNSt7__cxx1112basic_stringIcSt11char_traitsIcESaIcEEEEESI_@Base 0.4.1
 _ZNK3ndn4util22IpHostCanonizeProviderIN5boost4asio2ip3udpEE12onDnsSuccessESt10shared_ptrINS0_7FaceUriEERKSt8functionIFvRKS8_EERKSA_IFvRKNSt7__cxx1112basic_stringIcSt11char_traitsIcESaIcEEEEERKNS4_7addressE@Base 0.4.1
 _ZNK3ndn4util22IpHostCanonizeProviderIN5boost4asio2ip3udpEE8canonizeERKNS0_7FaceUriERKSt8functionIFvS9_EERKSA_IFvRKNSt7__cxx1112basic_stringIcSt11char_traitsIcESaIcEEEEERNS3_10io_serviceERKNS2_6chrono8durationIlNS2_5ratioILl1ELl1000000000EEEEE@Base 0.4.1
 _ZNK3ndn4util6DigestIN8CryptoPP6SHA256EE5emptyEv@Base 0.4.1
 _ZNK3ndn4util6signal10Connection11isConnectedEv@Base 0.4.1
 _ZNK3ndn4util6signal10ConnectioneqERKS2_@Base 0.4.1
 _ZNK3ndn4util6signal10ConnectionneERKS2_@Base 0.4.1
 _ZNK3ndn4util6signal16ScopedConnection11isConnectedEv@Base 0.4.1
 _ZNK3ndn4util7FaceUri11isCanonicalEv@Base 0.4.1
 _ZNK3ndn4util7FaceUri8canonizeERKSt8functionIFvRKS1_EERKS2_IFvRKNSt7__cxx1112basic_stringIcSt11char_traitsIcESaIcEEEEERN5boost4asio10io_serviceERKNSL_6chrono8durationIlNSL_5ratioILl1ELl1000000000EEEEE@Base 0.4.1
 _ZNK3ndn4util7FaceUri8toStringB5cxx11Ev@Base 0.4.1
 _ZNK3ndn4util7FaceUrieqERKS1_@Base 0.4.1
 _ZNK3ndn4util7FaceUrineERKS1_@Base 0.4.1
 _ZNK3ndn4util8ethernet7Address11isBroadcastEv@Base 0.4.1
 _ZNK3ndn4util8ethernet7Address11isMulticastEv@Base 0.4.1
 _ZNK3ndn4util8ethernet7Address6isNullEv@Base 0.4.1
 _ZNK3ndn4util8ethernet7Address8toStringB5cxx11Ec@Base 0.4.1
 _ZNK3ndn4util9scheduler17EventQueueCompareclERKSt10shared_ptrINS1_9EventInfoEES7_@Base 0.4.1
 _ZNK3ndn4util9scheduler7EventIdeqERKS2_@Base 0.4.1
 _ZNK3ndn4util9scheduler7EventIdntEv@Base 0.4.1
 _ZNK3ndn5Block10value_sizeEv@Base 0.4.1
 _ZNK3ndn5Block12elements_endEv@Base 0.4.1
 _ZNK3ndn5Block13elements_sizeEv@Base 0.4.1
 _ZNK3ndn5Block14blockFromValueEv@Base 0.4.1
 _ZNK3ndn5Block14elements_beginEv@Base 0.4.1
 _ZNK3ndn5Block3endEv@Base 0.4.1
 _ZNK3ndn5Block3getEj@Base 0.4.1
 _ZNK3ndn5Block4findEj@Base 0.4.1
 _ZNK3ndn5Block4sizeEv@Base 0.4.1
 _ZNK3ndn5Block4wireEv@Base 0.4.1
 _ZNK3ndn5Block5beginEv@Base 0.4.1
 _ZNK3ndn5Block5emptyEv@Base 0.4.1
 _ZNK3ndn5Block5parseEv@Base 0.4.1
 _ZNK3ndn5Block5valueEv@Base 0.4.1
 _ZNK3ndn5Block7hasWireEv@Base 0.4.1
 _ZNK3ndn5Block8hasValueEv@Base 0.4.1
 _ZNK3ndn5BlockcvN5boost4asio12const_bufferEEv@Base 0.4.1
 _ZNK3ndn5BlockeqERKS0_@Base 0.4.1
 _ZNK3ndn5BlockneERKS0_@Base 0.4.1
 _ZNK3ndn7Exclude10isExcludedERKNS_4name9ComponentE@Base 0.4.1
 _ZNK3ndn7Exclude10wireEncodeEv@Base 0.4.1
 _ZNK3ndn7Exclude10wireEncodeILb0EEEmRNS_8encoding12EncodingImplIXT_EEE@Base 0.4.1
 _ZNK3ndn7Exclude10wireEncodeILb1EEEmRNS_8encoding12EncodingImplIXT_EEE@Base 0.4.1
 _ZNK3ndn7Exclude4sizeEv@Base 0.4.1
 _ZNK3ndn7Exclude5RangeeqERKS1_@Base 0.4.1
 _ZNK3ndn7Exclude5toUriB5cxx11Ev@Base 0.4.1
 _ZNK3ndn7ExcludeeqERKS0_@Base 0.4.1
 _ZNK3ndn7TagHost6setTagINS_9SimpleTagImLi10EEEEEvSt10shared_ptrIT_E@Base 0.4.1
 _ZNK3ndn7TagHost6setTagINS_9SimpleTagImLi11EEEEEvSt10shared_ptrIT_E@Base 0.4.1
 _ZNK3ndn8Interest10wireEncodeEv@Base 0.4.1
 _ZNK3ndn8Interest10wireEncodeILb0EEEmRNS_8encoding12EncodingImplIXT_EEE@Base 0.4.1
 _ZNK3ndn8Interest10wireEncodeILb1EEEmRNS_8encoding12EncodingImplIXT_EEE@Base 0.4.1
 _ZNK3ndn8Interest11matchesDataERKNS_4DataE@Base 0.4.1
 _ZNK3ndn8Interest11matchesNameERKNS_4NameE@Base 0.4.1
 _ZNK3ndn8Interest21getSelectedDelegationEv@Base 0.4.1
 _ZNK3ndn8Interest21hasSelectedDelegationEv@Base 0.4.1
 _ZNK3ndn8Interest7getLinkEv@Base 0.4.1
 _ZNK3ndn8Interest7hasLinkEv@Base 0.4.1
 _ZNK3ndn8Interest8getNonceEv@Base 0.4.1
 _ZNK3ndn8MetaInfo10wireEncodeEv@Base 0.4.1
 _ZNK3ndn8MetaInfo10wireEncodeILb0EEEmRNS_8encoding12EncodingImplIXT_EEE@Base 0.4.1
 _ZNK3ndn8MetaInfo10wireEncodeILb1EEEmRNS_8encoding12EncodingImplIXT_EEE@Base 0.4.1
 _ZNK3ndn8MetaInfo14getAppMetaInfoB5cxx11Ev@Base 0.4.1
 _ZNK3ndn8MetaInfo15findAppMetaInfoEj@Base 0.4.1
 _ZNK3ndn8encoding7Encoder5blockEb@Base 0.4.1
 _ZNK3ndn8security10PibSqlite310getKeyBitsERKNS_4NameERKNS_4name9ComponentE@Base 0.4.1
 _ZNK3ndn8security10PibSqlite311hasIdentityERKNS_4NameE@Base 0.4.1
 _ZNK3ndn8security10PibSqlite313getIdentitiesEv@Base 0.4.1
 _ZNK3ndn8security10PibSqlite313getTpmLocatorB5cxx11Ev@Base 0.4.1
 _ZNK3ndn8security10PibSqlite314getCertificateERKNS_4NameE@Base 0.4.1
 _ZNK3ndn8security10PibSqlite314hasCertificateERKNS_4NameE@Base 0.4.1
 _ZNK3ndn8security10PibSqlite317getKeysOfIdentityERKNS_4NameE@Base 0.4.1
 _ZNK3ndn8security10PibSqlite318getDefaultIdentityEv@Base 0.4.1
 _ZNK3ndn8security10PibSqlite320getCertificatesOfKeyERKNS_4NameERKNS_4name9ComponentE@Base 0.4.1
 _ZNK3ndn8security10PibSqlite323getDefaultKeyOfIdentityERKNS_4NameE@Base 0.4.1
 _ZNK3ndn8security10PibSqlite326getDefaultCertificateOfKeyERKNS_4NameERKNS_4name9ComponentE@Base 0.4.1
 _ZNK3ndn8security10PibSqlite36hasKeyERKNS_4NameERKNS_4name9ComponentE@Base 0.4.1
 _ZNK3ndn8security10SecTpmFile13getInTerminalEv@Base 0.4.1
 _ZNK3ndn8security10SecuredBag10wireEncodeEv@Base 0.4.1
 _ZNK3ndn8security12KeyContainer3endEv@Base 0.4.1
 _ZNK3ndn8security12KeyContainer4findERKNS_4name9ComponentE@Base 0.4.1
 _ZNK3ndn8security12KeyContainer4sizeEv@Base 0.4.1
 _ZNK3ndn8security12KeyContainer5beginEv@Base 0.4.1
 _ZNK3ndn8security14ValidityPeriod10wireEncodeEv@Base 0.4.1
 _ZNK3ndn8security14ValidityPeriod10wireEncodeILb0EEEmRNS_8encoding12EncodingImplIXT_EEE@Base 0.4.1
 _ZNK3ndn8security14ValidityPeriod10wireEncodeILb1EEEmRNS_8encoding12EncodingImplIXT_EEE@Base 0.4.1
 _ZNK3ndn8security14ValidityPeriod7isValidERKN5boost6chrono10time_pointINS_4time12system_clockENS3_8durationIlNS2_5ratioILl1ELl1000000000EEEEEEE@Base 0.4.1
 _ZNK3ndn8security14ValidityPeriod9getPeriodEv@Base 0.4.1
 _ZNK3ndn8security14ValidityPeriodeqERKS1_@Base 0.4.1
 _ZNK3ndn8security14ValidityPeriodneERKS1_@Base 0.4.1
 _ZNK3ndn8security17IdentityContainer3endEv@Base 0.4.1
 _ZNK3ndn8security17IdentityContainer4findERKNS_4NameE@Base 0.4.1
 _ZNK3ndn8security17IdentityContainer4sizeEv@Base 0.4.1
 _ZNK3ndn8security17IdentityContainer5beginEv@Base 0.4.1
 _ZNK3ndn8security20CertificateContainer3endEv@Base 0.4.1
 _ZNK3ndn8security20CertificateContainer4findERKNS_4NameE@Base 0.4.1
 _ZNK3ndn8security20CertificateContainer4sizeEv@Base 0.4.1
 _ZNK3ndn8security20CertificateContainer5beginEv@Base 0.4.1
 _ZNK3ndn8security24CommandInterestValidator20parseCommandInterestERKNS_8InterestERNS_4NameERm@Base 0.4.1
 _ZNK3ndn8security2v111Certificate16printCertificateERSoRKNSt7__cxx1112basic_stringIcSt11char_traitsIcESaIcEEE@Base 0.4.1
 _ZNK3ndn8security2v120CertificateExtension6encodeERN8CryptoPP22BufferedTransformationE@Base 0.4.1
 _ZNK3ndn8security2v129CertificateSubjectDescription6encodeERN8CryptoPP22BufferedTransformationE@Base 0.4.1
 _ZNK3ndn8security2v19PublicKey13computeDigestEv@Base 0.4.1
 _ZNK3ndn8security2v19PublicKey6encodeERN8CryptoPP22BufferedTransformationE@Base 0.4.1
 _ZNK3ndn8security2v221AdditionalDescription10wireEncodeEv@Base 0.4.1
 _ZNK3ndn8security2v221AdditionalDescription10wireEncodeILb0EEEmRNS_8encoding12EncodingImplIXT_EEE@Base 0.4.1
 _ZNK3ndn8security2v221AdditionalDescription10wireEncodeILb1EEEmRNS_8encoding12EncodingImplIXT_EEE@Base 0.4.1
 _ZNK3ndn8security2v221AdditionalDescription3endB5cxx11Ev@Base 0.4.1
 _ZNK3ndn8security2v221AdditionalDescription3getERKNSt7__cxx1112basic_stringIcSt11char_traitsIcESaIcEEE@Base 0.4.1
 _ZNK3ndn8security2v221AdditionalDescription3hasERKNSt7__cxx1112basic_stringIcSt11char_traitsIcESaIcEEE@Base 0.4.1
 _ZNK3ndn8security2v221AdditionalDescription5beginB5cxx11Ev@Base 0.4.1
 _ZNK3ndn8security2v221AdditionalDescriptioneqERKS2_@Base 0.4.1
 _ZNK3ndn8security2v221AdditionalDescriptionneERKS2_@Base 0.4.1
 _ZNK3ndn8security3Key11getIdentityEv@Base 0.4.1
 _ZNK3ndn8security3Key12getPublicKeyEv@Base 0.4.1
 _ZNK3ndn8security3Key13validityCheckEv@Base 0.4.1
 _ZNK3ndn8security3Key14getCertificateERKNS_4NameE@Base 0.4.1
 _ZNK3ndn8security3Key15getCertificatesEv@Base 0.4.1
 _ZNK3ndn8security3Key21getDefaultCertificateEv@Base 0.4.1
 _ZNK3ndn8security3Key7getNameEv@Base 0.4.1
 _ZNK3ndn8security3Key8getKeyIdEv@Base 0.4.1
 _ZNK3ndn8security3KeycvbEv@Base 0.4.1
 _ZNK3ndn8security3KeyntEv@Base 0.4.1
 _ZNK3ndn8security3Pib11getIdentityERKNS_4NameE@Base 0.4.1
 _ZNK3ndn8security3Pib13getIdentitiesEv@Base 0.4.1
 _ZNK3ndn8security3Pib13getPibLocatorB5cxx11Ev@Base 0.4.1
 _ZNK3ndn8security3Pib13getTpmLocatorB5cxx11Ev@Base 0.4.1
 _ZNK3ndn8security3Pib18getDefaultIdentityEv@Base 0.4.1
 _ZNK3ndn8security7SafeBag10wireEncodeEv@Base 0.4.1
 _ZNK3ndn8security7SafeBag10wireEncodeILb0EEEmRNS_8encoding12EncodingImplIXT_EEE@Base 0.4.1
 _ZNK3ndn8security7SafeBag10wireEncodeILb1EEEmRNS_8encoding12EncodingImplIXT_EEE@Base 0.4.1
 _ZNK3ndn8security8Identity13getDefaultKeyEv@Base 0.4.1
 _ZNK3ndn8security8Identity13validityCheckEv@Base 0.4.1
 _ZNK3ndn8security8Identity6getKeyERKNS_4name9ComponentE@Base 0.4.1
 _ZNK3ndn8security8Identity7getKeysEv@Base 0.4.1
 _ZNK3ndn8security8Identity7getNameEv@Base 0.4.1
 _ZNK3ndn8security8IdentitycvbEv@Base 0.4.1
 _ZNK3ndn8security8IdentityntEv@Base 0.4.1
 _ZNK3ndn8security8KeyChain30getDefaultKeyParamsForIdentityERKNS_4NameE@Base 0.4.1
 _ZNK3ndn8security8KeyChain8pureSignEPKhmRKNS_4NameENS_15DigestAlgorithmE@Base 0.4.1
 _ZNK3ndn8security9PibMemory10getKeyBitsERKNS_4NameERKNS_4name9ComponentE@Base 0.4.1
 _ZNK3ndn8security9PibMemory10getKeyNameERKNS_4NameERKNS_4name9ComponentE@Base 0.4.1
 _ZNK3ndn8security9PibMemory11hasIdentityERKNS_4NameE@Base 0.4.1
 _ZNK3ndn8security9PibMemory13getIdentitiesEv@Base 0.4.1
 _ZNK3ndn8security9PibMemory13getTpmLocatorB5cxx11Ev@Base 0.4.1
 _ZNK3ndn8security9PibMemory14getCertificateERKNS_4NameE@Base 0.4.1
 _ZNK3ndn8security9PibMemory14hasCertificateERKNS_4NameE@Base 0.4.1
 _ZNK3ndn8security9PibMemory17getKeysOfIdentityERKNS_4NameE@Base 0.4.1
 _ZNK3ndn8security9PibMemory18getDefaultIdentityEv@Base 0.4.1
 _ZNK3ndn8security9PibMemory20getCertificatesOfKeyERKNS_4NameERKNS_4name9ComponentE@Base 0.4.1
 _ZNK3ndn8security9PibMemory23getDefaultKeyOfIdentityERKNS_4NameE@Base 0.4.1
 _ZNK3ndn8security9PibMemory26getDefaultCertificateOfKeyERKNS_4NameERKNS_4name9ComponentE@Base 0.4.1
 _ZNK3ndn8security9PibMemory6hasKeyERKNS_4NameERKNS_4name9ComponentE@Base 0.4.1
 _ZNK3ndn8security9transform10PrivateKey10getEvpPkeyEv@Base 0.4.1
 _ZNK3ndn8security9transform10PrivateKey10rsaDecryptEPKhm@Base 0.4.1
 _ZNK3ndn8security9transform10PrivateKey15derivePublicKeyEv@Base 0.4.1
 _ZNK3ndn8security9transform10PrivateKey15savePkcs1Base64ERSo@Base 0.4.1
 _ZNK3ndn8security9transform10PrivateKey15savePkcs8Base64ERSoPKcm@Base 0.4.1
 _ZNK3ndn8security9transform10PrivateKey15savePkcs8Base64ERSoSt8functionIFiPcmbEE@Base 0.4.1
 _ZNK3ndn8security9transform10PrivateKey7decryptEPKhm@Base 0.4.1
 _ZNK3ndn8security9transform10PrivateKey7toPkcs1Ev@Base 0.4.1
 _ZNK3ndn8security9transform10PrivateKey7toPkcs8EPKcm@Base 0.4.1
 _ZNK3ndn8security9transform10PrivateKey7toPkcs8ESt8functionIFiPcmbEE@Base 0.4.1
 _ZNK3ndn8security9transform10PrivateKey9savePkcs1ERSo@Base 0.4.1
 _ZNK3ndn8security9transform10PrivateKey9savePkcs8ERSoPKcm@Base 0.4.1
 _ZNK3ndn8security9transform10PrivateKey9savePkcs8ERSoSt8functionIFiPcmbEE@Base 0.4.1
 _ZNK3ndn8security9transform11BlockCipher16isConverterEmptyEv@Base 0.4.1
 _ZNK3ndn8security9transform9PublicKey10getEvpPkeyEv@Base 0.4.1
 _ZNK3ndn8security9transform9PublicKey10getKeyTypeEv@Base 0.4.1
 _ZNK3ndn8security9transform9PublicKey10rsaEncryptEPKhm@Base 0.4.1
 _ZNK3ndn8security9transform9PublicKey15savePkcs8Base64ERSo@Base 0.4.1
 _ZNK3ndn8security9transform9PublicKey7encryptEPKhm@Base 0.4.1
 _ZNK3ndn8security9transform9PublicKey7toPkcs8Ev@Base 0.4.1
 _ZNK3ndn8security9transform9PublicKey9savePkcs8ERSo@Base 0.4.1
 _ZNK3ndn8security9transform9Transform19isOutputBufferEmptyEv@Base 0.4.1
 _ZNK3ndn9Selectors10wireEncodeEv@Base 0.4.1
 _ZNK3ndn9Selectors10wireEncodeILb0EEEmRNS_8encoding12EncodingImplIXT_EEE@Base 0.4.1
 _ZNK3ndn9Selectors10wireEncodeILb1EEEmRNS_8encoding12EncodingImplIXT_EEE@Base 0.4.1
 _ZNK3ndn9Selectors5emptyEv@Base 0.4.1
 _ZNK3ndn9SelectorseqERKS0_@Base 0.4.1
 _ZNK5boost13match_resultsIN9__gnu_cxx17__normal_iteratorIPKcNSt7__cxx1112basic_stringIcSt11char_traitsIcESaIcEEEEESaINS_9sub_matchISB_EEEEixEi@Base 0.4.1
 _ZNK5boost13property_tree11basic_ptreeINSt7__cxx1112basic_stringIcSt11char_traitsIcESaIcEEES7_St4lessIS7_EE9walk_pathERNS0_11string_pathIS7_NS0_13id_translatorIS7_EEEE@Base 0.4.1
 _ZNK5boost16bad_lexical_cast4whatEv@Base 0.4.1
 _ZNK5boost16cpp_regex_traitsIcE7isctypeEcj@Base 0.4.1
 _ZNK5boost16exception_detail10clone_implINS0_19error_info_injectorIN3ndn10ConfigFile5ErrorEEEE5cloneEv@Base 0.4.1
 _ZNK5boost16exception_detail10clone_implINS0_19error_info_injectorIN3ndn10ConfigFile5ErrorEEEE7rethrowEv@Base 0.4.1
 _ZNK5boost16exception_detail10clone_implINS0_19error_info_injectorIN3ndn10KeyLocator5ErrorEEEE5cloneEv@Base 0.4.1
 _ZNK5boost16exception_detail10clone_implINS0_19error_info_injectorIN3ndn10KeyLocator5ErrorEEEE7rethrowEv@Base 0.4.1
 _ZNK5boost16exception_detail10clone_implINS0_19error_info_injectorIN3ndn12DigestSha2565ErrorEEEE5cloneEv@Base 0.4.1
 _ZNK5boost16exception_detail10clone_implINS0_19error_info_injectorIN3ndn12DigestSha2565ErrorEEEE7rethrowEv@Base 0.4.1
 _ZNK5boost16exception_detail10clone_implINS0_19error_info_injectorIN3ndn12RegexMatcher5ErrorEEEE5cloneEv@Base 0.4.1
 _ZNK5boost16exception_detail10clone_implINS0_19error_info_injectorIN3ndn12RegexMatcher5ErrorEEEE7rethrowEv@Base 0.4.1
 _ZNK5boost16exception_detail10clone_implINS0_19error_info_injectorIN3ndn13SignatureInfo5ErrorEEEE5cloneEv@Base 0.4.1
 _ZNK5boost16exception_detail10clone_implINS0_19error_info_injectorIN3ndn13SignatureInfo5ErrorEEEE7rethrowEv@Base 0.4.1
 _ZNK5boost16exception_detail10clone_implINS0_19error_info_injectorIN3ndn14InterestFilter5ErrorEEEE5cloneEv@Base 0.4.1
 _ZNK5boost16exception_detail10clone_implINS0_19error_info_injectorIN3ndn14InterestFilter5ErrorEEEE7rethrowEv@Base 0.4.1
 _ZNK5boost16exception_detail10clone_implINS0_19error_info_injectorIN3ndn15SecRuleRelative5ErrorEEEE5cloneEv@Base 0.4.1
 _ZNK5boost16exception_detail10clone_implINS0_19error_info_injectorIN3ndn15SecRuleRelative5ErrorEEEE7rethrowEv@Base 0.4.1
 _ZNK5boost16exception_detail10clone_implINS0_19error_info_injectorIN3ndn17StringHelperErrorEEEE5cloneEv@Base 0.4.1
 _ZNK5boost16exception_detail10clone_implINS0_19error_info_injectorIN3ndn17StringHelperErrorEEEE7rethrowEv@Base 0.4.1
 _ZNK5boost16exception_detail10clone_implINS0_19error_info_injectorIN3ndn22SignatureSha256WithRsa5ErrorEEEE5cloneEv@Base 0.4.1
 _ZNK5boost16exception_detail10clone_implINS0_19error_info_injectorIN3ndn22SignatureSha256WithRsa5ErrorEEEE7rethrowEv@Base 0.4.1
 _ZNK5boost16exception_detail10clone_implINS0_19error_info_injectorIN3ndn24SignatureSha256WithEcdsa5ErrorEEEE5cloneEv@Base 0.4.1
 _ZNK5boost16exception_detail10clone_implINS0_19error_info_injectorIN3ndn24SignatureSha256WithEcdsa5ErrorEEEE7rethrowEv@Base 0.4.1
 _ZNK5boost16exception_detail10clone_implINS0_19error_info_injectorIN3ndn2io5ErrorEEEE5cloneEv@Base 0.4.1
 _ZNK5boost16exception_detail10clone_implINS0_19error_info_injectorIN3ndn2io5ErrorEEEE7rethrowEv@Base 0.4.1
 _ZNK5boost16exception_detail10clone_implINS0_19error_info_injectorIN3ndn2lp11CachePolicy5ErrorEEEE5cloneEv@Base 0.4.1
 _ZNK5boost16exception_detail10clone_implINS0_19error_info_injectorIN3ndn2lp11CachePolicy5ErrorEEEE7rethrowEv@Base 0.4.1
 _ZNK5boost16exception_detail10clone_implINS0_19error_info_injectorIN3ndn2lp6Packet5ErrorEEEE5cloneEv@Base 0.4.1
 _ZNK5boost16exception_detail10clone_implINS0_19error_info_injectorIN3ndn2lp6Packet5ErrorEEEE7rethrowEv@Base 0.4.1
 _ZNK5boost16exception_detail10clone_implINS0_19error_info_injectorIN3ndn3dns5ErrorEEEE5cloneEv@Base 0.4.1
 _ZNK5boost16exception_detail10clone_implINS0_19error_info_injectorIN3ndn3dns5ErrorEEEE7rethrowEv@Base 0.4.1
 _ZNK5boost16exception_detail10clone_implINS0_19error_info_injectorIN3ndn3nfd10FaceTraitsINS4_10FaceStatusEE5ErrorEEEE5cloneEv@Base 0.4.1
 _ZNK5boost16exception_detail10clone_implINS0_19error_info_injectorIN3ndn3nfd10FaceTraitsINS4_10FaceStatusEE5ErrorEEEE7rethrowEv@Base 0.4.1
 _ZNK5boost16exception_detail10clone_implINS0_19error_info_injectorIN3ndn3nfd10FaceTraitsINS4_21FaceEventNotificationEE5ErrorEEEE5cloneEv@Base 0.4.1
 _ZNK5boost16exception_detail10clone_implINS0_19error_info_injectorIN3ndn3nfd10FaceTraitsINS4_21FaceEventNotificationEE5ErrorEEEE7rethrowEv@Base 0.4.1
 _ZNK5boost16exception_detail10clone_implINS0_19error_info_injectorIN3ndn3nfd13ChannelStatus5ErrorEEEE5cloneEv@Base 0.4.1
 _ZNK5boost16exception_detail10clone_implINS0_19error_info_injectorIN3ndn3nfd13ChannelStatus5ErrorEEEE7rethrowEv@Base 0.4.1
 _ZNK5boost16exception_detail10clone_implINS0_19error_info_injectorIN3ndn3nfd13NextHopRecord5ErrorEEEE5cloneEv@Base 0.4.1
 _ZNK5boost16exception_detail10clone_implINS0_19error_info_injectorIN3ndn3nfd13NextHopRecord5ErrorEEEE7rethrowEv@Base 0.4.1
 _ZNK5boost16exception_detail10clone_implINS0_19error_info_injectorIN3ndn3nfd13StatusDataset16ParseResultErrorEEEE5cloneEv@Base 0.4.1
 _ZNK5boost16exception_detail10clone_implINS0_19error_info_injectorIN3ndn3nfd13StatusDataset16ParseResultErrorEEEE7rethrowEv@Base 0.4.1
 _ZNK5boost16exception_detail10clone_implINS0_19error_info_injectorIN3ndn3nfd14ControlCommand13ArgumentErrorEEEE5cloneEv@Base 0.4.1
 _ZNK5boost16exception_detail10clone_implINS0_19error_info_injectorIN3ndn3nfd14ControlCommand13ArgumentErrorEEEE7rethrowEv@Base 0.4.1
 _ZNK5boost16exception_detail10clone_implINS0_19error_info_injectorIN3ndn3nfd14StrategyChoice5ErrorEEEE5cloneEv@Base 0.4.1
 _ZNK5boost16exception_detail10clone_implINS0_19error_info_injectorIN3ndn3nfd14StrategyChoice5ErrorEEEE7rethrowEv@Base 0.4.1
 _ZNK5boost16exception_detail10clone_implINS0_19error_info_injectorIN3ndn3nfd15FaceQueryFilter5ErrorEEEE5cloneEv@Base 0.4.1
 _ZNK5boost16exception_detail10clone_implINS0_19error_info_injectorIN3ndn3nfd15FaceQueryFilter5ErrorEEEE7rethrowEv@Base 0.4.1
 _ZNK5boost16exception_detail10clone_implINS0_19error_info_injectorIN3ndn3nfd15ForwarderStatus5ErrorEEEE5cloneEv@Base 0.4.1
 _ZNK5boost16exception_detail10clone_implINS0_19error_info_injectorIN3ndn3nfd15ForwarderStatus5ErrorEEEE7rethrowEv@Base 0.4.1
 _ZNK5boost16exception_detail10clone_implINS0_19error_info_injectorIN3ndn3nfd17ControlParameters5ErrorEEEE5cloneEv@Base 0.4.1
 _ZNK5boost16exception_detail10clone_implINS0_19error_info_injectorIN3ndn3nfd17ControlParameters5ErrorEEEE7rethrowEv@Base 0.4.1
 _ZNK5boost16exception_detail10clone_implINS0_19error_info_injectorIN3ndn3nfd5Route5ErrorEEEE5cloneEv@Base 0.4.1
 _ZNK5boost16exception_detail10clone_implINS0_19error_info_injectorIN3ndn3nfd5Route5ErrorEEEE7rethrowEv@Base 0.4.1
 _ZNK5boost16exception_detail10clone_implINS0_19error_info_injectorIN3ndn3nfd8FibEntry5ErrorEEEE5cloneEv@Base 0.4.1
 _ZNK5boost16exception_detail10clone_implINS0_19error_info_injectorIN3ndn3nfd8FibEntry5ErrorEEEE7rethrowEv@Base 0.4.1
 _ZNK5boost16exception_detail10clone_implINS0_19error_info_injectorIN3ndn3nfd8RibEntry5ErrorEEEE5cloneEv@Base 0.4.1
 _ZNK5boost16exception_detail10clone_implINS0_19error_info_injectorIN3ndn3nfd8RibEntry5ErrorEEEE7rethrowEv@Base 0.4.1
 _ZNK5boost16exception_detail10clone_implINS0_19error_info_injectorIN3ndn3tlv5ErrorEEEE5cloneEv@Base 0.4.1
 _ZNK5boost16exception_detail10clone_implINS0_19error_info_injectorIN3ndn3tlv5ErrorEEEE7rethrowEv@Base 0.4.1
 _ZNK5boost16exception_detail10clone_implINS0_19error_info_injectorIN3ndn4Data5ErrorEEEE5cloneEv@Base 0.4.1
 _ZNK5boost16exception_detail10clone_implINS0_19error_info_injectorIN3ndn4Data5ErrorEEEE7rethrowEv@Base 0.4.1
 _ZNK5boost16exception_detail10clone_implINS0_19error_info_injectorIN3ndn4Face5ErrorEEEE5cloneEv@Base 0.4.1
 _ZNK5boost16exception_detail10clone_implINS0_19error_info_injectorIN3ndn4Face5ErrorEEEE7rethrowEv@Base 0.4.1
 _ZNK5boost16exception_detail10clone_implINS0_19error_info_injectorIN3ndn4Link5ErrorEEEE5cloneEv@Base 0.4.1
 _ZNK5boost16exception_detail10clone_implINS0_19error_info_injectorIN3ndn4Link5ErrorEEEE7rethrowEv@Base 0.4.1
 _ZNK5boost16exception_detail10clone_implINS0_19error_info_injectorIN3ndn4Name5ErrorEEEE5cloneEv@Base 0.4.1
 _ZNK5boost16exception_detail10clone_implINS0_19error_info_injectorIN3ndn4Name5ErrorEEEE7rethrowEv@Base 0.4.1
 _ZNK5boost16exception_detail10clone_implINS0_19error_info_injectorIN3ndn4name9Component5ErrorEEEE5cloneEv@Base 0.4.1
 _ZNK5boost16exception_detail10clone_implINS0_19error_info_injectorIN3ndn4name9Component5ErrorEEEE7rethrowEv@Base 0.4.1
 _ZNK5boost16exception_detail10clone_implINS0_19error_info_injectorIN3ndn4util14NetworkMonitor5ErrorEEEE5cloneEv@Base 0.4.1
 _ZNK5boost16exception_detail10clone_implINS0_19error_info_injectorIN3ndn4util14NetworkMonitor5ErrorEEEE7rethrowEv@Base 0.4.1
 _ZNK5boost16exception_detail10clone_implINS0_19error_info_injectorIN3ndn4util15InMemoryStorage5ErrorEEEE5cloneEv@Base 0.4.1
 _ZNK5boost16exception_detail10clone_implINS0_19error_info_injectorIN3ndn4util15InMemoryStorage5ErrorEEEE7rethrowEv@Base 0.4.1
 _ZNK5boost16exception_detail10clone_implINS0_19error_info_injectorIN3ndn4util6DigestIN8CryptoPP6SHA256EE5ErrorEEEE5cloneEv@Base 0.4.1
 _ZNK5boost16exception_detail10clone_implINS0_19error_info_injectorIN3ndn4util6DigestIN8CryptoPP6SHA256EE5ErrorEEEE7rethrowEv@Base 0.4.1
 _ZNK5boost16exception_detail10clone_implINS0_19error_info_injectorIN3ndn4util7FaceUri5ErrorEEEE5cloneEv@Base 0.4.1
 _ZNK5boost16exception_detail10clone_implINS0_19error_info_injectorIN3ndn4util7FaceUri5ErrorEEEE7rethrowEv@Base 0.4.1
 _ZNK5boost16exception_detail10clone_implINS0_19error_info_injectorIN3ndn5Block5ErrorEEEE5cloneEv@Base 0.4.1
 _ZNK5boost16exception_detail10clone_implINS0_19error_info_injectorIN3ndn5Block5ErrorEEEE7rethrowEv@Base 0.4.1
 _ZNK5boost16exception_detail10clone_implINS0_19error_info_injectorIN3ndn7Exclude5ErrorEEEE5cloneEv@Base 0.4.1
 _ZNK5boost16exception_detail10clone_implINS0_19error_info_injectorIN3ndn7Exclude5ErrorEEEE7rethrowEv@Base 0.4.1
 _ZNK5boost16exception_detail10clone_implINS0_19error_info_injectorIN3ndn8Interest5ErrorEEEE5cloneEv@Base 0.4.1
 _ZNK5boost16exception_detail10clone_implINS0_19error_info_injectorIN3ndn8Interest5ErrorEEEE7rethrowEv@Base 0.4.1
 _ZNK5boost16exception_detail10clone_implINS0_19error_info_injectorIN3ndn8MetaInfo5ErrorEEEE5cloneEv@Base 0.4.1
 _ZNK5boost16exception_detail10clone_implINS0_19error_info_injectorIN3ndn8MetaInfo5ErrorEEEE7rethrowEv@Base 0.4.1
 _ZNK5boost16exception_detail10clone_implINS0_19error_info_injectorIN3ndn8security10SecTpmFile5ErrorEEEE5cloneEv@Base 0.4.1
 _ZNK5boost16exception_detail10clone_implINS0_19error_info_injectorIN3ndn8security10SecTpmFile5ErrorEEEE7rethrowEv@Base 0.4.1
 _ZNK5boost16exception_detail10clone_implINS0_19error_info_injectorIN3ndn8security13SecPublicInfo5ErrorEEEE5cloneEv@Base 0.4.1
 _ZNK5boost16exception_detail10clone_implINS0_19error_info_injectorIN3ndn8security13SecPublicInfo5ErrorEEEE7rethrowEv@Base 0.4.1
 _ZNK5boost16exception_detail10clone_implINS0_19error_info_injectorIN3ndn8security14ValidityPeriod5ErrorEEEE5cloneEv@Base 0.4.1
 _ZNK5boost16exception_detail10clone_implINS0_19error_info_injectorIN3ndn8security14ValidityPeriod5ErrorEEEE7rethrowEv@Base 0.4.1
 _ZNK5boost16exception_detail10clone_implINS0_19error_info_injectorIN3ndn8security15ValidatorConfig5ErrorEEEE5cloneEv@Base 0.4.1
 _ZNK5boost16exception_detail10clone_implINS0_19error_info_injectorIN3ndn8security15ValidatorConfig5ErrorEEEE7rethrowEv@Base 0.4.1
 _ZNK5boost16exception_detail10clone_implINS0_19error_info_injectorIN3ndn8security20SecPublicInfoSqlite35ErrorEEEE5cloneEv@Base 0.4.1
 _ZNK5boost16exception_detail10clone_implINS0_19error_info_injectorIN3ndn8security20SecPublicInfoSqlite35ErrorEEEE7rethrowEv@Base 0.4.1
 _ZNK5boost16exception_detail10clone_implINS0_19error_info_injectorIN3ndn8security2v111Certificate5ErrorEEEE5cloneEv@Base 0.4.1
 _ZNK5boost16exception_detail10clone_implINS0_19error_info_injectorIN3ndn8security2v111Certificate5ErrorEEEE7rethrowEv@Base 0.4.1
 _ZNK5boost16exception_detail10clone_implINS0_19error_info_injectorIN3ndn8security2v119IdentityCertificate5ErrorEEEE5cloneEv@Base 0.4.1
 _ZNK5boost16exception_detail10clone_implINS0_19error_info_injectorIN3ndn8security2v119IdentityCertificate5ErrorEEEE7rethrowEv@Base 0.4.1
 _ZNK5boost16exception_detail10clone_implINS0_19error_info_injectorIN3ndn8security2v19PublicKey5ErrorEEEE5cloneEv@Base 0.4.1
 _ZNK5boost16exception_detail10clone_implINS0_19error_info_injectorIN3ndn8security2v19PublicKey5ErrorEEEE7rethrowEv@Base 0.4.1
 _ZNK5boost16exception_detail10clone_implINS0_19error_info_injectorIN3ndn8security2v221AdditionalDescription5ErrorEEEE5cloneEv@Base 0.4.1
 _ZNK5boost16exception_detail10clone_implINS0_19error_info_injectorIN3ndn8security2v221AdditionalDescription5ErrorEEEE7rethrowEv@Base 0.4.1
 _ZNK5boost16exception_detail10clone_implINS0_19error_info_injectorIN3ndn8security3Pib5ErrorEEEE5cloneEv@Base 0.4.1
 _ZNK5boost16exception_detail10clone_implINS0_19error_info_injectorIN3ndn8security3Pib5ErrorEEEE7rethrowEv@Base 0.4.1
 _ZNK5boost16exception_detail10clone_implINS0_19error_info_injectorIN3ndn8security4conf5ErrorEEEE5cloneEv@Base 0.4.1
 _ZNK5boost16exception_detail10clone_implINS0_19error_info_injectorIN3ndn8security4conf5ErrorEEEE7rethrowEv@Base 0.4.1
 _ZNK5boost16exception_detail10clone_implINS0_19error_info_injectorIN3ndn8security6SecTpm5ErrorEEEE5cloneEv@Base 0.4.1
 _ZNK5boost16exception_detail10clone_implINS0_19error_info_injectorIN3ndn8security6SecTpm5ErrorEEEE7rethrowEv@Base 0.4.1
 _ZNK5boost16exception_detail10clone_implINS0_19error_info_injectorIN3ndn8security7PibImpl5ErrorEEEE5cloneEv@Base 0.4.1
 _ZNK5boost16exception_detail10clone_implINS0_19error_info_injectorIN3ndn8security7PibImpl5ErrorEEEE7rethrowEv@Base 0.4.1
 _ZNK5boost16exception_detail10clone_implINS0_19error_info_injectorIN3ndn8security8KeyChain13MismatchErrorEEEE5cloneEv@Base 0.4.1
 _ZNK5boost16exception_detail10clone_implINS0_19error_info_injectorIN3ndn8security8KeyChain13MismatchErrorEEEE7rethrowEv@Base 0.4.1
 _ZNK5boost16exception_detail10clone_implINS0_19error_info_injectorIN3ndn8security8KeyChain5ErrorEEEE5cloneEv@Base 0.4.1
 _ZNK5boost16exception_detail10clone_implINS0_19error_info_injectorIN3ndn8security8KeyChain5ErrorEEEE7rethrowEv@Base 0.4.1
 _ZNK5boost16exception_detail10clone_implINS0_19error_info_injectorIN3ndn8security9PibMemory5ErrorEEEE5cloneEv@Base 0.4.1
 _ZNK5boost16exception_detail10clone_implINS0_19error_info_injectorIN3ndn8security9PibMemory5ErrorEEEE7rethrowEv@Base 0.4.1
 _ZNK5boost16exception_detail10clone_implINS0_19error_info_injectorIN3ndn8security9transform10PrivateKey5ErrorEEEE5cloneEv@Base 0.4.1
 _ZNK5boost16exception_detail10clone_implINS0_19error_info_injectorIN3ndn8security9transform10PrivateKey5ErrorEEEE7rethrowEv@Base 0.4.1
 _ZNK5boost16exception_detail10clone_implINS0_19error_info_injectorIN3ndn8security9transform5ErrorEEEE5cloneEv@Base 0.4.1
 _ZNK5boost16exception_detail10clone_implINS0_19error_info_injectorIN3ndn8security9transform5ErrorEEEE7rethrowEv@Base 0.4.1
 _ZNK5boost16exception_detail10clone_implINS0_19error_info_injectorIN3ndn8security9transform9PublicKey5ErrorEEEE5cloneEv@Base 0.4.1
 _ZNK5boost16exception_detail10clone_implINS0_19error_info_injectorIN3ndn8security9transform9PublicKey5ErrorEEEE7rethrowEv@Base 0.4.1
 _ZNK5boost16exception_detail10clone_implINS0_19error_info_injectorIN3ndn9Signature5ErrorEEEE5cloneEv@Base 0.4.1
 _ZNK5boost16exception_detail10clone_implINS0_19error_info_injectorIN3ndn9Signature5ErrorEEEE7rethrowEv@Base 0.4.1
 _ZNK5boost16exception_detail10clone_implINS0_19error_info_injectorIN3ndn9Transport5ErrorEEEE5cloneEv@Base 0.4.1
 _ZNK5boost16exception_detail10clone_implINS0_19error_info_injectorIN3ndn9Transport5ErrorEEEE7rethrowEv@Base 0.4.1
 _ZNK5boost16exception_detail10clone_implINS0_19error_info_injectorINS_10lock_errorEEEE5cloneEv@Base 0.4.1
 _ZNK5boost16exception_detail10clone_implINS0_19error_info_injectorINS_10lock_errorEEEE7rethrowEv@Base 0.4.1
 _ZNK5boost16exception_detail10clone_implINS0_19error_info_injectorINS_13property_tree10ini_parser16ini_parser_errorEEEE5cloneEv@Base 0.4.1
 _ZNK5boost16exception_detail10clone_implINS0_19error_info_injectorINS_13property_tree10ini_parser16ini_parser_errorEEEE7rethrowEv@Base 0.4.1
 _ZNK5boost16exception_detail10clone_implINS0_19error_info_injectorINS_13property_tree11info_parser17info_parser_errorEEEE5cloneEv@Base 0.4.1
 _ZNK5boost16exception_detail10clone_implINS0_19error_info_injectorINS_13property_tree11info_parser17info_parser_errorEEEE7rethrowEv@Base 0.4.1
 _ZNK5boost16exception_detail10clone_implINS0_19error_info_injectorINS_15condition_errorEEEE5cloneEv@Base 0.4.1
 _ZNK5boost16exception_detail10clone_implINS0_19error_info_injectorINS_15condition_errorEEEE7rethrowEv@Base 0.4.1
 _ZNK5boost16exception_detail10clone_implINS0_19error_info_injectorINS_16bad_lexical_castEEEE5cloneEv@Base 0.4.1
 _ZNK5boost16exception_detail10clone_implINS0_19error_info_injectorINS_16bad_lexical_castEEEE7rethrowEv@Base 0.4.1
 _ZNK5boost16exception_detail10clone_implINS0_19error_info_injectorINS_17bad_function_callEEEE5cloneEv@Base 0.4.1
 _ZNK5boost16exception_detail10clone_implINS0_19error_info_injectorINS_17bad_function_callEEEE7rethrowEv@Base 0.4.1
 _ZNK5boost16exception_detail10clone_implINS0_19error_info_injectorINS_21thread_resource_errorEEEE5cloneEv@Base 0.4.1
 _ZNK5boost16exception_detail10clone_implINS0_19error_info_injectorINS_21thread_resource_errorEEEE7rethrowEv@Base 0.4.1
 _ZNK5boost16exception_detail10clone_implINS0_19error_info_injectorINS_6system12system_errorEEEE5cloneEv@Base 0.4.1
 _ZNK5boost16exception_detail10clone_implINS0_19error_info_injectorINS_6system12system_errorEEEE7rethrowEv@Base 0.4.1
 _ZNK5boost16exception_detail10clone_implINS0_19error_info_injectorINS_9gregorian11bad_weekdayEEEE5cloneEv@Base 0.4.1
 _ZNK5boost16exception_detail10clone_implINS0_19error_info_injectorINS_9gregorian11bad_weekdayEEEE7rethrowEv@Base 0.4.1
 _ZNK5boost16exception_detail10clone_implINS0_19error_info_injectorINS_9gregorian15bad_day_of_yearEEEE5cloneEv@Base 0.4.1
 _ZNK5boost16exception_detail10clone_implINS0_19error_info_injectorINS_9gregorian15bad_day_of_yearEEEE7rethrowEv@Base 0.4.1
 _ZNK5boost16exception_detail10clone_implINS0_19error_info_injectorINS_9gregorian16bad_day_of_monthEEEE5cloneEv@Base 0.4.1
 _ZNK5boost16exception_detail10clone_implINS0_19error_info_injectorINS_9gregorian16bad_day_of_monthEEEE7rethrowEv@Base 0.4.1
 _ZNK5boost16exception_detail10clone_implINS0_19error_info_injectorINS_9gregorian8bad_yearEEEE5cloneEv@Base 0.4.1
 _ZNK5boost16exception_detail10clone_implINS0_19error_info_injectorINS_9gregorian8bad_yearEEEE7rethrowEv@Base 0.4.1
 _ZNK5boost16exception_detail10clone_implINS0_19error_info_injectorINS_9gregorian9bad_monthEEEE5cloneEv@Base 0.4.1
 _ZNK5boost16exception_detail10clone_implINS0_19error_info_injectorINS_9gregorian9bad_monthEEEE7rethrowEv@Base 0.4.1
 _ZNK5boost16exception_detail10clone_implINS0_19error_info_injectorINSt8ios_base7failureB5cxx11EEEE5cloneEv@Base 0.4.1
 _ZNK5boost16exception_detail10clone_implINS0_19error_info_injectorINSt8ios_base7failureB5cxx11EEEE7rethrowEv@Base 0.4.1
 _ZNK5boost16exception_detail10clone_implINS0_19error_info_injectorISt11logic_errorEEE5cloneEv@Base 0.4.1
 _ZNK5boost16exception_detail10clone_implINS0_19error_info_injectorISt11logic_errorEEE7rethrowEv@Base 0.4.1
 _ZNK5boost16exception_detail10clone_implINS0_19error_info_injectorISt12domain_errorEEE5cloneEv@Base 0.4.1
 _ZNK5boost16exception_detail10clone_implINS0_19error_info_injectorISt12domain_errorEEE7rethrowEv@Base 0.4.1
 _ZNK5boost16exception_detail10clone_implINS0_19error_info_injectorISt12length_errorEEE5cloneEv@Base 0.4.1
 _ZNK5boost16exception_detail10clone_implINS0_19error_info_injectorISt12length_errorEEE7rethrowEv@Base 0.4.1
 _ZNK5boost16exception_detail10clone_implINS0_19error_info_injectorISt12out_of_rangeEEE5cloneEv@Base 0.4.1
 _ZNK5boost16exception_detail10clone_implINS0_19error_info_injectorISt12out_of_rangeEEE7rethrowEv@Base 0.4.1
 _ZNK5boost16exception_detail10clone_implINS0_19error_info_injectorISt13runtime_errorEEE5cloneEv@Base 0.4.1
 _ZNK5boost16exception_detail10clone_implINS0_19error_info_injectorISt13runtime_errorEEE7rethrowEv@Base 0.4.1
 _ZNK5boost16exception_detail10clone_implINS0_19error_info_injectorISt16invalid_argumentEEE5cloneEv@Base 0.4.1
 _ZNK5boost16exception_detail10clone_implINS0_19error_info_injectorISt16invalid_argumentEEE7rethrowEv@Base 0.4.1
 _ZNK5boost16exception_detail10clone_implINS0_19error_info_injectorISt8bad_castEEE5cloneEv@Base 0.4.1
 _ZNK5boost16exception_detail10clone_implINS0_19error_info_injectorISt8bad_castEEE7rethrowEv@Base 0.4.1
 _ZNK5boost16re_detail_10610020named_subexpressions11equal_rangeEi@Base 0.4.1
 _ZNK5boost3log11v2_mt_posix15attribute_value4impl8get_typeEv@Base 0.4.1
 _ZNK5boost4asio2ip7address9to_stringB5cxx11Ev@Base 0.4.1
 _ZNK5boost4asio5error6detail13misc_category4nameEv@Base 0.4.1
 _ZNK5boost4asio5error6detail13misc_category7messageB5cxx11Ei@Base 0.4.1
 _ZNK5boost4asio5error6detail14netdb_category4nameEv@Base 0.4.1
 _ZNK5boost4asio5error6detail14netdb_category7messageB5cxx11Ei@Base 0.4.1
 _ZNK5boost4asio5error6detail17addrinfo_category4nameEv@Base 0.4.1
 _ZNK5boost4asio5error6detail17addrinfo_category7messageB5cxx11Ei@Base 0.4.1
 _ZNK5boost4asio6detail11timer_queueINS0_11time_traitsIN3ndn4time12steady_clockEEEE18wait_duration_msecEl@Base 0.4.1
 _ZNK5boost4asio6detail11timer_queueINS0_11time_traitsIN3ndn4time12steady_clockEEEE18wait_duration_usecEl@Base 0.4.1
 _ZNK5boost4asio6detail11timer_queueINS0_11time_traitsIN3ndn4time12steady_clockEEEE5emptyEv@Base 0.4.1
 _ZNK5boost4asio6detail11timer_queueINS0_11time_traitsINS_10posix_time5ptimeEEEE18wait_duration_msecEl@Base 0.4.1
 _ZNK5boost4asio6detail11timer_queueINS0_11time_traitsINS_10posix_time5ptimeEEEE18wait_duration_usecEl@Base 0.4.1
 _ZNK5boost4asio6detail11timer_queueINS0_11time_traitsINS_10posix_time5ptimeEEEE5emptyEv@Base 0.4.1
 _ZNK5boost4asio6detail11timer_queueINS1_28forwarding_posix_time_traitsEE18wait_duration_msecEl@Base 0.4.1
 _ZNK5boost4asio6detail11timer_queueINS1_28forwarding_posix_time_traitsEE18wait_duration_usecEl@Base 0.4.1
 _ZNK5boost4asio6detail11timer_queueINS1_28forwarding_posix_time_traitsEE5emptyEv@Base 0.4.1
 _ZNK5boost6system12system_error4whatEv@Base 0.4.1
 _ZNK5boost6system14error_category10equivalentERKNS0_10error_codeEi@Base 0.4.1
 _ZNK5boost6system14error_category10equivalentEiRKNS0_15error_conditionE@Base 0.4.1
 _ZNK5boost6system14error_category23default_error_conditionEi@Base 0.4.1
 _ZNK5boost9algorithm6detail13first_finderFIPKcNS0_8is_equalEEclIN9__gnu_cxx17__normal_iteratorIPcNSt7__cxx1112basic_stringIcSt11char_traitsIcESaIcEEEEEEENS_14iterator_rangeIT_EESJ_SJ_@Base 0.4.1
 _ZNK5boost9date_time10date_facetINS_9gregorian4dateEcSt19ostreambuf_iteratorIcSt11char_traitsIcEEE14do_put_specialES7_RSt8ios_basecNS0_14special_valuesE@Base 0.4.1
 _ZNK5boost9date_time10date_facetINS_9gregorian4dateEcSt19ostreambuf_iteratorIcSt11char_traitsIcEEE9do_put_tmES7_RSt8ios_basecRK2tmNSt7__cxx1112basic_stringIcS6_SaIcEEE@Base 0.4.1
 _ZNK5boost9date_time10time_facetINS_10posix_time5ptimeEcSt19ostreambuf_iteratorIcSt11char_traitsIcEEE3putES7_RSt8ios_basecRKS3_@Base 0.4.1
 _ZNK5boost9date_time11int_adapterIlE7compareERKS2_@Base 0.4.1
 _ZNK5boost9date_time11int_adapterIlEmiIlEES2_RKNS1_IT_EE@Base 0.4.1
 _ZNK5boost9date_time11int_adapterIlEplIlEES2_RKNS1_IT_EE@Base 0.4.1
 _ZNK5boost9date_time16counted_time_repINS_10posix_time33millisec_posix_time_system_configEE4dateEv@Base 0.4.1
 _ZNK5boost9date_time16time_input_facetINS_10posix_time5ptimeEcSt19istreambuf_iteratorIcSt11char_traitsIcEEE15parse_frac_typeERS7_S9_Rl@Base 0.4.1
 _ZNK5boost9date_time16time_input_facetINS_10posix_time5ptimeEcSt19istreambuf_iteratorIcSt11char_traitsIcEEE19check_special_valueIS3_EES7_RS7_SA_RT_c@Base 0.4.1
 _ZNK5boost9date_time16time_input_facetINS_10posix_time5ptimeEcSt19istreambuf_iteratorIcSt11char_traitsIcEEE3getERS7_S9_RSt8ios_baseRS3_RNSt7__cxx1112basic_stringIcS6_SaIcEEEb@Base 0.4.1
 _ZNK5boost9date_time17string_parse_treeIcE5matchERSt19istreambuf_iteratorIcSt11char_traitsIcEES7_RNS0_18parse_match_resultIcEERj@Base 0.4.1
 _ZNK5boost9date_time18format_date_parserINS_9gregorian4dateEcE11parse_monthERSt19istreambuf_iteratorIcSt11char_traitsIcEES9_NSt7__cxx1112basic_stringIcS7_SaIcEEERNS0_18parse_match_resultIcEE@Base 0.4.1
 _ZNK5boost9date_time18format_date_parserINS_9gregorian4dateEcE13parse_weekdayERSt19istreambuf_iteratorIcSt11char_traitsIcEES9_NSt7__cxx1112basic_stringIcS7_SaIcEEERNS0_18parse_match_resultIcEE@Base 0.4.1
 _ZNK5boost9iostreams6detail18indirect_streambufIN3ndn6detail18BufferAppendDeviceESt11char_traitsIcESaIcENS0_6outputEE10auto_closeEv@Base 0.4.1
 _ZNK5boost9iostreams6detail18indirect_streambufIN3ndn6detail18BufferAppendDeviceESt11char_traitsIcESaIcENS0_6outputEE14component_typeEv@Base 0.4.1
 _ZNK8CryptoPP10ASN1Object9BEREncodeERNS_22BufferedTransformationE@Base 0.4.1
 _ZNK8CryptoPP10RandomPool21CanIncorporateEntropyEv@Base 0.4.1
 _ZNK8CryptoPP11BlockCipher12GetAlgorithmEv@Base 0.4.1
 _ZNK8CryptoPP11RSAFunction10ImageBoundEv@Base 0.4.1
 _ZNK8CryptoPP12CBC_ModeBase13IVRequirementEv@Base 0.4.1
 _ZNK8CryptoPP12CBC_ModeBase16MinLastBlockSizeEv@Base 0.4.1
 _ZNK8CryptoPP12ClonableImplINS_16BlockCipherFinalILNS_9CipherDirE0ENS_8DES_EDE34BaseEEES4_E5CloneEv@Base 0.4.1
 _ZNK8CryptoPP12ClonableImplINS_16BlockCipherFinalILNS_9CipherDirE1ENS_8DES_EDE34BaseEEES4_E5CloneEv@Base 0.4.1
 _ZNK8CryptoPP12ClonableImplINS_4SHA1ENS_13AlgorithmImplINS_12IteratedHashIjNS_10EnumToTypeINS_9ByteOrderELi1EEELj64ENS_18HashTransformationEEES1_EEE5CloneEv@Base 0.4.1
 _ZNK8CryptoPP12ClonableImplINS_6SHA256ENS_13AlgorithmImplINS_12IteratedHashIjNS_10EnumToTypeINS_9ByteOrderELi1EEELj64ENS_18HashTransformationEEES1_EEE5CloneEv@Base 0.4.1
 _ZNK8CryptoPP12DL_PublicKeyINS_8ECPPointEE16GetPublicElementEv@Base 0.4.1
 _ZNK8CryptoPP12DL_PublicKeyINS_8ECPPointEE25ExponentiatePublicElementERKNS_7IntegerE@Base 0.4.1
 _ZNK8CryptoPP12DL_PublicKeyINS_8ECPPointEE39CascadeExponentiateBaseAndPublicElementERKNS_7IntegerES5_@Base 0.4.1
 _ZNK8CryptoPP12IteratedHashIjNS_10EnumToTypeINS_9ByteOrderELi1EEELj64ENS_18HashTransformationEE12GetByteOrderEv@Base 0.4.1
 _ZNK8CryptoPP12IteratedHashIjNS_10EnumToTypeINS_9ByteOrderELi1EEELj64ENS_18HashTransformationEE9BlockSizeEv@Base 0.4.1
 _ZNK8CryptoPP13AlgorithmImplINS_12IteratedHashIjNS_10EnumToTypeINS_9ByteOrderELi1EEELj64ENS_18HashTransformationEEENS_4SHA1EE13AlgorithmNameB5cxx11Ev@Base 0.4.1
 _ZNK8CryptoPP13AlgorithmImplINS_12IteratedHashIjNS_10EnumToTypeINS_9ByteOrderELi1EEELj64ENS_18HashTransformationEEENS_6SHA256EE13AlgorithmNameB5cxx11Ev@Base 0.4.1
 _ZNK8CryptoPP13AlgorithmImplINS_13DL_SignerBaseINS_8ECPPointEEENS_5DL_SSINS_13DL_Keys_ECDSAINS_3ECPEEENS_18DL_Algorithm_ECDSAIS6_EENS_37DL_SignatureMessageEncodingMethod_DSAENS_6SHA256EiEEE13AlgorithmNameB5cxx11Ev@Base 0.4.1
 _ZNK8CryptoPP13AlgorithmImplINS_13TF_SignerBaseENS_5TF_SSINS_8PKCS1v15ENS_6SHA256ENS_3RSAEiEEE13AlgorithmNameB5cxx11Ev@Base 0.4.1
 _ZNK8CryptoPP13AlgorithmImplINS_14CBC_DecryptionENS_36CipherModeFinalTemplate_CipherHolderINS_16BlockCipherFinalILNS_9CipherDirE1ENS_8DES_EDE34BaseEEES1_EEE13AlgorithmNameB5cxx11Ev@Base 0.4.1
 _ZNK8CryptoPP13AlgorithmImplINS_14CBC_EncryptionENS_36CipherModeFinalTemplate_CipherHolderINS_16BlockCipherFinalILNS_9CipherDirE0ENS_8DES_EDE34BaseEEES1_EEE13AlgorithmNameB5cxx11Ev@Base 0.4.1
 _ZNK8CryptoPP13AlgorithmImplINS_15DL_VerifierBaseINS_8ECPPointEEENS_5DL_SSINS_13DL_Keys_ECDSAINS_3ECPEEENS_18DL_Algorithm_ECDSAIS6_EENS_37DL_SignatureMessageEncodingMethod_DSAENS_6SHA256EiEEE13AlgorithmNameB5cxx11Ev@Base 0.4.1
 _ZNK8CryptoPP13AlgorithmImplINS_15TF_VerifierBaseENS_5TF_SSINS_8PKCS1v15ENS_6SHA256ENS_3RSAEiEEE13AlgorithmNameB5cxx11Ev@Base 0.4.1
 _ZNK8CryptoPP13AlgorithmImplINS_25SimpleKeyingInterfaceImplINS_8TwoBasesINS_11BlockCipherENS_13DES_EDE3_InfoEEES5_EES6_E13AlgorithmNameB5cxx11Ev@Base 0.4.1
 _ZNK8CryptoPP13AutoSignalingINS_14InputRejectingINS_22BufferedTransformationEEEE24GetAutoSignalPropagationEv@Base 0.4.1
 _ZNK8CryptoPP13DL_ObjectImplINS_13DL_SignerBaseINS_8ECPPointEEENS_25DL_SignatureSchemeOptionsINS_5DL_SSINS_13DL_Keys_ECDSAINS_3ECPEEENS_18DL_Algorithm_ECDSAIS7_EENS_37DL_SignatureMessageEncodingMethod_DSAENS_6SHA256EiEES8_SA_SB_SC_EENS_50DL_PrivateKey_WithSignaturePairwiseConsistencyTestINS_16DL_PrivateKey_ECIS7_EENS_5ECDSAIS7_SC_EEEEE17GetHashIdentifierEv@Base 0.4.1
 _ZNK8CryptoPP13DL_ObjectImplINS_13DL_SignerBaseINS_8ECPPointEEENS_25DL_SignatureSchemeOptionsINS_5DL_SSINS_13DL_Keys_ECDSAINS_3ECPEEENS_18DL_Algorithm_ECDSAIS7_EENS_37DL_SignatureMessageEncodingMethod_DSAENS_6SHA256EiEES8_SA_SB_SC_EENS_50DL_PrivateKey_WithSignaturePairwiseConsistencyTestINS_16DL_PrivateKey_ECIS7_EENS_5ECDSAIS7_SC_EEEEE21GetSignatureAlgorithmEv@Base 0.4.1
 _ZNK8CryptoPP13DL_ObjectImplINS_13DL_SignerBaseINS_8ECPPointEEENS_25DL_SignatureSchemeOptionsINS_5DL_SSINS_13DL_Keys_ECDSAINS_3ECPEEENS_18DL_Algorithm_ECDSAIS7_EENS_37DL_SignatureMessageEncodingMethod_DSAENS_6SHA256EiEES8_SA_SB_SC_EENS_50DL_PrivateKey_WithSignaturePairwiseConsistencyTestINS_16DL_PrivateKey_ECIS7_EENS_5ECDSAIS7_SC_EEEEE27GetMessageEncodingInterfaceEv@Base 0.4.1
 _ZNK8CryptoPP13DL_ObjectImplINS_15DL_VerifierBaseINS_8ECPPointEEENS_25DL_SignatureSchemeOptionsINS_5DL_SSINS_13DL_Keys_ECDSAINS_3ECPEEENS_18DL_Algorithm_ECDSAIS7_EENS_37DL_SignatureMessageEncodingMethod_DSAENS_6SHA256EiEES8_SA_SB_SC_EENS_15DL_PublicKey_ECIS7_EEE17GetHashIdentifierEv@Base 0.4.1
 _ZNK8CryptoPP13DL_ObjectImplINS_15DL_VerifierBaseINS_8ECPPointEEENS_25DL_SignatureSchemeOptionsINS_5DL_SSINS_13DL_Keys_ECDSAINS_3ECPEEENS_18DL_Algorithm_ECDSAIS7_EENS_37DL_SignatureMessageEncodingMethod_DSAENS_6SHA256EiEES8_SA_SB_SC_EENS_15DL_PublicKey_ECIS7_EEE21GetSignatureAlgorithmEv@Base 0.4.1
 _ZNK8CryptoPP13DL_ObjectImplINS_15DL_VerifierBaseINS_8ECPPointEEENS_25DL_SignatureSchemeOptionsINS_5DL_SSINS_13DL_Keys_ECDSAINS_3ECPEEENS_18DL_Algorithm_ECDSAIS7_EENS_37DL_SignatureMessageEncodingMethod_DSAENS_6SHA256EiEES8_SA_SB_SC_EENS_15DL_PublicKey_ECIS7_EEE27GetMessageEncodingInterfaceEv@Base 0.4.1
 _ZNK8CryptoPP13DL_SignerBaseINS_8ECPPointEE14SignAndRestartERNS_21RandomNumberGeneratorERNS_21PK_MessageAccumulatorEPhb@Base 0.4.1
 _ZNK8CryptoPP13DL_SignerBaseINS_8ECPPointEE23InputRecoverableMessageERNS_21PK_MessageAccumulatorEPKhm@Base 0.4.1
 _ZNK8CryptoPP13DL_SignerImplINS_25DL_SignatureSchemeOptionsINS_5DL_SSINS_13DL_Keys_ECDSAINS_3ECPEEENS_18DL_Algorithm_ECDSAIS4_EENS_37DL_SignatureMessageEncodingMethod_DSAENS_6SHA256EiEES5_S7_S8_S9_EEE23NewSignatureAccumulatorERNS_21RandomNumberGeneratorE@Base 0.4.1
 _ZNK8CryptoPP13TF_ObjectImplINS_13TF_SignerBaseENS_25TF_SignatureSchemeOptionsINS_5TF_SSINS_8PKCS1v15ENS_6SHA256ENS_3RSAEiEES6_NS_39PKCS1v15_SignatureMessageEncodingMethodES5_EENS_21InvertibleRSAFunctionEE6GetKeyEv@Base 0.4.1
 _ZNK8CryptoPP13TF_ObjectImplINS_15TF_VerifierBaseENS_25TF_SignatureSchemeOptionsINS_5TF_SSINS_8PKCS1v15ENS_6SHA256ENS_3RSAEiEES6_NS_39PKCS1v15_SignatureMessageEncodingMethodES5_EENS_11RSAFunctionEE6GetKeyEv@Base 0.4.1
 _ZNK8CryptoPP14CipherModeBase12MaxKeyLengthEv@Base 0.4.1
 _ZNK8CryptoPP14CipherModeBase12MinKeyLengthEv@Base 0.4.1
 _ZNK8CryptoPP14CipherModeBase16DefaultKeyLengthEv@Base 0.4.1
 _ZNK8CryptoPP14CipherModeBase16IsValidKeyLengthEm@Base 0.4.1
 _ZNK8CryptoPP14CipherModeBase17GetValidKeyLengthEm@Base 0.4.1
 _ZNK8CryptoPP14CipherModeBase20OptimalDataAlignmentEv@Base 0.4.1
 _ZNK8CryptoPP14CipherModeBase6IVSizeEv@Base 0.4.1
 _ZNK8CryptoPP14CryptoMaterial14ThrowIfInvalidERNS_21RandomNumberGeneratorEj@Base 0.4.1
 _ZNK8CryptoPP14CryptoMaterial18SavePrecomputationERNS_22BufferedTransformationE@Base 0.4.1
 _ZNK8CryptoPP14CryptoMaterial22SupportsPrecomputationEv@Base 0.4.1
 _ZNK8CryptoPP14CryptoMaterial4SaveERNS_22BufferedTransformationE@Base 0.4.1
 _ZNK8CryptoPP14SourceTemplateINS_11StringStoreEE15SourceExhaustedEv@Base 0.4.1
 _ZNK8CryptoPP14SourceTemplateINS_11StringStoreEE24GetAutoSignalPropagationEv@Base 0.4.1
 _ZNK8CryptoPP14SourceTemplateINS_9FileStoreEE15SourceExhaustedEv@Base 0.4.1
 _ZNK8CryptoPP14SourceTemplateINS_9FileStoreEE24GetAutoSignalPropagationEv@Base 0.4.1
 _ZNK8CryptoPP15BlockCipherImplINS_13DES_EDE3_InfoENS_11BlockCipherEE9BlockSizeEv@Base 0.4.1
 _ZNK8CryptoPP15DL_VerifierBaseINS_8ECPPointEE14InputSignatureERNS_21PK_MessageAccumulatorEPKhm@Base 0.4.1
 _ZNK8CryptoPP15DL_VerifierBaseINS_8ECPPointEE16VerifyAndRestartERNS_21PK_MessageAccumulatorE@Base 0.4.1
 _ZNK8CryptoPP15DL_VerifierBaseINS_8ECPPointEE17RecoverAndRestartEPhRNS_21PK_MessageAccumulatorE@Base 0.4.1
 _ZNK8CryptoPP15DL_VerifierImplINS_25DL_SignatureSchemeOptionsINS_5DL_SSINS_13DL_Keys_ECDSAINS_3ECPEEENS_18DL_Algorithm_ECDSAIS4_EENS_37DL_SignatureMessageEncodingMethod_DSAENS_6SHA256EiEES5_S7_S8_S9_EEE26NewVerificationAccumulatorEv@Base 0.4.1
 _ZNK8CryptoPP15SymmetricCipher12GetAlgorithmEv@Base 0.4.1
 _ZNK8CryptoPP16BlockCipherFinalILNS_9CipherDirE0ENS_8DES_EDE34BaseEE23IsForwardTransformationEv@Base 0.4.1
 _ZNK8CryptoPP16BlockCipherFinalILNS_9CipherDirE1ENS_8DES_EDE34BaseEE23IsForwardTransformationEv@Base 0.4.1
 _ZNK8CryptoPP16EcPrecomputationINS_3ECPEE10ConvertOutERKNS_8ECPPointE@Base 0.4.1
 _ZNK8CryptoPP16EcPrecomputationINS_3ECPEE15NeedConversionsEv@Base 0.4.1
 _ZNK8CryptoPP16EcPrecomputationINS_3ECPEE16BERDecodeElementERNS_22BufferedTransformationE@Base 0.4.1
 _ZNK8CryptoPP16EcPrecomputationINS_3ECPEE16DEREncodeElementERNS_22BufferedTransformationERKNS_8ECPPointE@Base 0.4.1
 _ZNK8CryptoPP16EcPrecomputationINS_3ECPEE8GetGroupEv@Base 0.4.1
 _ZNK8CryptoPP16EcPrecomputationINS_3ECPEE9ConvertInERKNS_8ECPPointE@Base 0.4.1
 _ZNK8CryptoPP16IteratedHashBaseIjNS_18HashTransformationEE16OptimalBlockSizeEv@Base 0.4.1
 _ZNK8CryptoPP16IteratedHashBaseIjNS_18HashTransformationEE20OptimalDataAlignmentEv@Base 0.4.1
 _ZNK8CryptoPP16TrapdoorFunction12IsRandomizedEv@Base 0.4.1
 _ZNK8CryptoPP16TrapdoorFunction23ApplyRandomizedFunctionERNS_21RandomNumberGeneratorERKNS_7IntegerE@Base 0.4.1
 _ZNK8CryptoPP17DL_ObjectImplBaseINS_13DL_SignerBaseINS_8ECPPointEEENS_25DL_SignatureSchemeOptionsINS_5DL_SSINS_13DL_Keys_ECDSAINS_3ECPEEENS_18DL_Algorithm_ECDSAIS7_EENS_37DL_SignatureMessageEncodingMethod_DSAENS_6SHA256EiEES8_SA_SB_SC_EENS_50DL_PrivateKey_WithSignaturePairwiseConsistencyTestINS_16DL_PrivateKey_ECIS7_EENS_5ECDSAIS7_SC_EEEEE13GetDigestSizeEv@Base 0.4.1
 _ZNK8CryptoPP17DL_ObjectImplBaseINS_13DL_SignerBaseINS_8ECPPointEEENS_25DL_SignatureSchemeOptionsINS_5DL_SSINS_13DL_Keys_ECDSAINS_3ECPEEENS_18DL_Algorithm_ECDSAIS7_EENS_37DL_SignatureMessageEncodingMethod_DSAENS_6SHA256EiEES8_SA_SB_SC_EENS_50DL_PrivateKey_WithSignaturePairwiseConsistencyTestINS_16DL_PrivateKey_ECIS7_EENS_5ECDSAIS7_SC_EEEEE15GetKeyInterfaceEv@Base 0.4.1
 _ZNK8CryptoPP17DL_ObjectImplBaseINS_13DL_SignerBaseINS_8ECPPointEEENS_25DL_SignatureSchemeOptionsINS_5DL_SSINS_13DL_Keys_ECDSAINS_3ECPEEENS_18DL_Algorithm_ECDSAIS7_EENS_37DL_SignatureMessageEncodingMethod_DSAENS_6SHA256EiEES8_SA_SB_SC_EENS_50DL_PrivateKey_WithSignaturePairwiseConsistencyTestINS_16DL_PrivateKey_ECIS7_EENS_5ECDSAIS7_SC_EEEEE17GetHashIdentifierEv@Base 0.4.1
 _ZNK8CryptoPP17DL_ObjectImplBaseINS_15DL_VerifierBaseINS_8ECPPointEEENS_25DL_SignatureSchemeOptionsINS_5DL_SSINS_13DL_Keys_ECDSAINS_3ECPEEENS_18DL_Algorithm_ECDSAIS7_EENS_37DL_SignatureMessageEncodingMethod_DSAENS_6SHA256EiEES8_SA_SB_SC_EENS_15DL_PublicKey_ECIS7_EEE13GetDigestSizeEv@Base 0.4.1
 _ZNK8CryptoPP17DL_ObjectImplBaseINS_15DL_VerifierBaseINS_8ECPPointEEENS_25DL_SignatureSchemeOptionsINS_5DL_SSINS_13DL_Keys_ECDSAINS_3ECPEEENS_18DL_Algorithm_ECDSAIS7_EENS_37DL_SignatureMessageEncodingMethod_DSAENS_6SHA256EiEES8_SA_SB_SC_EENS_15DL_PublicKey_ECIS7_EEE15GetKeyInterfaceEv@Base 0.4.1
 _ZNK8CryptoPP17DL_ObjectImplBaseINS_15DL_VerifierBaseINS_8ECPPointEEENS_25DL_SignatureSchemeOptionsINS_5DL_SSINS_13DL_Keys_ECDSAINS_3ECPEEENS_18DL_Algorithm_ECDSAIS7_EENS_37DL_SignatureMessageEncodingMethod_DSAENS_6SHA256EiEES8_SA_SB_SC_EENS_15DL_PublicKey_ECIS7_EEE17GetHashIdentifierEv@Base 0.4.1
 _ZNK8CryptoPP17PKCS5_PBKDF2_HMACINS_4SHA1EE15UsesPurposeByteEv@Base 0.4.1
 _ZNK8CryptoPP17PKCS5_PBKDF2_HMACINS_4SHA1EE19MaxDerivedKeyLengthEv@Base 0.4.1
 _ZNK8CryptoPP17PKCS5_PBKDF2_HMACINS_4SHA1EE9DeriveKeyEPhmhPKhmS5_mjd@Base 0.4.1
 _ZNK8CryptoPP17TF_ObjectImplBaseINS_13TF_SignerBaseENS_25TF_SignatureSchemeOptionsINS_5TF_SSINS_8PKCS1v15ENS_6SHA256ENS_3RSAEiEES6_NS_39PKCS1v15_SignatureMessageEncodingMethodES5_EENS_21InvertibleRSAFunctionEE13GetDigestSizeEv@Base 0.4.1
 _ZNK8CryptoPP17TF_ObjectImplBaseINS_13TF_SignerBaseENS_25TF_SignatureSchemeOptionsINS_5TF_SSINS_8PKCS1v15ENS_6SHA256ENS_3RSAEiEES6_NS_39PKCS1v15_SignatureMessageEncodingMethodES5_EENS_21InvertibleRSAFunctionEE13GetPrivateKeyEv@Base 0.4.1
 _ZNK8CryptoPP17TF_ObjectImplBaseINS_13TF_SignerBaseENS_25TF_SignatureSchemeOptionsINS_5TF_SSINS_8PKCS1v15ENS_6SHA256ENS_3RSAEiEES6_NS_39PKCS1v15_SignatureMessageEncodingMethodES5_EENS_21InvertibleRSAFunctionEE17GetHashIdentifierEv@Base 0.4.1
 _ZNK8CryptoPP17TF_ObjectImplBaseINS_13TF_SignerBaseENS_25TF_SignatureSchemeOptionsINS_5TF_SSINS_8PKCS1v15ENS_6SHA256ENS_3RSAEiEES6_NS_39PKCS1v15_SignatureMessageEncodingMethodES5_EENS_21InvertibleRSAFunctionEE23NewSignatureAccumulatorERNS_21RandomNumberGeneratorE@Base 0.4.1
 _ZNK8CryptoPP17TF_ObjectImplBaseINS_13TF_SignerBaseENS_25TF_SignatureSchemeOptionsINS_5TF_SSINS_8PKCS1v15ENS_6SHA256ENS_3RSAEiEES6_NS_39PKCS1v15_SignatureMessageEncodingMethodES5_EENS_21InvertibleRSAFunctionEE25GetTrapdoorFunctionBoundsEv@Base 0.4.1
 _ZNK8CryptoPP17TF_ObjectImplBaseINS_13TF_SignerBaseENS_25TF_SignatureSchemeOptionsINS_5TF_SSINS_8PKCS1v15ENS_6SHA256ENS_3RSAEiEES6_NS_39PKCS1v15_SignatureMessageEncodingMethodES5_EENS_21InvertibleRSAFunctionEE27GetMessageEncodingInterfaceEv@Base 0.4.1
 _ZNK8CryptoPP17TF_ObjectImplBaseINS_13TF_SignerBaseENS_25TF_SignatureSchemeOptionsINS_5TF_SSINS_8PKCS1v15ENS_6SHA256ENS_3RSAEiEES6_NS_39PKCS1v15_SignatureMessageEncodingMethodES5_EENS_21InvertibleRSAFunctionEE28GetTrapdoorFunctionInterfaceEv@Base 0.4.1
 _ZNK8CryptoPP17TF_ObjectImplBaseINS_15TF_VerifierBaseENS_25TF_SignatureSchemeOptionsINS_5TF_SSINS_8PKCS1v15ENS_6SHA256ENS_3RSAEiEES6_NS_39PKCS1v15_SignatureMessageEncodingMethodES5_EENS_11RSAFunctionEE12GetPublicKeyEv@Base 0.4.1
 _ZNK8CryptoPP17TF_ObjectImplBaseINS_15TF_VerifierBaseENS_25TF_SignatureSchemeOptionsINS_5TF_SSINS_8PKCS1v15ENS_6SHA256ENS_3RSAEiEES6_NS_39PKCS1v15_SignatureMessageEncodingMethodES5_EENS_11RSAFunctionEE13GetDigestSizeEv@Base 0.4.1
 _ZNK8CryptoPP17TF_ObjectImplBaseINS_15TF_VerifierBaseENS_25TF_SignatureSchemeOptionsINS_5TF_SSINS_8PKCS1v15ENS_6SHA256ENS_3RSAEiEES6_NS_39PKCS1v15_SignatureMessageEncodingMethodES5_EENS_11RSAFunctionEE17GetHashIdentifierEv@Base 0.4.1
 _ZNK8CryptoPP17TF_ObjectImplBaseINS_15TF_VerifierBaseENS_25TF_SignatureSchemeOptionsINS_5TF_SSINS_8PKCS1v15ENS_6SHA256ENS_3RSAEiEES6_NS_39PKCS1v15_SignatureMessageEncodingMethodES5_EENS_11RSAFunctionEE25GetTrapdoorFunctionBoundsEv@Base 0.4.1
 _ZNK8CryptoPP17TF_ObjectImplBaseINS_15TF_VerifierBaseENS_25TF_SignatureSchemeOptionsINS_5TF_SSINS_8PKCS1v15ENS_6SHA256ENS_3RSAEiEES6_NS_39PKCS1v15_SignatureMessageEncodingMethodES5_EENS_11RSAFunctionEE26NewVerificationAccumulatorEv@Base 0.4.1
 _ZNK8CryptoPP17TF_ObjectImplBaseINS_15TF_VerifierBaseENS_25TF_SignatureSchemeOptionsINS_5TF_SSINS_8PKCS1v15ENS_6SHA256ENS_3RSAEiEES6_NS_39PKCS1v15_SignatureMessageEncodingMethodES5_EENS_11RSAFunctionEE27GetMessageEncodingInterfaceEv@Base 0.4.1
 _ZNK8CryptoPP17TF_ObjectImplBaseINS_15TF_VerifierBaseENS_25TF_SignatureSchemeOptionsINS_5TF_SSINS_8PKCS1v15ENS_6SHA256ENS_3RSAEiEES6_NS_39PKCS1v15_SignatureMessageEncodingMethodES5_EENS_11RSAFunctionEE28GetTrapdoorFunctionInterfaceEv@Base 0.4.1
 _ZNK8CryptoPP18DL_GroupParametersINS_8ECPPointEE16ExponentiateBaseERKNS_7IntegerE@Base 0.4.1
 _ZNK8CryptoPP18HashTransformation16OptimalBlockSizeEv@Base 0.4.1
 _ZNK8CryptoPP18HashTransformation9BlockSizeEv@Base 0.4.1
 _ZNK8CryptoPP18PK_SignatureScheme16SignatureUpfrontEv@Base 0.4.1
 _ZNK8CryptoPP18PK_SignatureScheme18MaxSignatureLengthEm@Base 0.4.1
 _ZNK8CryptoPP18PublicKeyAlgorithm11GetMaterialEv@Base 0.4.1
 _ZNK8CryptoPP18PublicKeyAlgorithm12GetPublicKeyEv@Base 0.4.1
 _ZNK8CryptoPP19BlockTransformation13IsPermutationEv@Base 0.4.1
 _ZNK8CryptoPP19BlockTransformation29OptimalNumberOfParallelBlocksEv@Base 0.4.1
 _ZNK8CryptoPP19PrivateKeyAlgorithm11GetMaterialEv@Base 0.4.1
 _ZNK8CryptoPP19PrivateKeyAlgorithm13GetPrivateKeyEv@Base 0.4.1
 _ZNK8CryptoPP20StreamTransformation16MinLastBlockSizeEv@Base 0.4.1
 _ZNK8CryptoPP20StreamTransformation16OptimalBlockSizeEv@Base 0.4.1
 _ZNK8CryptoPP20StreamTransformation18MandatoryBlockSizeEv@Base 0.4.1
 _ZNK8CryptoPP20StreamTransformation23GetOptimalBlockSizeUsedEv@Base 0.4.1
 _ZNK8CryptoPP21PK_MessageAccumulator10DigestSizeEv@Base 0.4.1
 _ZNK8CryptoPP21SimpleKeyingInterface11MaxIVLengthEv@Base 0.4.1
 _ZNK8CryptoPP21SimpleKeyingInterface11MinIVLengthEv@Base 0.4.1
 _ZNK8CryptoPP21SimpleKeyingInterface16IsValidKeyLengthEm@Base 0.4.1
 _ZNK8CryptoPP22BufferedTransformation14CanModifyInputEv@Base 0.4.1
 _ZNK8CryptoPP22BufferedTransformation21NumberOfMessageSeriesEv@Base 0.4.1
 _ZNK8CryptoPP22BufferedTransformation22AttachedTransformationEv@Base 0.4.1
 _ZNK8CryptoPP22BufferedTransformation24GetAutoSignalPropagationEv@Base 0.4.1
 _ZNK8CryptoPP22BufferedTransformation28NumberOfMessagesInThisSeriesEv@Base 0.4.1
 _ZNK8CryptoPP22DL_GroupParametersImplINS_16EcPrecomputationINS_3ECPEEENS_30DL_FixedBasePrecomputationImplINS_8ECPPointEEENS_18DL_GroupParametersIS5_EEE22GetGroupPrecomputationEv@Base 0.4.1
 _ZNK8CryptoPP22DL_SignatureSchemeBaseINS_11PK_VerifierENS_12DL_PublicKeyINS_8ECPPointEEEE15IsProbabilisticEv@Base 0.4.1
 _ZNK8CryptoPP22DL_SignatureSchemeBaseINS_11PK_VerifierENS_12DL_PublicKeyINS_8ECPPointEEEE15SignatureLengthEv@Base 0.4.1
 _ZNK8CryptoPP22DL_SignatureSchemeBaseINS_11PK_VerifierENS_12DL_PublicKeyINS_8ECPPointEEEE20MaxRecoverableLengthEv@Base 0.4.1
 _ZNK8CryptoPP22DL_SignatureSchemeBaseINS_11PK_VerifierENS_12DL_PublicKeyINS_8ECPPointEEEE20RecoverablePartFirstEv@Base 0.4.1
 _ZNK8CryptoPP22DL_SignatureSchemeBaseINS_11PK_VerifierENS_12DL_PublicKeyINS_8ECPPointEEEE23AllowNonrecoverablePartEv@Base 0.4.1
 _ZNK8CryptoPP22DL_SignatureSchemeBaseINS_11PK_VerifierENS_12DL_PublicKeyINS_8ECPPointEEEE30MessageRepresentativeBitLengthEv@Base 0.4.1
 _ZNK8CryptoPP22DL_SignatureSchemeBaseINS_11PK_VerifierENS_12DL_PublicKeyINS_8ECPPointEEEE39MaxRecoverableLengthFromSignatureLengthEm@Base 0.4.1
 _ZNK8CryptoPP22DL_SignatureSchemeBaseINS_9PK_SignerENS_13DL_PrivateKeyINS_8ECPPointEEEE15IsProbabilisticEv@Base 0.4.1
 _ZNK8CryptoPP22DL_SignatureSchemeBaseINS_9PK_SignerENS_13DL_PrivateKeyINS_8ECPPointEEEE15SignatureLengthEv@Base 0.4.1
 _ZNK8CryptoPP22DL_SignatureSchemeBaseINS_9PK_SignerENS_13DL_PrivateKeyINS_8ECPPointEEEE20MaxRecoverableLengthEv@Base 0.4.1
 _ZNK8CryptoPP22DL_SignatureSchemeBaseINS_9PK_SignerENS_13DL_PrivateKeyINS_8ECPPointEEEE20RecoverablePartFirstEv@Base 0.4.1
 _ZNK8CryptoPP22DL_SignatureSchemeBaseINS_9PK_SignerENS_13DL_PrivateKeyINS_8ECPPointEEEE23AllowNonrecoverablePartEv@Base 0.4.1
 _ZNK8CryptoPP22DL_SignatureSchemeBaseINS_9PK_SignerENS_13DL_PrivateKeyINS_8ECPPointEEEE30MessageRepresentativeBitLengthEv@Base 0.4.1
 _ZNK8CryptoPP22DL_SignatureSchemeBaseINS_9PK_SignerENS_13DL_PrivateKeyINS_8ECPPointEEEE39MaxRecoverableLengthFromSignatureLengthEm@Base 0.4.1
 _ZNK8CryptoPP22TF_SignatureSchemeBaseINS_11PK_VerifierENS_7TF_BaseINS_16TrapdoorFunctionENS_33PK_SignatureMessageEncodingMethodEEEE15IsProbabilisticEv@Base 0.4.1
 _ZNK8CryptoPP22TF_SignatureSchemeBaseINS_11PK_VerifierENS_7TF_BaseINS_16TrapdoorFunctionENS_33PK_SignatureMessageEncodingMethodEEEE15SignatureLengthEv@Base 0.4.1
 _ZNK8CryptoPP22TF_SignatureSchemeBaseINS_11PK_VerifierENS_7TF_BaseINS_16TrapdoorFunctionENS_33PK_SignatureMessageEncodingMethodEEEE20MaxRecoverableLengthEv@Base 0.4.1
 _ZNK8CryptoPP22TF_SignatureSchemeBaseINS_11PK_VerifierENS_7TF_BaseINS_16TrapdoorFunctionENS_33PK_SignatureMessageEncodingMethodEEEE20RecoverablePartFirstEv@Base 0.4.1
 _ZNK8CryptoPP22TF_SignatureSchemeBaseINS_11PK_VerifierENS_7TF_BaseINS_16TrapdoorFunctionENS_33PK_SignatureMessageEncodingMethodEEEE23AllowNonrecoverablePartEv@Base 0.4.1
 _ZNK8CryptoPP22TF_SignatureSchemeBaseINS_11PK_VerifierENS_7TF_BaseINS_16TrapdoorFunctionENS_33PK_SignatureMessageEncodingMethodEEEE39MaxRecoverableLengthFromSignatureLengthEm@Base 0.4.1
 _ZNK8CryptoPP22TF_SignatureSchemeBaseINS_9PK_SignerENS_7TF_BaseINS_33RandomizedTrapdoorFunctionInverseENS_33PK_SignatureMessageEncodingMethodEEEE15IsProbabilisticEv@Base 0.4.1
 _ZNK8CryptoPP22TF_SignatureSchemeBaseINS_9PK_SignerENS_7TF_BaseINS_33RandomizedTrapdoorFunctionInverseENS_33PK_SignatureMessageEncodingMethodEEEE15SignatureLengthEv@Base 0.4.1
 _ZNK8CryptoPP22TF_SignatureSchemeBaseINS_9PK_SignerENS_7TF_BaseINS_33RandomizedTrapdoorFunctionInverseENS_33PK_SignatureMessageEncodingMethodEEEE20MaxRecoverableLengthEv@Base 0.4.1
 _ZNK8CryptoPP22TF_SignatureSchemeBaseINS_9PK_SignerENS_7TF_BaseINS_33RandomizedTrapdoorFunctionInverseENS_33PK_SignatureMessageEncodingMethodEEEE20RecoverablePartFirstEv@Base 0.4.1
 _ZNK8CryptoPP22TF_SignatureSchemeBaseINS_9PK_SignerENS_7TF_BaseINS_33RandomizedTrapdoorFunctionInverseENS_33PK_SignatureMessageEncodingMethodEEEE23AllowNonrecoverablePartEv@Base 0.4.1
 _ZNK8CryptoPP22TF_SignatureSchemeBaseINS_9PK_SignerENS_7TF_BaseINS_33RandomizedTrapdoorFunctionInverseENS_33PK_SignatureMessageEncodingMethodEEEE39MaxRecoverableLengthFromSignatureLengthEm@Base 0.4.1
 _ZNK8CryptoPP22TrapdoorFunctionBounds11MaxPreimageEv@Base 0.4.1
 _ZNK8CryptoPP22TrapdoorFunctionBounds8MaxImageEv@Base 0.4.1
 _ZNK8CryptoPP23TrapdoorFunctionInverse12IsRandomizedEv@Base 0.4.1
 _ZNK8CryptoPP23TrapdoorFunctionInverse26CalculateRandomizedInverseERNS_21RandomNumberGeneratorERKNS_7IntegerE@Base 0.4.1
 _ZNK8CryptoPP25MessageAuthenticationCode12GetAlgorithmEv@Base 0.4.1
 _ZNK8CryptoPP25SimpleKeyingInterfaceImplINS_8TwoBasesINS_11BlockCipherENS_13DES_EDE3_InfoEEES4_E12MaxKeyLengthEv@Base 0.4.1
 _ZNK8CryptoPP25SimpleKeyingInterfaceImplINS_8TwoBasesINS_11BlockCipherENS_13DES_EDE3_InfoEEES4_E12MinKeyLengthEv@Base 0.4.1
 _ZNK8CryptoPP25SimpleKeyingInterfaceImplINS_8TwoBasesINS_11BlockCipherENS_13DES_EDE3_InfoEEES4_E13IVRequirementEv@Base 0.4.1
 _ZNK8CryptoPP25SimpleKeyingInterfaceImplINS_8TwoBasesINS_11BlockCipherENS_13DES_EDE3_InfoEEES4_E16DefaultKeyLengthEv@Base 0.4.1
 _ZNK8CryptoPP25SimpleKeyingInterfaceImplINS_8TwoBasesINS_11BlockCipherENS_13DES_EDE3_InfoEEES4_E17GetValidKeyLengthEm@Base 0.4.1
 _ZNK8CryptoPP25SimpleKeyingInterfaceImplINS_8TwoBasesINS_11BlockCipherENS_13DES_EDE3_InfoEEES4_E6IVSizeEv@Base 0.4.1
 _ZNK8CryptoPP25SimpleKeyingInterfaceImplINS_9HMAC_BaseENS_4HMACINS_4SHA1EEEE12MaxKeyLengthEv@Base 0.4.1
 _ZNK8CryptoPP25SimpleKeyingInterfaceImplINS_9HMAC_BaseENS_4HMACINS_4SHA1EEEE12MinKeyLengthEv@Base 0.4.1
 _ZNK8CryptoPP25SimpleKeyingInterfaceImplINS_9HMAC_BaseENS_4HMACINS_4SHA1EEEE13IVRequirementEv@Base 0.4.1
 _ZNK8CryptoPP25SimpleKeyingInterfaceImplINS_9HMAC_BaseENS_4HMACINS_4SHA1EEEE16DefaultKeyLengthEv@Base 0.4.1
 _ZNK8CryptoPP25SimpleKeyingInterfaceImplINS_9HMAC_BaseENS_4HMACINS_4SHA1EEEE17GetValidKeyLengthEm@Base 0.4.1
 _ZNK8CryptoPP25SimpleKeyingInterfaceImplINS_9HMAC_BaseENS_4HMACINS_4SHA1EEEE6IVSizeEv@Base 0.4.1
 _ZNK8CryptoPP27AlgorithmParametersTemplateIPKcE11AssignValueES2_RKSt9type_infoPv@Base 0.4.1
 _ZNK8CryptoPP27AlgorithmParametersTemplateIPKcE8MoveIntoEPv@Base 0.4.1
 _ZNK8CryptoPP27AlgorithmParametersTemplateIPKiE11AssignValueEPKcRKSt9type_infoPv@Base 0.4.1
 _ZNK8CryptoPP27AlgorithmParametersTemplateIPKiE8MoveIntoEPv@Base 0.4.1
 _ZNK8CryptoPP27AlgorithmParametersTemplateIPSiE11AssignValueEPKcRKSt9type_infoPv@Base 0.4.1
 _ZNK8CryptoPP27AlgorithmParametersTemplateIPSiE8MoveIntoEPv@Base 0.4.1
 _ZNK8CryptoPP27AlgorithmParametersTemplateIPSoE11AssignValueEPKcRKSt9type_infoPv@Base 0.4.1
 _ZNK8CryptoPP27AlgorithmParametersTemplateIPSoE8MoveIntoEPv@Base 0.4.1
 _ZNK8CryptoPP27BlockOrientedCipherModeBase14IsRandomAccessEv@Base 0.4.1
 _ZNK8CryptoPP27BlockOrientedCipherModeBase15IsSelfInvertingEv@Base 0.4.1
 _ZNK8CryptoPP27BlockOrientedCipherModeBase18MandatoryBlockSizeEv@Base 0.4.1
 _ZNK8CryptoPP27BlockOrientedCipherModeBase23IsForwardTransformationEv@Base 0.4.1
 _ZNK8CryptoPP31IteratedHashWithStaticTransformIjNS_10EnumToTypeINS_9ByteOrderELi1EEELj64ELj20ENS_4SHA1ELj0ELb0EE10DigestSizeEv@Base 0.4.1
 _ZNK8CryptoPP31IteratedHashWithStaticTransformIjNS_10EnumToTypeINS_9ByteOrderELi1EEELj64ELj32ENS_6SHA256ELj32ELb1EE10DigestSizeEv@Base 0.4.1
 _ZNK8CryptoPP32DL_ElgamalLikeSignatureAlgorithmINS_8ECPPointEE19RecoverPresignatureERKNS_18DL_GroupParametersIS1_EERKNS_12DL_PublicKeyIS1_EERKNS_7IntegerESD_@Base 0.4.1
 _ZNK8CryptoPP32DL_ElgamalLikeSignatureAlgorithmINS_8ECPPointEE4RLenERKNS_18DL_GroupParametersIS1_EE@Base 0.4.1
 _ZNK8CryptoPP32DL_ElgamalLikeSignatureAlgorithmINS_8ECPPointEE4SLenERKNS_18DL_GroupParametersIS1_EE@Base 0.4.1
 _ZNK8CryptoPP33PK_SignatureMessageEncodingMethod20ProcessSemisignatureERNS_18HashTransformationEPKhm@Base 0.4.1
 _ZNK8CryptoPP33PK_SignatureMessageEncodingMethod25ProcessRecoverableMessageERNS_18HashTransformationEPKhmS4_mRNS_8SecBlockIhNS_20AllocatorWithCleanupIhLb0EEEEE@Base 0.4.1
 _ZNK8CryptoPP4HMACINS_4SHA1EE13AlgorithmNameB5cxx11Ev@Base 0.4.1
 _ZNK8CryptoPP5Store16NumberOfMessagesEv@Base 0.4.1
 _ZNK8CryptoPP6Filter25ShouldPropagateMessageEndEv@Base 0.4.1
 _ZNK8CryptoPP6Filter31ShouldPropagateMessageSeriesEndEv@Base 0.4.1
 _ZNK8CryptoPP8Clonable5CloneEv@Base 0.4.1
 _ZNK8CryptoPP9Algorithm13AlgorithmNameB5cxx11Ev@Base 0.4.1
 _ZNK8CryptoPP9ByteQueue14AnyRetrievableEv@Base 0.4.1
 _ZNK8CryptoPP9ByteQueue14MaxRetrievableEv@Base 0.4.1
 _ZNK8CryptoPP9Exception4whatEv@Base 0.4.1
 _ZNK8CryptoPP9HMAC_Base10DigestSizeEv@Base 0.4.1
 _ZNK8CryptoPP9HMAC_Base16OptimalBlockSizeEv@Base 0.4.1
 _ZNK8CryptoPP9SingletonINS_18DL_Algorithm_ECDSAINS_3ECPEEENS_9NewObjectIS3_EELi0EE3RefEv@Base 0.4.1
 _ZNK8CryptoPP9SingletonINS_37DL_SignatureMessageEncodingMethod_DSAENS_9NewObjectIS1_EELi0EE3RefEv@Base 0.4.1
 _ZNK8CryptoPP9SingletonINS_39PKCS1v15_SignatureMessageEncodingMethodENS_9NewObjectIS1_EELi0EE3RefEv@Base 0.4.1
 _ZNKSt10_HashtableIN3ndn4NameESt4pairIKS1_NS0_4mgmt10Dispatcher14TopPrefixEntryEESaIS7_ENSt8__detail10_Select1stESt8equal_toIS1_ESt4hashIS1_ENS9_18_Mod_range_hashingENS9_20_Default_ranged_hashENS9_20_Prime_rehash_policyENS9_17_Hashtable_traitsILb1ELb0ELb1EEEE19_M_find_before_nodeEmRS3_m@Base 0.4.1
 _ZNKSt10_HashtableINSt7__cxx1112basic_stringIcSt11char_traitsIcESaIcEEESt4pairIKS5_N3ndn4util8LogLevelEESaISB_ENSt8__detail10_Select1stESt8equal_toIS5_ESt4hashIS5_ENSD_18_Mod_range_hashingENSD_20_Default_ranged_hashENSD_20_Prime_rehash_policyENSD_17_Hashtable_traitsILb1ELb0ELb1EEEE19_M_find_before_nodeEmRS7_m@Base 0.4.1
 _ZNKSt10_HashtableINSt7__cxx1112basic_stringIcSt11char_traitsIcESaIcEEESt4pairIKS5_PN3ndn4util6LoggerEESaISC_ENSt8__detail10_Select1stESt8equal_toIS5_ESt4hashIS5_ENSE_18_Mod_range_hashingENSE_20_Default_ranged_hashENSE_20_Prime_rehash_policyENSE_17_Hashtable_traitsILb1ELb0ELb0EEEE19_M_find_before_nodeEmRS7_m@Base 0.4.1
 _ZNKSt15_Deque_iteratorIcRcPcEmiEl@Base 0.4.1
 _ZNKSt15_Deque_iteratorIcRcPcEplEl@Base 0.4.1
 _ZNKSt19istreambuf_iteratorIcSt11char_traitsIcEE5equalERKS2_@Base 0.4.1
 _ZNKSt19istreambuf_iteratorIcSt11char_traitsIcEE6_M_getEv@Base 0.4.1
 _ZNKSt4hashIN3ndn4NameEEclERKS1_@Base 0.4.1
 _ZNKSt4hashIN3ndn4util8ethernet7AddressEEclERKS3_@Base 0.4.1
 _ZNKSt5ctypeIcE8do_widenEc@Base 0.4.1
 _ZNKSt8_Rb_treeIN3ndn4NameESt4pairIKS1_NS0_8security2v119IdentityCertificateEESt10_Select1stIS7_ESt4lessIS1_ESaIS7_EE4findERS3_@Base 0.4.1
 _ZNKSt8_Rb_treeIN3ndn4NameESt4pairIKS1_NS0_8security2v19PublicKeyEESt10_Select1stIS7_ESt4lessIS1_ESaIS7_EE4findERS3_@Base 0.4.1
 _ZNKSt8_Rb_treeIN3ndn4NameESt4pairIKS1_S1_ESt10_Select1stIS4_ESt4lessIS1_ESaIS4_EE4findERS3_@Base 0.4.1
 _ZNKSt8_Rb_treeINSt7__cxx1112basic_stringIcSt11char_traitsIcESaIcEEESt4pairIKS5_S5_ESt10_Select1stIS8_ESt4lessIS5_ESaIS8_EE4findERS7_@Base 0.4.1
 _ZNSt10_HashtableIN3ndn4NameESt4pairIKS1_NS0_4mgmt10Dispatcher14TopPrefixEntryEESaIS7_ENSt8__detail10_Select1stESt8equal_toIS1_ESt4hashIS1_ENS9_18_Mod_range_hashingENS9_20_Default_ranged_hashENS9_20_Prime_rehash_policyENS9_17_Hashtable_traitsILb1ELb0ELb1EEEE9_M_rehashEmRKm@Base 0.4.1
 _ZNSt10_HashtableIN3ndn4NameESt4pairIKS1_NS0_4mgmt10Dispatcher14TopPrefixEntryEESaIS7_ENSt8__detail10_Select1stESt8equal_toIS1_ESt4hashIS1_ENS9_18_Mod_range_hashingENS9_20_Default_ranged_hashENS9_20_Prime_rehash_policyENS9_17_Hashtable_traitsILb1ELb0ELb1EEEED1Ev@Base 0.4.1
 _ZNSt10_HashtableIN3ndn4NameESt4pairIKS1_NS0_4mgmt10Dispatcher14TopPrefixEntryEESaIS7_ENSt8__detail10_Select1stESt8equal_toIS1_ESt4hashIS1_ENS9_18_Mod_range_hashingENS9_20_Default_ranged_hashENS9_20_Prime_rehash_policyENS9_17_Hashtable_traitsILb1ELb0ELb1EEEED2Ev@Base 0.4.1
 _ZNSt10_HashtableIN3ndn4NameESt4pairIKS1_St8functionIFvRS3_RKNS0_8InterestEEEESaISB_ENSt8__detail10_Select1stESt8equal_toIS1_ESt4hashIS1_ENSD_18_Mod_range_hashingENSD_20_Default_ranged_hashENSD_20_Prime_rehash_policyENSD_17_Hashtable_traitsILb1ELb0ELb1EEEE21_M_insert_unique_nodeEmmPNSD_10_Hash_nodeISB_Lb1EEE@Base 0.4.1
 _ZNSt10_HashtableIN3ndn4NameESt4pairIKS1_St8functionIFvRS3_RKNS0_8InterestEEEESaISB_ENSt8__detail10_Select1stESt8equal_toIS1_ESt4hashIS1_ENSD_18_Mod_range_hashingENSD_20_Default_ranged_hashENSD_20_Prime_rehash_policyENSD_17_Hashtable_traitsILb1ELb0ELb1EEEE9_M_rehashEmRKm@Base 0.4.1
 _ZNSt10_HashtableIN3ndn4NameESt4pairIKS1_St8functionIFvRS3_RKNS0_8InterestEEEESaISB_ENSt8__detail10_Select1stESt8equal_toIS1_ESt4hashIS1_ENSD_18_Mod_range_hashingENSD_20_Default_ranged_hashENSD_20_Prime_rehash_policyENSD_17_Hashtable_traitsILb1ELb0ELb1EEEED1Ev@Base 0.4.1
 _ZNSt10_HashtableIN3ndn4NameESt4pairIKS1_St8functionIFvRS3_RKNS0_8InterestEEEESaISB_ENSt8__detail10_Select1stESt8equal_toIS1_ESt4hashIS1_ENSD_18_Mod_range_hashingENSD_20_Default_ranged_hashENSD_20_Prime_rehash_policyENSD_17_Hashtable_traitsILb1ELb0ELb1EEEED2Ev@Base 0.4.1
 _ZNSt10_HashtableIN3ndn4NameESt4pairIKS1_mESaIS4_ENSt8__detail10_Select1stESt8equal_toIS1_ESt4hashIS1_ENS6_18_Mod_range_hashingENS6_20_Default_ranged_hashENS6_20_Prime_rehash_policyENS6_17_Hashtable_traitsILb1ELb0ELb1EEEE21_M_insert_unique_nodeEmmPNS6_10_Hash_nodeIS4_Lb1EEE@Base 0.4.1
 _ZNSt10_HashtableIN3ndn4NameESt4pairIKS1_mESaIS4_ENSt8__detail10_Select1stESt8equal_toIS1_ESt4hashIS1_ENS6_18_Mod_range_hashingENS6_20_Default_ranged_hashENS6_20_Prime_rehash_policyENS6_17_Hashtable_traitsILb1ELb0ELb1EEEE9_M_rehashEmRKm@Base 0.4.1
 _ZNSt10_HashtableIN3ndn4NameESt4pairIKS1_mESaIS4_ENSt8__detail10_Select1stESt8equal_toIS1_ESt4hashIS1_ENS6_18_Mod_range_hashingENS6_20_Default_ranged_hashENS6_20_Prime_rehash_policyENS6_17_Hashtable_traitsILb1ELb0ELb1EEEED1Ev@Base 0.4.1
 _ZNSt10_HashtableIN3ndn4NameESt4pairIKS1_mESaIS4_ENSt8__detail10_Select1stESt8equal_toIS1_ESt4hashIS1_ENS6_18_Mod_range_hashingENS6_20_Default_ranged_hashENS6_20_Prime_rehash_policyENS6_17_Hashtable_traitsILb1ELb0ELb1EEEED2Ev@Base 0.4.1
 _ZNSt10_HashtableINSt7__cxx1112basic_stringIcSt11char_traitsIcESaIcEEESt4pairIKS5_N3ndn4util8LogLevelEESaISB_ENSt8__detail10_Select1stESt8equal_toIS5_ESt4hashIS5_ENSD_18_Mod_range_hashingENSD_20_Default_ranged_hashENSD_20_Prime_rehash_policyENSD_17_Hashtable_traitsILb1ELb0ELb1EEEE21_M_insert_unique_nodeEmmPNSD_10_Hash_nodeISB_Lb1EEE@Base 0.4.1
 _ZNSt10_HashtableINSt7__cxx1112basic_stringIcSt11char_traitsIcESaIcEEESt4pairIKS5_N3ndn4util8LogLevelEESaISB_ENSt8__detail10_Select1stESt8equal_toIS5_ESt4hashIS5_ENSD_18_Mod_range_hashingENSD_20_Default_ranged_hashENSD_20_Prime_rehash_policyENSD_17_Hashtable_traitsILb1ELb0ELb1EEEE4findERS7_@Base 0.4.1
 _ZNSt10_HashtableINSt7__cxx1112basic_stringIcSt11char_traitsIcESaIcEEESt4pairIKS5_N3ndn4util8LogLevelEESaISB_ENSt8__detail10_Select1stESt8equal_toIS5_ESt4hashIS5_ENSD_18_Mod_range_hashingENSD_20_Default_ranged_hashENSD_20_Prime_rehash_policyENSD_17_Hashtable_traitsILb1ELb0ELb1EEEE5clearEv@Base 0.4.1
 _ZNSt10_HashtableINSt7__cxx1112basic_stringIcSt11char_traitsIcESaIcEEESt4pairIKS5_N3ndn4util8LogLevelEESaISB_ENSt8__detail10_Select1stESt8equal_toIS5_ESt4hashIS5_ENSD_18_Mod_range_hashingENSD_20_Default_ranged_hashENSD_20_Prime_rehash_policyENSD_17_Hashtable_traitsILb1ELb0ELb1EEEE9_M_rehashEmRKm@Base 0.4.1
 _ZNSt10_HashtableINSt7__cxx1112basic_stringIcSt11char_traitsIcESaIcEEESt4pairIKS5_N3ndn4util8LogLevelEESaISB_ENSt8__detail10_Select1stESt8equal_toIS5_ESt4hashIS5_ENSD_18_Mod_range_hashingENSD_20_Default_ranged_hashENSD_20_Prime_rehash_policyENSD_17_Hashtable_traitsILb1ELb0ELb1EEEED1Ev@Base 0.4.1
 _ZNSt10_HashtableINSt7__cxx1112basic_stringIcSt11char_traitsIcESaIcEEESt4pairIKS5_N3ndn4util8LogLevelEESaISB_ENSt8__detail10_Select1stESt8equal_toIS5_ESt4hashIS5_ENSD_18_Mod_range_hashingENSD_20_Default_ranged_hashENSD_20_Prime_rehash_policyENSD_17_Hashtable_traitsILb1ELb0ELb1EEEED2Ev@Base 0.4.1
 _ZNSt10_HashtableINSt7__cxx1112basic_stringIcSt11char_traitsIcESaIcEEESt4pairIKS5_PN3ndn4util6LoggerEESaISC_ENSt8__detail10_Select1stESt8equal_toIS5_ESt4hashIS5_ENSE_18_Mod_range_hashingENSE_20_Default_ranged_hashENSE_20_Prime_rehash_policyENSE_17_Hashtable_traitsILb1ELb0ELb0EEEE13_M_rehash_auxEmSt17integral_constantIbLb0EE@Base 0.4.1
 _ZNSt10_HashtableINSt7__cxx1112basic_stringIcSt11char_traitsIcESaIcEEESt4pairIKS5_PN3ndn4util6LoggerEESaISC_ENSt8__detail10_Select1stESt8equal_toIS5_ESt4hashIS5_ENSE_18_Mod_range_hashingENSE_20_Default_ranged_hashENSE_20_Prime_rehash_policyENSE_17_Hashtable_traitsILb1ELb0ELb0EEEE20_M_insert_multi_nodeEPNSE_10_Hash_nodeISC_Lb1EEEmSS_@Base 0.4.1
 _ZNSt10_HashtableINSt7__cxx1112basic_stringIcSt11char_traitsIcESaIcEEESt4pairIKS5_PN3ndn4util6LoggerEESaISC_ENSt8__detail10_Select1stESt8equal_toIS5_ESt4hashIS5_ENSE_18_Mod_range_hashingENSE_20_Default_ranged_hashENSE_20_Prime_rehash_policyENSE_17_Hashtable_traitsILb1ELb0ELb0EEEED1Ev@Base 0.4.1
 _ZNSt10_HashtableINSt7__cxx1112basic_stringIcSt11char_traitsIcESaIcEEESt4pairIKS5_PN3ndn4util6LoggerEESaISC_ENSt8__detail10_Select1stESt8equal_toIS5_ESt4hashIS5_ENSE_18_Mod_range_hashingENSE_20_Default_ranged_hashENSE_20_Prime_rehash_policyENSE_17_Hashtable_traitsILb1ELb0ELb0EEEED2Ev@Base 0.4.1
 _ZNSt10__weak_ptrIN3ndn4Face4ImplELN9__gnu_cxx12_Lock_policyE2EEC1ERKS5_@Base 0.4.1
 _ZNSt10__weak_ptrIN3ndn4Face4ImplELN9__gnu_cxx12_Lock_policyE2EEC1IS2_vEERKSt12__shared_ptrIT_LS4_2EE@Base 0.4.1
 _ZNSt10__weak_ptrIN3ndn4Face4ImplELN9__gnu_cxx12_Lock_policyE2EEC2ERKS5_@Base 0.4.1
 _ZNSt10__weak_ptrIN3ndn4Face4ImplELN9__gnu_cxx12_Lock_policyE2EEC2IS2_vEERKSt12__shared_ptrIT_LS4_2EE@Base 0.4.1
 _ZNSt10shared_ptrIN3ndn4time11CustomClockINS1_12steady_clockEEEED1Ev@Base 0.4.1
 _ZNSt10shared_ptrIN3ndn4time11CustomClockINS1_12steady_clockEEEED2Ev@Base 0.4.1
 _ZNSt10shared_ptrIN3ndn4time11CustomClockINS1_12system_clockEEEED1Ev@Base 0.4.1
 _ZNSt10shared_ptrIN3ndn4time11CustomClockINS1_12system_clockEEEED2Ev@Base 0.4.1
 _ZNSt10shared_ptrIN3ndn8security16CertificateCacheEED1Ev@Base 0.4.1
 _ZNSt10shared_ptrIN3ndn8security16CertificateCacheEED2Ev@Base 0.4.1
 _ZNSt10unique_ptrIN3ndn4util9scheduler9SchedulerESt14default_deleteIS3_EED1Ev@Base 0.4.1
 _ZNSt10unique_ptrIN3ndn4util9scheduler9SchedulerESt14default_deleteIS3_EED2Ev@Base 0.4.1
 _ZNSt10unique_ptrIN3ndn8security9transform10PrivateKeyESt14default_deleteIS3_EED1Ev@Base 0.4.1
 _ZNSt10unique_ptrIN3ndn8security9transform10PrivateKeyESt14default_deleteIS3_EED2Ev@Base 0.4.1
 _ZNSt10unique_ptrIN5boost4asio10io_serviceESt14default_deleteIS2_EED1Ev@Base 0.4.1
 _ZNSt10unique_ptrIN5boost4asio10io_serviceESt14default_deleteIS2_EED2Ev@Base 0.4.1
 _ZNSt11_Deque_baseIPN3ndn4util20InMemoryStorageEntryESaIS3_EE17_M_initialize_mapEm@Base 0.4.1
 _ZNSt11_Deque_baseIPN3ndn4util20InMemoryStorageEntryESaIS3_EED1Ev@Base 0.4.1
 _ZNSt11_Deque_baseIPN3ndn4util20InMemoryStorageEntryESaIS3_EED2Ev@Base 0.4.1
 _ZNSt11_Deque_baseIPN5boost13property_tree11basic_ptreeINSt7__cxx1112basic_stringIcSt11char_traitsIcESaIcEEES8_St4lessIS8_EEESaISC_EE17_M_initialize_mapEm@Base 0.4.1
 _ZNSt11_Deque_baseIPN5boost13property_tree11basic_ptreeINSt7__cxx1112basic_stringIcSt11char_traitsIcESaIcEEES8_St4lessIS8_EEESaISC_EED1Ev@Base 0.4.1
 _ZNSt11_Deque_baseIPN5boost13property_tree11basic_ptreeINSt7__cxx1112basic_stringIcSt11char_traitsIcESaIcEEES8_St4lessIS8_EEESaISC_EED2Ev@Base 0.4.1
 _ZNSt11_Deque_baseIcSaIcEE17_M_initialize_mapEm@Base 0.4.1
 _ZNSt11_Deque_baseIcSaIcEED1Ev@Base 0.4.1
 _ZNSt11_Deque_baseIcSaIcEED2Ev@Base 0.4.1
 _ZNSt11_Tuple_implILm0EJSt10shared_ptrIN3ndn31StreamTransportWithResolverImplINS1_12TcpTransportEN5boost4asio2ip3tcpEEEESt12_PlaceholderILi1EESA_ILi2EES0_INS6_14basic_resolverIS7_NS6_16resolver_serviceIS7_EEEEEEED1Ev@Base 0.4.1
 _ZNSt11_Tuple_implILm0EJSt10shared_ptrIN3ndn31StreamTransportWithResolverImplINS1_12TcpTransportEN5boost4asio2ip3tcpEEEESt12_PlaceholderILi1EESA_ILi2EES0_INS6_14basic_resolverIS7_NS6_16resolver_serviceIS7_EEEEEEED2Ev@Base 0.4.1
 _ZNSt11_Tuple_implILm1EJN3ndn8InterestEjSt10shared_ptrINS0_4util14SegmentFetcherEEEED1Ev@Base 0.4.1
 _ZNSt11_Tuple_implILm1EJN3ndn8InterestEjSt10shared_ptrINS0_4util14SegmentFetcherEEEED2Ev@Base 0.4.1
 _ZNSt11_Tuple_implILm1EJSt10shared_ptrIN3ndn4util7FaceUriEESt8functionIFvRKNSt7__cxx1112basic_stringIcSt11char_traitsIcESaIcEEEEESt12_PlaceholderILi1EEEED1Ev@Base 0.4.1
 _ZNSt11_Tuple_implILm1EJSt10shared_ptrIN3ndn4util7FaceUriEESt8functionIFvRKNSt7__cxx1112basic_stringIcSt11char_traitsIcESaIcEEEEESt12_PlaceholderILi1EEEED2Ev@Base 0.4.1
 _ZNSt11_Tuple_implILm1EJSt10shared_ptrIN3ndn4util7FaceUriEESt8functionIFvRKS3_EES5_IFvRKNSt7__cxx1112basic_stringIcSt11char_traitsIcESaIcEEEEESt12_PlaceholderILi1EEEED1Ev@Base 0.4.1
 _ZNSt11_Tuple_implILm1EJSt10shared_ptrIN3ndn4util7FaceUriEESt8functionIFvRKS3_EES5_IFvRKNSt7__cxx1112basic_stringIcSt11char_traitsIcESaIcEEEEESt12_PlaceholderILi1EEEED2Ev@Base 0.4.1
 _ZNSt11_Tuple_implILm2EJSt10shared_ptrIKN3ndn4DataEESt8functionIFvRKS4_EES5_IFvS7_RKNSt7__cxx1112basic_stringIcSt11char_traitsIcESaIcEEEEEEED1Ev@Base 0.4.1
 _ZNSt11_Tuple_implILm2EJSt10shared_ptrIKN3ndn4DataEESt8functionIFvRKS4_EES5_IFvS7_RKNSt7__cxx1112basic_stringIcSt11char_traitsIcESaIcEEEEEEED2Ev@Base 0.4.1
 _ZNSt11_Tuple_implILm2EJSt10shared_ptrIKN3ndn8InterestEESt8functionIFvRKS4_EES5_IFvS7_RKNSt7__cxx1112basic_stringIcSt11char_traitsIcESaIcEEEEEEED1Ev@Base 0.4.1
 _ZNSt11_Tuple_implILm2EJSt10shared_ptrIKN3ndn8InterestEESt8functionIFvRKS4_EES5_IFvS7_RKNSt7__cxx1112basic_stringIcSt11char_traitsIcESaIcEEEEEEED2Ev@Base 0.4.1
 _ZNSt11_Tuple_implILm3EJN3ndn8InterestESt10shared_ptrINS0_4util14SegmentFetcherEEEED1Ev@Base 0.4.1
 _ZNSt11_Tuple_implILm3EJN3ndn8InterestESt10shared_ptrINS0_4util14SegmentFetcherEEEED2Ev@Base 0.4.1
 _ZNSt11_Tuple_implILm3EJSt10shared_ptrIKN3ndn4DataEESt8functionIFvRKS4_RKNSt7__cxx1112basic_stringIcSt11char_traitsIcESaIcEEEEEEED1Ev@Base 0.4.1
 _ZNSt11_Tuple_implILm3EJSt10shared_ptrIKN3ndn4DataEESt8functionIFvRKS4_RKNSt7__cxx1112basic_stringIcSt11char_traitsIcESaIcEEEEEEED2Ev@Base 0.4.1
 _ZNSt11_Tuple_implILm3EJSt10shared_ptrIKN3ndn8InterestEESt8functionIFvRKS4_RKNSt7__cxx1112basic_stringIcSt11char_traitsIcESaIcEEEEEEED1Ev@Base 0.4.1
 _ZNSt11_Tuple_implILm3EJSt10shared_ptrIKN3ndn8InterestEESt8functionIFvRKS4_RKNSt7__cxx1112basic_stringIcSt11char_traitsIcESaIcEEEEEEED2Ev@Base 0.4.1
 _ZNSt11_Tuple_implILm3EJSt8functionIFvRKN3ndn4NameERKNS1_8InterestEPKNS1_4mgmt17ControlParametersERKS0_IFvRKNSt7__cxx1112basic_stringIcSt11char_traitsIcESaIcEEEEERKS0_IFvNS8_11RejectReplyEEEEES0_IFvSJ_S4_S7_SB_EES0_IFvSO_S7_EEEED1Ev@Base 0.4.1
 _ZNSt11_Tuple_implILm3EJSt8functionIFvRKN3ndn4NameERKNS1_8InterestEPKNS1_4mgmt17ControlParametersERKS0_IFvRKNSt7__cxx1112basic_stringIcSt11char_traitsIcESaIcEEEEERKS0_IFvNS8_11RejectReplyEEEEES0_IFvSJ_S4_S7_SB_EES0_IFvSO_S7_EEEED2Ev@Base 0.4.1
 _ZNSt11_Tuple_implILm3EJSt8functionIFvRKNSt7__cxx1112basic_stringIcSt11char_traitsIcESaIcEEEEESt10shared_ptrIN3ndn8security17ValidationRequestEEEED1Ev@Base 0.4.1
 _ZNSt11_Tuple_implILm3EJSt8functionIFvRKNSt7__cxx1112basic_stringIcSt11char_traitsIcESaIcEEEEESt10shared_ptrIN3ndn8security17ValidationRequestEEEED2Ev@Base 0.4.1
 _ZNSt11_Tuple_implILm3EJSt8functionIFvRKSt10shared_ptrIKN3ndn8InterestEEEES0_IFvS7_RKNSt7__cxx1112basic_stringIcSt11char_traitsIcESaIcEEEEEEED1Ev@Base 0.4.1
 _ZNSt11_Tuple_implILm3EJSt8functionIFvRKSt10shared_ptrIKN3ndn8InterestEEEES0_IFvS7_RKNSt7__cxx1112basic_stringIcSt11char_traitsIcESaIcEEEEEEED2Ev@Base 0.4.1
 _ZNSt11_Tuple_implILm4EJSt8functionIFvRKNSt7__cxx1112basic_stringIcSt11char_traitsIcESaIcEEEEESt10shared_ptrIN3ndn8security17ValidationRequestEEEED1Ev@Base 0.4.1
 _ZNSt11_Tuple_implILm4EJSt8functionIFvRKNSt7__cxx1112basic_stringIcSt11char_traitsIcESaIcEEEEESt10shared_ptrIN3ndn8security17ValidationRequestEEEED2Ev@Base 0.4.1
 _ZNSt11_Tuple_implILm4EJSt8functionIFvRKNSt7__cxx1112basic_stringIcSt11char_traitsIcESaIcEEERKN3ndn4NameERKNS9_8InterestEPKNS9_4mgmt17ControlParametersEEES0_IFvNSG_11RejectReplyESF_EEEED1Ev@Base 0.4.1
 _ZNSt11_Tuple_implILm4EJSt8functionIFvRKNSt7__cxx1112basic_stringIcSt11char_traitsIcESaIcEEERKN3ndn4NameERKNS9_8InterestEPKNS9_4mgmt17ControlParametersEEES0_IFvNSG_11RejectReplyESF_EEEED2Ev@Base 0.4.1
 _ZNSt11__copy_moveILb0ELb0ESt26random_access_iterator_tagE8__copy_mIPKcSt15_Deque_iteratorIcRcPcEEET0_T_SA_S9_@Base 0.4.1
 _ZNSt12_Destroy_auxILb0EE9__destroyIPN3ndn3nfd10FaceStatusEEEvT_S6_@Base 0.4.1
 _ZNSt12__shared_ptrIN3ndn18RegexRepeatMatcherELN9__gnu_cxx12_Lock_policyE2EEC1ISaIS1_EJNSt7__cxx1112basic_stringIcSt11char_traitsIcESaIcEEERSt10shared_ptrINS0_19RegexBackrefManagerEEmEEESt19_Sp_make_shared_tagRKT_DpOT0_@Base 0.4.1
 _ZNSt12__shared_ptrIN3ndn18RegexRepeatMatcherELN9__gnu_cxx12_Lock_policyE2EEC2ISaIS1_EJNSt7__cxx1112basic_stringIcSt11char_traitsIcESaIcEEERSt10shared_ptrINS0_19RegexBackrefManagerEEmEEESt19_Sp_make_shared_tagRKT_DpOT0_@Base 0.4.1
 _ZNSt12__shared_ptrIN3ndn19RegexBackrefManagerELN9__gnu_cxx12_Lock_policyE2EEC1ERKS4_@Base 0.4.1
 _ZNSt12__shared_ptrIN3ndn19RegexBackrefManagerELN9__gnu_cxx12_Lock_policyE2EEC2ERKS4_@Base 0.4.1
 _ZNSt12__shared_ptrIN3ndn19RegexBackrefMatcherELN9__gnu_cxx12_Lock_policyE2EEC1ISaIS1_EJNSt7__cxx1112basic_stringIcSt11char_traitsIcESaIcEEERSt10shared_ptrINS0_19RegexBackrefManagerEEEEESt19_Sp_make_shared_tagRKT_DpOT0_@Base 0.4.1
 _ZNSt12__shared_ptrIN3ndn19RegexBackrefMatcherELN9__gnu_cxx12_Lock_policyE2EEC2ISaIS1_EJNSt7__cxx1112basic_stringIcSt11char_traitsIcESaIcEEERSt10shared_ptrINS0_19RegexBackrefManagerEEEEESt19_Sp_make_shared_tagRKT_DpOT0_@Base 0.4.1
 _ZNSt12__shared_ptrIN3ndn4Face4ImplELN9__gnu_cxx12_Lock_policyE2EEC1ERKSt10__weak_ptrIS2_LS4_2EESt9nothrow_t@Base 0.4.1
 _ZNSt12__shared_ptrIN3ndn4Face4ImplELN9__gnu_cxx12_Lock_policyE2EEC1ISaIS2_EJRS1_EEESt19_Sp_make_shared_tagRKT_DpOT0_@Base 0.4.1
 _ZNSt12__shared_ptrIN3ndn4Face4ImplELN9__gnu_cxx12_Lock_policyE2EEC2ERKSt10__weak_ptrIS2_LS4_2EESt9nothrow_t@Base 0.4.1
 _ZNSt12__shared_ptrIN3ndn4Face4ImplELN9__gnu_cxx12_Lock_policyE2EEC2ISaIS2_EJRS1_EEESt19_Sp_make_shared_tagRKT_DpOT0_@Base 0.4.1
 _ZNSt12__shared_ptrIN3ndn4util7FaceUriELN9__gnu_cxx12_Lock_policyE2EEC1ERKS5_@Base 0.4.1
 _ZNSt12__shared_ptrIN3ndn4util7FaceUriELN9__gnu_cxx12_Lock_policyE2EEC2ERKS5_@Base 0.4.1
 _ZNSt12__shared_ptrIN3ndn8security17ValidationRequestELN9__gnu_cxx12_Lock_policyE2EEC1ISaIS2_EJRNS0_8InterestERSt8functionIFvRKSt10shared_ptrIKNS0_4DataEEEERSA_IFvSG_RKNSt7__cxx1112basic_stringIcSt11char_traitsIcESaIcEEEEEimEEESt19_Sp_make_shared_tagRKT_DpOT0_@Base 0.4.1
 _ZNSt12__shared_ptrIN3ndn8security17ValidationRequestELN9__gnu_cxx12_Lock_policyE2EEC2ISaIS2_EJRNS0_8InterestERSt8functionIFvRKSt10shared_ptrIKNS0_4DataEEEERSA_IFvSG_RKNSt7__cxx1112basic_stringIcSt11char_traitsIcESaIcEEEEEimEEESt19_Sp_make_shared_tagRKT_DpOT0_@Base 0.4.1
 _ZNSt12__shared_ptrIN3ndn8security2v119IdentityCertificateELN9__gnu_cxx12_Lock_policyE2EEC1ISaIS3_EJRKNS0_4DataEEEESt19_Sp_make_shared_tagRKT_DpOT0_@Base 0.4.1
 _ZNSt12__shared_ptrIN3ndn8security2v119IdentityCertificateELN9__gnu_cxx12_Lock_policyE2EEC2ISaIS3_EJRKNS0_4DataEEEESt19_Sp_make_shared_tagRKT_DpOT0_@Base 0.4.1
 _ZNSt12__shared_ptrIN3ndn9SimpleTagImLi10EEELN9__gnu_cxx12_Lock_policyE2EEC1ISaIS2_EJmEEESt19_Sp_make_shared_tagRKT_DpOT0_@Base 0.4.1
 _ZNSt12__shared_ptrIN3ndn9SimpleTagImLi10EEELN9__gnu_cxx12_Lock_policyE2EEC2ISaIS2_EJmEEESt19_Sp_make_shared_tagRKT_DpOT0_@Base 0.4.1
 _ZNSt13_Bvector_baseISaIbEE13_M_deallocateEv@Base 0.4.1
 _ZNSt14_Function_base13_Base_managerIN3ndn3dns10AnyAddressEE10_M_managerERSt9_Any_dataRKS5_St18_Manager_operation@Base 0.4.1
 _ZNSt14_Function_base13_Base_managerIN3ndn3dns8Ipv4OnlyEE10_M_managerERSt9_Any_dataRKS5_St18_Manager_operation@Base 0.4.1
 _ZNSt14_Function_base13_Base_managerIN3ndn3dns8Ipv6OnlyEE10_M_managerERSt9_Any_dataRKS5_St18_Manager_operation@Base 0.4.1
 _ZNSt14_Function_base13_Base_managerIN5boost3_bi6bind_tIvNS1_4_mfi3mf4IvN3ndn4mgmt10DispatcherERKNS6_4NameERKNS6_5BlockENS1_6chrono8durationIlNS1_5ratioILl1ELl1000EEEEEbEENS2_5list5INS2_5valueIPS8_EENS1_3argILi1EEENSP_ILi2EEENSP_ILi3EEENSP_ILi4EEEEEEEE10_M_managerERSt9_Any_dataRKSX_St18_Manager_operation@Base 0.4.1
 _ZNSt14_Function_base13_Base_managerISt5_BindIFSt7_Mem_fnIMN3ndn3dns8ResolverEFvRKSt10shared_ptrIS5_EEEPS5_S7_EEE10_M_managerERSt9_Any_dataRKSH_St18_Manager_operation@Base 0.4.1
 _ZNSt14_Function_base13_Base_managerISt5_BindIFSt7_Mem_fnIMN3ndn3nfd10ControllerEFvRKSt8functionIFvjRKNSt7__cxx1112basic_stringIcSt11char_traitsIcESaIcEEEEEjSC_EEPS5_SG_St12_PlaceholderILi1EESN_ILi2EEEEE10_M_managerERSt9_Any_dataRKST_St18_Manager_operation@Base 0.4.1
 _ZNSt14_Function_base13_Base_managerISt5_BindIFSt7_Mem_fnIMN3ndn4mgmt10DispatcherEFvNS4_11RejectReplyERKNS3_8InterestEEEPS5_St12_PlaceholderILi1EESE_ILi2EEEEE10_M_managerERSt9_Any_dataRKSK_St18_Manager_operation@Base 0.4.1
 _ZNSt14_Function_base13_Base_managerISt5_BindIFSt7_Mem_fnIMN3ndn4mgmt10DispatcherEFvRKNS3_4NameERKNS3_8InterestERKSt8functionIFvS8_SB_EEEEPS5_St12_PlaceholderILi1EESL_ILi2EESE_EEE10_M_managerERSt9_Any_dataRKSR_St18_Manager_operation@Base 0.4.1
 _ZNSt14_Function_base13_Base_managerISt5_BindIFSt7_Mem_fnIMN3ndn4mgmt10DispatcherEFvRKNS3_4NameERKNS3_8InterestERKSt8functionIFvS8_SB_PKNS4_17ControlParametersERKSC_IFvRKNSt7__cxx1112basic_stringIcSt11char_traitsIcESaIcEEEEERKSC_IFvNS4_11RejectReplyEEEEERKSC_IFvSN_S8_SB_SF_EERKSC_IFvSS_SB_EEEEPS5_St12_PlaceholderILi1EES1D_ILi2EESY_S12_S16_EEE10_M_managerERSt9_Any_dataRKS1J_St18_Manager_operation@Base 0.4.1
 _ZNSt14_Function_base13_Base_managerISt5_BindIFSt7_Mem_fnIMN3ndn4mgmt10DispatcherEFvRKNS3_5BlockERKNS3_4NameEEEPS5_St12_PlaceholderILi1EES9_EEE10_M_managerERSt9_Any_dataRKSL_St18_Manager_operation@Base 0.4.1
 _ZNSt14_Function_base13_Base_managerISt5_BindIFSt7_Mem_fnIMN3ndn4mgmt10DispatcherEFvRKNS4_15ControlResponseERKNS3_8InterestEbEEPS5_St12_PlaceholderILi1EES9_bEEE10_M_managerERSt9_Any_dataRKSL_St18_Manager_operation@Base 0.4.1
 _ZNSt14_Function_base13_Base_managerISt5_BindIFSt7_Mem_fnIMN3ndn4mgmt10DispatcherEFvRKNSt7__cxx1112basic_stringIcSt11char_traitsIcESaIcEEERKNS3_4NameERKNS3_8InterestERKSt8functionIFvSG_SJ_RNS4_20StatusDatasetContextEEEEEPS5_St12_PlaceholderILi1EESV_ILi2EESV_ILi3EESO_EEE10_M_managerERSt9_Any_dataRKS12_St18_Manager_operation@Base 0.4.1
 _ZNSt14_Function_base13_Base_managerISt5_BindIFSt7_Mem_fnIMN3ndn4util14SegmentFetcherEFvNS3_8InterestEjSt10shared_ptrIS5_EEEPS5_S6_jS8_EEE10_M_managerERSt9_Any_dataRKSG_St18_Manager_operation@Base 0.4.1
 _ZNSt14_Function_base13_Base_managerISt5_BindIFSt7_Mem_fnIMN3ndn4util14SegmentFetcherEFvRKNS3_8InterestERKNS3_2lp4NackEjSt10shared_ptrIS5_EEEPS5_St12_PlaceholderILi1EESJ_ILi2EEiSE_EEE10_M_managerERSt9_Any_dataRKSP_St18_Manager_operation@Base 0.4.1
 _ZNSt14_Function_base13_Base_managerISt5_BindIFSt7_Mem_fnIMN3ndn4util14SegmentFetcherEFvRKNS3_8InterestERKNS3_2lp4NackEjSt10shared_ptrIS5_EEEPS5_St12_PlaceholderILi1EESJ_ILi2EEjSE_EEE10_M_managerERSt9_Any_dataRKSP_St18_Manager_operation@Base 0.4.1
 _ZNSt14_Function_base13_Base_managerISt5_BindIFSt7_Mem_fnIMN3ndn4util14SegmentFetcherEFvRKNS3_8InterestERKNS3_4DataEbSt10shared_ptrIS5_EEEPS5_St12_PlaceholderILi1EESI_ILi2EEbSD_EEE10_M_managerERSt9_Any_dataRKSO_St18_Manager_operation@Base 0.4.1
 _ZNSt14_Function_base13_Base_managerISt5_BindIFSt7_Mem_fnIMN3ndn4util14SegmentFetcherEFvSt10shared_ptrIKNS3_4DataEEEEPS5_St12_PlaceholderILi1EEEEE10_M_managerERSt9_Any_dataRKSJ_St18_Manager_operation@Base 0.4.1
 _ZNSt14_Function_base13_Base_managerISt5_BindIFSt7_Mem_fnIMN3ndn4util14SegmentFetcherEFvSt10shared_ptrIKNS3_4DataEEbRKNS3_8InterestES6_IS5_EEEPS5_St12_PlaceholderILi1EEbSA_SD_EEE10_M_managerERSt9_Any_dataRKSN_St18_Manager_operation@Base 0.4.1
 _ZNSt14_Function_base13_Base_managerISt5_BindIFSt7_Mem_fnIMN3ndn4util20InMemoryStorageEntryEFvvEEPS5_EEE10_M_managerERSt9_Any_dataRKSD_St18_Manager_operation@Base 0.4.1
 _ZNSt14_Function_base13_Base_managerISt5_BindIFSt7_Mem_fnIMN3ndn4util22IpHostCanonizeProviderIN5boost4asio2ip3tcpEEEKFvSt10shared_ptrINS4_7FaceUriEERKSt8functionIFvRKNSt7__cxx1112basic_stringIcSt11char_traitsIcESaIcEEEEESM_EEPKSA_SD_SO_St12_PlaceholderILi1EEEEE10_M_managerERSt9_Any_dataRKS11_St18_Manager_operation@Base 0.4.1
 _ZNSt14_Function_base13_Base_managerISt5_BindIFSt7_Mem_fnIMN3ndn4util22IpHostCanonizeProviderIN5boost4asio2ip3tcpEEEKFvSt10shared_ptrINS4_7FaceUriEERKSt8functionIFvRKSC_EERKSE_IFvRKNSt7__cxx1112basic_stringIcSt11char_traitsIcESaIcEEEEERKNS8_7addressEEEPKSA_SD_SI_SU_St12_PlaceholderILi1EEEEE10_M_managerERSt9_Any_dataRKS1A_St18_Manager_operation@Base 0.4.1
 _ZNSt14_Function_base13_Base_managerISt5_BindIFSt7_Mem_fnIMN3ndn4util22IpHostCanonizeProviderIN5boost4asio2ip3udpEEEKFvSt10shared_ptrINS4_7FaceUriEERKSt8functionIFvRKNSt7__cxx1112basic_stringIcSt11char_traitsIcESaIcEEEEESM_EEPKSA_SD_SO_St12_PlaceholderILi1EEEEE10_M_managerERSt9_Any_dataRKS11_St18_Manager_operation@Base 0.4.1
 _ZNSt14_Function_base13_Base_managerISt5_BindIFSt7_Mem_fnIMN3ndn4util22IpHostCanonizeProviderIN5boost4asio2ip3udpEEEKFvSt10shared_ptrINS4_7FaceUriEERKSt8functionIFvRKSC_EERKSE_IFvRKNSt7__cxx1112basic_stringIcSt11char_traitsIcESaIcEEEEERKNS8_7addressEEEPKSA_SD_SI_SU_St12_PlaceholderILi1EEEEE10_M_managerERSt9_Any_dataRKS1A_St18_Manager_operation@Base 0.4.1
 _ZNSt14_Function_base13_Base_managerISt5_BindIFSt7_Mem_fnIMN3ndn4util6signal6SignalINS3_26ContainerWithOnEmptySignalISt10shared_ptrINS3_15PendingInterestEEEEJEEEFvSt14_List_iteratorINSC_4SlotEEEEPSC_SF_EEE10_M_managerERSt9_Any_dataRKSN_St18_Manager_operation@Base 0.4.1
 _ZNSt14_Function_base13_Base_managerISt5_BindIFSt7_Mem_fnIMN3ndn4util6signal6SignalINS3_26ContainerWithOnEmptySignalISt10shared_ptrINS3_16RegisteredPrefixEEEEJEEEFvSt14_List_iteratorINSC_4SlotEEEEPSC_SF_EEE10_M_managerERSt9_Any_dataRKSN_St18_Manager_operation@Base 0.4.1
 _ZNSt14_Function_base13_Base_managerISt5_BindIFSt7_Mem_fnIMN3ndn4util6signal6SignalINS4_15DummyClientFace9TransportEJNS3_5BlockEEEEFvSt14_List_iteratorINSA_4SlotEEEEPSA_SD_EEE10_M_managerERSt9_Any_dataRKSL_St18_Manager_operation@Base 0.4.1
 _ZNSt14_Function_base13_Base_managerISt5_BindIFSt7_Mem_fnIMN3ndn4util6signal6SignalINS4_15DummyClientFaceEJNS3_2lp4NackEEEEFvSt14_List_iteratorINSA_4SlotEEEEPSA_SD_EEE10_M_managerERSt9_Any_dataRKSL_St18_Manager_operation@Base 0.4.1
 _ZNSt14_Function_base13_Base_managerISt5_BindIFSt7_Mem_fnIMN3ndn4util6signal6SignalINS4_15DummyClientFaceEJNS3_4DataEEEEFvSt14_List_iteratorINS9_4SlotEEEEPS9_SC_EEE10_M_managerERSt9_Any_dataRKSK_St18_Manager_operation@Base 0.4.1
 _ZNSt14_Function_base13_Base_managerISt5_BindIFSt7_Mem_fnIMN3ndn4util6signal6SignalINS4_15DummyClientFaceEJNS3_8InterestEEEEFvSt14_List_iteratorINS9_4SlotEEEEPS9_SC_EEE10_M_managerERSt9_Any_dataRKSK_St18_Manager_operation@Base 0.4.1
 _ZNSt14_Function_base13_Base_managerISt5_BindIFSt7_Mem_fnIMN3ndn8security14ValidatorRegexEFvRKSt10shared_ptrIKNS3_4DataEERKNSt7__cxx1112basic_stringIcSt11char_traitsIcESaIcEEESB_RKSt8functionIFvSB_SJ_EEEEPS5_St12_PlaceholderILi1EEST_ILi2EES9_SM_EEE10_M_managerERSt9_Any_dataRKSZ_St18_Manager_operation@Base 0.4.1
 _ZNSt14_Function_base13_Base_managerISt5_BindIFSt7_Mem_fnIMN3ndn8security14ValidatorRegexEFvRKSt10shared_ptrIKNS3_4DataEESB_RKSt8functionIFvSB_EERKSC_IFvSB_RKNSt7__cxx1112basic_stringIcSt11char_traitsIcESaIcEEEEEEEPS5_St12_PlaceholderILi1EES9_SE_SQ_EEE10_M_managerERSt9_Any_dataRKS12_St18_Manager_operation@Base 0.4.1
 _ZNSt14_Function_base13_Base_managerISt5_BindIFSt7_Mem_fnIMN3ndn8security15ValidatorConfigEFvRKSt10shared_ptrIKNS3_4DataEERKNSt7__cxx1112basic_stringIcSt11char_traitsIcESaIcEEERKS6_IKNS3_8InterestEERKSt8functionIFvSO_SJ_EEEEPS5_St12_PlaceholderILi1EESY_ILi2EESM_SR_EEE10_M_managerERSt9_Any_dataRKS14_St18_Manager_operation@Base 0.4.1
 _ZNSt14_Function_base13_Base_managerISt5_BindIFSt7_Mem_fnIMN3ndn8security15ValidatorConfigEFvRKSt10shared_ptrIKNS3_4DataEERKNSt7__cxx1112basic_stringIcSt11char_traitsIcESaIcEEESB_RKSt8functionIFvSB_SJ_EEEEPS5_St12_PlaceholderILi1EEST_ILi2EES9_SM_EEE10_M_managerERSt9_Any_dataRKSZ_St18_Manager_operation@Base 0.4.1
 _ZNSt14_Function_base13_Base_managerISt5_BindIFSt7_Mem_fnIMN3ndn8security15ValidatorConfigEFvRKSt10shared_ptrIKNS3_4DataEERKS6_IKNS3_8InterestEERKSt8functionIFvSG_EERKSH_IFvSG_RKNSt7__cxx1112basic_stringIcSt11char_traitsIcESaIcEEEEEEEPS5_St12_PlaceholderILi1EESE_SJ_SV_EEE10_M_managerERSt9_Any_dataRKS17_St18_Manager_operation@Base 0.4.1
 _ZNSt14_Function_base13_Base_managerISt5_BindIFSt7_Mem_fnIMN3ndn8security15ValidatorConfigEFvRKSt10shared_ptrIKNS3_4DataEESB_RKSt8functionIFvSB_EERKSC_IFvSB_RKNSt7__cxx1112basic_stringIcSt11char_traitsIcESaIcEEEEEEEPS5_St12_PlaceholderILi1EES9_SE_SQ_EEE10_M_managerERSt9_Any_dataRKS12_St18_Manager_operation@Base 0.4.1
 _ZNSt14_Function_base13_Base_managerISt5_BindIFSt7_Mem_fnIMN3ndn8security15ValidatorConfigEFvRKSt10shared_ptrIKNS3_8InterestEERKNS3_4NameERKSt8functionIFvSB_EERKSF_IFvSB_RKNSt7__cxx1112basic_stringIcSt11char_traitsIcESaIcEEEEEEEPS5_St12_PlaceholderILi1EESC_SH_ST_EEE10_M_managerERSt9_Any_dataRKS15_St18_Manager_operation@Base 0.4.1
 _ZNSt14_Function_base13_Base_managerISt5_BindIFSt7_Mem_fnIMN3ndn8security19CertificateCacheTtlEFvRKNS3_4NameEEEPS5_S6_EEE10_M_managerERSt9_Any_dataRKSG_St18_Manager_operation@Base 0.4.1
 _ZNSt14_Function_base13_Base_managerISt5_BindIFSt7_Mem_fnIMN3ndn8security9ValidatorEFvRKNS3_8InterestERKNS3_2lp4NackEiRKSt8functionIFvRKNSt7__cxx1112basic_stringIcSt11char_traitsIcESaIcEEEEERKSt10shared_ptrINS4_17ValidationRequestEEEEPS5_St12_PlaceholderILi1EESZ_ILi2EEiSN_SS_EEE10_M_managerERSt9_Any_dataRKS15_St18_Manager_operation@Base 0.4.1
 _ZNSt14_Function_base13_Base_managerISt5_BindIFSt7_Mem_fnIMN3ndn8security9ValidatorEFvRKNS3_8InterestERKNS3_4DataERKSt10shared_ptrINS4_17ValidationRequestEEEEPS5_St12_PlaceholderILi1EESL_ILi2EESE_EEE10_M_managerERSt9_Any_dataRKSR_St18_Manager_operation@Base 0.4.1
 _ZNSt14_Function_base13_Base_managerISt5_BindIFSt7_Mem_fnIMN3ndn8security9ValidatorEFvRKNS3_8InterestEiRKSt8functionIFvRKNSt7__cxx1112basic_stringIcSt11char_traitsIcESaIcEEEEERKSt10shared_ptrINS4_17ValidationRequestEEEEPS5_St12_PlaceholderILi1EEiSJ_SO_EEE10_M_managerERSt9_Any_dataRKS10_St18_Manager_operation@Base 0.4.1
 _ZNSt14_Function_base13_Base_managerISt5_BindIFSt8functionIFvN3ndn4mgmt11RejectReplyERKNS3_8InterestEEESt12_PlaceholderILi1EES6_EEE10_M_managerERSt9_Any_dataRKSG_St18_Manager_operation@Base 0.4.1
 _ZNSt14_Function_base13_Base_managerISt5_BindIFSt8functionIFvRKN3ndn4NameERKNS3_8InterestEEES4_St12_PlaceholderILi2EEEEE10_M_managerERSt9_Any_dataRKSH_St18_Manager_operation@Base 0.4.1
 _ZNSt14_Function_base13_Base_managerISt5_BindIFSt8functionIFvRKNSt7__cxx1112basic_stringIcSt11char_traitsIcESaIcEEERKN3ndn4NameERKNSB_8InterestEPKNSB_4mgmt17ControlParametersEEESt12_PlaceholderILi1EESC_SF_DnEEE10_M_managerERSt9_Any_dataRKST_St18_Manager_operation@Base 0.4.1
 _ZNSt14_Function_base13_Base_managerISt5_BindIFSt8functionIFvRKNSt7__cxx1112basic_stringIcSt11char_traitsIcESaIcEEERKN3ndn4NameERKNSB_8InterestEPKNSB_4mgmt17ControlParametersEEESt12_PlaceholderILi1EESC_SF_PSJ_EEE10_M_managerERSt9_Any_dataRKSU_St18_Manager_operation@Base 0.4.1
 _ZNSt14_Function_base13_Base_managerISt5_BindIFSt8functionIFvRKSt10shared_ptrIKN3ndn4DataEERKNSt7__cxx1112basic_stringIcSt11char_traitsIcESaIcEEEEES7_St12_PlaceholderILi1EEEEE10_M_managerERSt9_Any_dataRKSP_St18_Manager_operation@Base 0.4.1
 _ZNSt14_Function_base13_Base_managerISt5_BindIFSt8functionIFvRKSt10shared_ptrIKN3ndn8InterestEERKNSt7__cxx1112basic_stringIcSt11char_traitsIcESaIcEEEEES7_St12_PlaceholderILi1EEEEE10_M_managerERSt9_Any_dataRKSP_St18_Manager_operation@Base 0.4.1
 _ZNSt14_Function_base13_Base_managerISt5_BindIFSt8functionIFvjRKNSt7__cxx1112basic_stringIcSt11char_traitsIcESaIcEEEEEN3ndn4util14SegmentFetcher9ErrorCodeEPKcEEE10_M_managerERSt9_Any_dataRKSM_St18_Manager_operation@Base 0.4.1
 _ZNSt14_Function_base13_Base_managerIZN3ndn15PendingInterestC4ESt10shared_ptrIKNS1_8InterestEERKSt8functionIFvRS5_RKNS1_4DataEEERKS7_IFvS8_RKNS1_2lp4NackEEERKS7_IFvS8_EERNS1_4util9scheduler9SchedulerEEUlvE_E10_M_managerERSt9_Any_dataRKSY_St18_Manager_operation@Base 0.4.1
 _ZNSt14_Function_base13_Base_managerIZN3ndn4Face4Impl14registerPrefixERKNS1_4NameESt10shared_ptrINS1_20InterestFilterRecordEERKSt8functionIFvS6_EERKSA_IFvS6_RKNSt7__cxx1112basic_stringIcSt11char_traitsIcESaIcEEEEEmRKNS1_3nfd14CommandOptionsEEUlRKNS1_4mgmt15ControlResponseEE0_E10_M_managerERSt9_Any_dataRKS11_St18_Manager_operation@Base 0.4.1
 _ZNSt14_Function_base13_Base_managerIZN3ndn4Face4Impl14registerPrefixERKNS1_4NameESt10shared_ptrINS1_20InterestFilterRecordEERKSt8functionIFvS6_EERKSA_IFvS6_RKNSt7__cxx1112basic_stringIcSt11char_traitsIcESaIcEEEEEmRKNS1_3nfd14CommandOptionsEEUlRKNSR_17ControlParametersEE_E10_M_managerERSt9_Any_dataRKS10_St18_Manager_operation@Base 0.4.1
 _ZNSt14_Function_base13_Base_managerIZN3ndn4Face4Impl15ensureConnectedEbEUlRKNS1_5BlockEE_E10_M_managerERSt9_Any_dataRKS9_St18_Manager_operation@Base 0.4.1
 _ZNSt14_Function_base13_Base_managerIZN3ndn4Face4Impl20asyncExpressInterestESt10shared_ptrIKNS1_8InterestEERKSt8functionIFvRS6_RKNS1_4DataEEERKS8_IFvS9_RKNS1_2lp4NackEEERKS8_IFvS9_EEEUlvE_E10_M_managerERSt9_Any_dataRKSV_St18_Manager_operation@Base 0.4.1
 _ZNSt14_Function_base13_Base_managerIZN3ndn4Face4Impl21asyncUnregisterPrefixEPKNS1_18RegisteredPrefixIdERKSt8functionIFvvEERKS7_IFvRKNSt7__cxx1112basic_stringIcSt11char_traitsIcESaIcEEEEEEUlRKNS1_3nfd17ControlParametersEE_E10_M_managerERSt9_Any_dataRKSU_St18_Manager_operation@Base 0.4.1
 _ZNSt14_Function_base13_Base_managerIZN3ndn4Face4Impl21asyncUnregisterPrefixEPKNS1_18RegisteredPrefixIdERKSt8functionIFvvEERKS7_IFvRKNSt7__cxx1112basic_stringIcSt11char_traitsIcESaIcEEEEEEUlRKNS1_4mgmt15ControlResponseEE0_E10_M_managerERSt9_Any_dataRKSU_St18_Manager_operation@Base 0.4.1
 _ZNSt14_Function_base13_Base_managerIZN3ndn4Face4ImplC4ERS2_EUlvE_E10_M_managerERSt9_Any_dataRKS7_St18_Manager_operation@Base 0.4.1
 _ZNSt14_Function_base13_Base_managerIZN3ndn8security8KeyChain11registerPibINS2_20SecPublicInfoSqlite3EEEvSt16initializer_listINSt7__cxx1112basic_stringIcSt11char_traitsIcESaIcEEEEEUlRKSC_E_E10_M_managerERSt9_Any_dataRKSI_St18_Manager_operation@Base 0.4.1
 _ZNSt14_Function_base13_Base_managerIZN3ndn8security8KeyChain11registerTpmINS2_10SecTpmFileEEEvSt16initializer_listINSt7__cxx1112basic_stringIcSt11char_traitsIcESaIcEEEEEUlRKSC_E_E10_M_managerERSt9_Any_dataRKSI_St18_Manager_operation@Base 0.4.1
 _ZNSt14__shared_countILN9__gnu_cxx12_Lock_policyE2EEaSERKS2_@Base 0.4.1
 _ZNSt15_Sp_counted_ptrIDnLN9__gnu_cxx12_Lock_policyE2EE10_M_disposeEv@Base 0.4.1
 _ZNSt15_Sp_counted_ptrIPN3ndn15RegexTopMatcherELN9__gnu_cxx12_Lock_policyE2EE10_M_destroyEv@Base 0.4.1
 _ZNSt15_Sp_counted_ptrIPN3ndn15RegexTopMatcherELN9__gnu_cxx12_Lock_policyE2EE10_M_disposeEv@Base 0.4.1
 _ZNSt15_Sp_counted_ptrIPN3ndn15RegexTopMatcherELN9__gnu_cxx12_Lock_policyE2EE14_M_get_deleterERKSt9type_info@Base 0.4.1
 _ZNSt15_Sp_counted_ptrIPN3ndn15RegexTopMatcherELN9__gnu_cxx12_Lock_policyE2EED0Ev@Base 0.4.1
 _ZNSt15_Sp_counted_ptrIPN3ndn15RegexTopMatcherELN9__gnu_cxx12_Lock_policyE2EED1Ev@Base 0.4.1
 _ZNSt15_Sp_counted_ptrIPN3ndn15RegexTopMatcherELN9__gnu_cxx12_Lock_policyE2EED2Ev@Base 0.4.1
 _ZNSt15_Sp_counted_ptrIPN3ndn23RegexPatternListMatcherELN9__gnu_cxx12_Lock_policyE2EE10_M_destroyEv@Base 0.4.1
 _ZNSt15_Sp_counted_ptrIPN3ndn23RegexPatternListMatcherELN9__gnu_cxx12_Lock_policyE2EE10_M_disposeEv@Base 0.4.1
 _ZNSt15_Sp_counted_ptrIPN3ndn23RegexPatternListMatcherELN9__gnu_cxx12_Lock_policyE2EE14_M_get_deleterERKSt9type_info@Base 0.4.1
 _ZNSt15_Sp_counted_ptrIPN3ndn23RegexPatternListMatcherELN9__gnu_cxx12_Lock_policyE2EED0Ev@Base 0.4.1
 _ZNSt15_Sp_counted_ptrIPN3ndn23RegexPatternListMatcherELN9__gnu_cxx12_Lock_policyE2EED1Ev@Base 0.4.1
 _ZNSt15_Sp_counted_ptrIPN3ndn23RegexPatternListMatcherELN9__gnu_cxx12_Lock_policyE2EED2Ev@Base 0.4.1
 _ZNSt15_Sp_counted_ptrIPN3ndn4util14SegmentFetcherELN9__gnu_cxx12_Lock_policyE2EE10_M_destroyEv@Base 0.4.1
 _ZNSt15_Sp_counted_ptrIPN3ndn4util14SegmentFetcherELN9__gnu_cxx12_Lock_policyE2EE10_M_disposeEv@Base 0.4.1
 _ZNSt15_Sp_counted_ptrIPN3ndn4util14SegmentFetcherELN9__gnu_cxx12_Lock_policyE2EE14_M_get_deleterERKSt9type_info@Base 0.4.1
 _ZNSt15_Sp_counted_ptrIPN3ndn4util14SegmentFetcherELN9__gnu_cxx12_Lock_policyE2EED0Ev@Base 0.4.1
 _ZNSt15_Sp_counted_ptrIPN3ndn4util14SegmentFetcherELN9__gnu_cxx12_Lock_policyE2EED1Ev@Base 0.4.1
 _ZNSt15_Sp_counted_ptrIPN3ndn4util14SegmentFetcherELN9__gnu_cxx12_Lock_policyE2EED2Ev@Base 0.4.1
 _ZNSt15_Sp_counted_ptrIPN3ndn6BufferELN9__gnu_cxx12_Lock_policyE2EE10_M_destroyEv@Base 0.4.1
 _ZNSt15_Sp_counted_ptrIPN3ndn6BufferELN9__gnu_cxx12_Lock_policyE2EE10_M_disposeEv@Base 0.4.1
 _ZNSt15_Sp_counted_ptrIPN3ndn6BufferELN9__gnu_cxx12_Lock_policyE2EE14_M_get_deleterERKSt9type_info@Base 0.4.1
 _ZNSt15_Sp_counted_ptrIPN3ndn6BufferELN9__gnu_cxx12_Lock_policyE2EED0Ev@Base 0.4.1
 _ZNSt15_Sp_counted_ptrIPN3ndn6BufferELN9__gnu_cxx12_Lock_policyE2EED1Ev@Base 0.4.1
 _ZNSt15_Sp_counted_ptrIPN3ndn6BufferELN9__gnu_cxx12_Lock_policyE2EED2Ev@Base 0.4.1
 _ZNSt15_Sp_counted_ptrIPN3ndn8security10SecuredBagELN9__gnu_cxx12_Lock_policyE2EE10_M_destroyEv@Base 0.4.1
 _ZNSt15_Sp_counted_ptrIPN3ndn8security10SecuredBagELN9__gnu_cxx12_Lock_policyE2EE10_M_disposeEv@Base 0.4.1
 _ZNSt15_Sp_counted_ptrIPN3ndn8security10SecuredBagELN9__gnu_cxx12_Lock_policyE2EE14_M_get_deleterERKSt9type_info@Base 0.4.1
 _ZNSt15_Sp_counted_ptrIPN3ndn8security10SecuredBagELN9__gnu_cxx12_Lock_policyE2EED0Ev@Base 0.4.1
 _ZNSt15_Sp_counted_ptrIPN3ndn8security10SecuredBagELN9__gnu_cxx12_Lock_policyE2EED1Ev@Base 0.4.1
 _ZNSt15_Sp_counted_ptrIPN3ndn8security10SecuredBagELN9__gnu_cxx12_Lock_policyE2EED2Ev@Base 0.4.1
 _ZNSt15_Sp_counted_ptrIPN3ndn8security4conf15RegexNameFilterELN9__gnu_cxx12_Lock_policyE2EE10_M_destroyEv@Base 0.4.1
 _ZNSt15_Sp_counted_ptrIPN3ndn8security4conf15RegexNameFilterELN9__gnu_cxx12_Lock_policyE2EE10_M_disposeEv@Base 0.4.1
 _ZNSt15_Sp_counted_ptrIPN3ndn8security4conf15RegexNameFilterELN9__gnu_cxx12_Lock_policyE2EE14_M_get_deleterERKSt9type_info@Base 0.4.1
 _ZNSt15_Sp_counted_ptrIPN3ndn8security4conf15RegexNameFilterELN9__gnu_cxx12_Lock_policyE2EED0Ev@Base 0.4.1
 _ZNSt15_Sp_counted_ptrIPN3ndn8security4conf15RegexNameFilterELN9__gnu_cxx12_Lock_policyE2EED1Ev@Base 0.4.1
 _ZNSt15_Sp_counted_ptrIPN3ndn8security4conf15RegexNameFilterELN9__gnu_cxx12_Lock_policyE2EED2Ev@Base 0.4.1
 _ZNSt15_Sp_counted_ptrIPN3ndn8security4conf18FixedSignerCheckerELN9__gnu_cxx12_Lock_policyE2EE10_M_destroyEv@Base 0.4.1
 _ZNSt15_Sp_counted_ptrIPN3ndn8security4conf18FixedSignerCheckerELN9__gnu_cxx12_Lock_policyE2EE10_M_disposeEv@Base 0.4.1
 _ZNSt15_Sp_counted_ptrIPN3ndn8security4conf18FixedSignerCheckerELN9__gnu_cxx12_Lock_policyE2EE14_M_get_deleterERKSt9type_info@Base 0.4.1
 _ZNSt15_Sp_counted_ptrIPN3ndn8security4conf18FixedSignerCheckerELN9__gnu_cxx12_Lock_policyE2EED0Ev@Base 0.4.1
 _ZNSt15_Sp_counted_ptrIPN3ndn8security4conf18FixedSignerCheckerELN9__gnu_cxx12_Lock_policyE2EED1Ev@Base 0.4.1
 _ZNSt15_Sp_counted_ptrIPN3ndn8security4conf18FixedSignerCheckerELN9__gnu_cxx12_Lock_policyE2EED2Ev@Base 0.4.1
 _ZNSt15_Sp_counted_ptrIPN3ndn8security4conf26HyperKeyLocatorNameCheckerELN9__gnu_cxx12_Lock_policyE2EE10_M_destroyEv@Base 0.4.1
 _ZNSt15_Sp_counted_ptrIPN3ndn8security4conf26HyperKeyLocatorNameCheckerELN9__gnu_cxx12_Lock_policyE2EE10_M_disposeEv@Base 0.4.1
 _ZNSt15_Sp_counted_ptrIPN3ndn8security4conf26HyperKeyLocatorNameCheckerELN9__gnu_cxx12_Lock_policyE2EE14_M_get_deleterERKSt9type_info@Base 0.4.1
 _ZNSt15_Sp_counted_ptrIPN3ndn8security4conf26HyperKeyLocatorNameCheckerELN9__gnu_cxx12_Lock_policyE2EED0Ev@Base 0.4.1
 _ZNSt15_Sp_counted_ptrIPN3ndn8security4conf26HyperKeyLocatorNameCheckerELN9__gnu_cxx12_Lock_policyE2EED1Ev@Base 0.4.1
 _ZNSt15_Sp_counted_ptrIPN3ndn8security4conf26HyperKeyLocatorNameCheckerELN9__gnu_cxx12_Lock_policyE2EED2Ev@Base 0.4.1
 _ZNSt15_Sp_counted_ptrIPN3ndn8security4conf26RegexKeyLocatorNameCheckerELN9__gnu_cxx12_Lock_policyE2EE10_M_destroyEv@Base 0.4.1
 _ZNSt15_Sp_counted_ptrIPN3ndn8security4conf26RegexKeyLocatorNameCheckerELN9__gnu_cxx12_Lock_policyE2EE10_M_disposeEv@Base 0.4.1
 _ZNSt15_Sp_counted_ptrIPN3ndn8security4conf26RegexKeyLocatorNameCheckerELN9__gnu_cxx12_Lock_policyE2EE14_M_get_deleterERKSt9type_info@Base 0.4.1
 _ZNSt15_Sp_counted_ptrIPN3ndn8security4conf26RegexKeyLocatorNameCheckerELN9__gnu_cxx12_Lock_policyE2EED0Ev@Base 0.4.1
 _ZNSt15_Sp_counted_ptrIPN3ndn8security4conf26RegexKeyLocatorNameCheckerELN9__gnu_cxx12_Lock_policyE2EED1Ev@Base 0.4.1
 _ZNSt15_Sp_counted_ptrIPN3ndn8security4conf26RegexKeyLocatorNameCheckerELN9__gnu_cxx12_Lock_policyE2EED2Ev@Base 0.4.1
 _ZNSt15_Sp_counted_ptrIPN3ndn8security4conf29RelationKeyLocatorNameCheckerELN9__gnu_cxx12_Lock_policyE2EE10_M_destroyEv@Base 0.4.1
 _ZNSt15_Sp_counted_ptrIPN3ndn8security4conf29RelationKeyLocatorNameCheckerELN9__gnu_cxx12_Lock_policyE2EE10_M_disposeEv@Base 0.4.1
 _ZNSt15_Sp_counted_ptrIPN3ndn8security4conf29RelationKeyLocatorNameCheckerELN9__gnu_cxx12_Lock_policyE2EE14_M_get_deleterERKSt9type_info@Base 0.4.1
 _ZNSt15_Sp_counted_ptrIPN3ndn8security4conf29RelationKeyLocatorNameCheckerELN9__gnu_cxx12_Lock_policyE2EED0Ev@Base 0.4.1
 _ZNSt15_Sp_counted_ptrIPN3ndn8security4conf29RelationKeyLocatorNameCheckerELN9__gnu_cxx12_Lock_policyE2EED1Ev@Base 0.4.1
 _ZNSt15_Sp_counted_ptrIPN3ndn8security4conf29RelationKeyLocatorNameCheckerELN9__gnu_cxx12_Lock_policyE2EED2Ev@Base 0.4.1
 _ZNSt15_Sp_counted_ptrIPN3ndn8security4conf4RuleINS0_4DataEEELN9__gnu_cxx12_Lock_policyE2EE10_M_destroyEv@Base 0.4.1
 _ZNSt15_Sp_counted_ptrIPN3ndn8security4conf4RuleINS0_4DataEEELN9__gnu_cxx12_Lock_policyE2EE10_M_disposeEv@Base 0.4.1
 _ZNSt15_Sp_counted_ptrIPN3ndn8security4conf4RuleINS0_4DataEEELN9__gnu_cxx12_Lock_policyE2EE14_M_get_deleterERKSt9type_info@Base 0.4.1
 _ZNSt15_Sp_counted_ptrIPN3ndn8security4conf4RuleINS0_4DataEEELN9__gnu_cxx12_Lock_policyE2EED0Ev@Base 0.4.1
 _ZNSt15_Sp_counted_ptrIPN3ndn8security4conf4RuleINS0_4DataEEELN9__gnu_cxx12_Lock_policyE2EED1Ev@Base 0.4.1
 _ZNSt15_Sp_counted_ptrIPN3ndn8security4conf4RuleINS0_4DataEEELN9__gnu_cxx12_Lock_policyE2EED2Ev@Base 0.4.1
 _ZNSt15_Sp_counted_ptrIPN3ndn8security4conf4RuleINS0_8InterestEEELN9__gnu_cxx12_Lock_policyE2EE10_M_destroyEv@Base 0.4.1
 _ZNSt15_Sp_counted_ptrIPN3ndn8security4conf4RuleINS0_8InterestEEELN9__gnu_cxx12_Lock_policyE2EE10_M_disposeEv@Base 0.4.1
 _ZNSt15_Sp_counted_ptrIPN3ndn8security4conf4RuleINS0_8InterestEEELN9__gnu_cxx12_Lock_policyE2EE14_M_get_deleterERKSt9type_info@Base 0.4.1
 _ZNSt15_Sp_counted_ptrIPN3ndn8security4conf4RuleINS0_8InterestEEELN9__gnu_cxx12_Lock_policyE2EED0Ev@Base 0.4.1
 _ZNSt15_Sp_counted_ptrIPN3ndn8security4conf4RuleINS0_8InterestEEELN9__gnu_cxx12_Lock_policyE2EED1Ev@Base 0.4.1
 _ZNSt15_Sp_counted_ptrIPN3ndn8security4conf4RuleINS0_8InterestEEELN9__gnu_cxx12_Lock_policyE2EED2Ev@Base 0.4.1
 _ZNSt15_Sp_counted_ptrIPSt6vectorIN5boost4asio2ip20basic_resolver_entryINS3_3tcpEEESaIS6_EELN9__gnu_cxx12_Lock_policyE2EE10_M_destroyEv@Base 0.4.1
 _ZNSt15_Sp_counted_ptrIPSt6vectorIN5boost4asio2ip20basic_resolver_entryINS3_3tcpEEESaIS6_EELN9__gnu_cxx12_Lock_policyE2EE10_M_disposeEv@Base 0.4.1
 _ZNSt15_Sp_counted_ptrIPSt6vectorIN5boost4asio2ip20basic_resolver_entryINS3_3tcpEEESaIS6_EELN9__gnu_cxx12_Lock_policyE2EE14_M_get_deleterERKSt9type_info@Base 0.4.1
 _ZNSt15_Sp_counted_ptrIPSt6vectorIN5boost4asio2ip20basic_resolver_entryINS3_3tcpEEESaIS6_EELN9__gnu_cxx12_Lock_policyE2EED0Ev@Base 0.4.1
 _ZNSt15_Sp_counted_ptrIPSt6vectorIN5boost4asio2ip20basic_resolver_entryINS3_3tcpEEESaIS6_EELN9__gnu_cxx12_Lock_policyE2EED1Ev@Base 0.4.1
 _ZNSt15_Sp_counted_ptrIPSt6vectorIN5boost4asio2ip20basic_resolver_entryINS3_3tcpEEESaIS6_EELN9__gnu_cxx12_Lock_policyE2EED2Ev@Base 0.4.1
 _ZNSt15_Sp_counted_ptrIPSt6vectorIN5boost4asio2ip20basic_resolver_entryINS3_3udpEEESaIS6_EELN9__gnu_cxx12_Lock_policyE2EE10_M_destroyEv@Base 0.4.1
 _ZNSt15_Sp_counted_ptrIPSt6vectorIN5boost4asio2ip20basic_resolver_entryINS3_3udpEEESaIS6_EELN9__gnu_cxx12_Lock_policyE2EE10_M_disposeEv@Base 0.4.1
 _ZNSt15_Sp_counted_ptrIPSt6vectorIN5boost4asio2ip20basic_resolver_entryINS3_3udpEEESaIS6_EELN9__gnu_cxx12_Lock_policyE2EE14_M_get_deleterERKSt9type_info@Base 0.4.1
 _ZNSt15_Sp_counted_ptrIPSt6vectorIN5boost4asio2ip20basic_resolver_entryINS3_3udpEEESaIS6_EELN9__gnu_cxx12_Lock_policyE2EED0Ev@Base 0.4.1
 _ZNSt15_Sp_counted_ptrIPSt6vectorIN5boost4asio2ip20basic_resolver_entryINS3_3udpEEESaIS6_EELN9__gnu_cxx12_Lock_policyE2EED1Ev@Base 0.4.1
 _ZNSt15_Sp_counted_ptrIPSt6vectorIN5boost4asio2ip20basic_resolver_entryINS3_3udpEEESaIS6_EELN9__gnu_cxx12_Lock_policyE2EED2Ev@Base 0.4.1
 _ZNSt16_Sp_counted_baseILN9__gnu_cxx12_Lock_policyE2EE10_M_destroyEv@Base 0.4.1
 _ZNSt16_Sp_counted_baseILN9__gnu_cxx12_Lock_policyE2EE10_M_releaseEv@Base 0.4.1
 _ZNSt16_Sp_counted_baseILN9__gnu_cxx12_Lock_policyE2EE15_M_add_ref_lockEv@Base 0.4.1
 _ZNSt16_Sp_counted_baseILN9__gnu_cxx12_Lock_policyE2EE15_M_weak_releaseEv@Base 0.4.1
 _ZNSt17_Function_handlerIFSt10unique_ptrIN3ndn8security13SecPublicInfoESt14default_deleteIS3_EERKNSt7__cxx1112basic_stringIcSt11char_traitsIcESaIcEEEEZNS2_8KeyChain11registerPibINS2_20SecPublicInfoSqlite3EEEvSt16initializer_listISC_EEUlSE_E_E9_M_invokeERKSt9_Any_dataSE_@Base 0.4.1
 _ZNSt17_Function_handlerIFSt10unique_ptrIN3ndn8security6SecTpmESt14default_deleteIS3_EERKNSt7__cxx1112basic_stringIcSt11char_traitsIcESaIcEEEEZNS2_8KeyChain11registerTpmINS2_10SecTpmFileEEEvSt16initializer_listISC_EEUlSE_E_E9_M_invokeERKSt9_Any_dataSE_@Base 0.4.1
 _ZNSt17_Function_handlerIFbRKN5boost4asio2ip7addressEEN3ndn3dns10AnyAddressEE9_M_invokeERKSt9_Any_dataS5_@Base 0.4.1
 _ZNSt17_Function_handlerIFbRKN5boost4asio2ip7addressEEN3ndn3dns8Ipv4OnlyEE9_M_invokeERKSt9_Any_dataS5_@Base 0.4.1
 _ZNSt17_Function_handlerIFbRKN5boost4asio2ip7addressEEN3ndn3dns8Ipv6OnlyEE9_M_invokeERKSt9_Any_dataS5_@Base 0.4.1
 _ZNSt17_Function_handlerIFvN3ndn4mgmt11RejectReplyEESt5_BindIFSt8functionIFvS2_RKNS0_8InterestEEESt12_PlaceholderILi1EES6_EEE9_M_invokeERKSt9_Any_dataOS2_@Base 0.4.1
 _ZNSt17_Function_handlerIFvN3ndn4mgmt11RejectReplyERKNS0_8InterestEESt5_BindIFSt7_Mem_fnIMNS1_10DispatcherEFvS2_S5_EEPS9_St12_PlaceholderILi1EESE_ILi2EEEEE9_M_invokeERKSt9_Any_dataOS2_S5_@Base 0.4.1
 _ZNSt17_Function_handlerIFvRKN3ndn14InterestFilterERKNS0_8InterestEESt5_BindIFSt8functionIFvRKNS0_4NameES6_EESA_St12_PlaceholderILi2EEEEE9_M_invokeERKSt9_Any_dataS3_S6_@Base 0.4.1
 _ZNSt17_Function_handlerIFvRKN3ndn3nfd17ControlParametersEEZNS0_4Face4Impl14registerPrefixERKNS0_4NameESt10shared_ptrINS0_20InterestFilterRecordEERKSt8functionIFvSA_EERKSE_IFvSA_RKNSt7__cxx1112basic_stringIcSt11char_traitsIcESaIcEEEEEmRKNS1_14CommandOptionsEEUlS4_E_E9_M_invokeERKSt9_Any_dataS4_@Base 0.4.1
 _ZNSt17_Function_handlerIFvRKN3ndn3nfd17ControlParametersEEZNS0_4Face4Impl21asyncUnregisterPrefixEPKNS0_18RegisteredPrefixIdERKSt8functionIFvvEERKSB_IFvRKNSt7__cxx1112basic_stringIcSt11char_traitsIcESaIcEEEEEEUlS4_E_E9_M_invokeERKSt9_Any_dataS4_@Base 0.4.1
 _ZNSt17_Function_handlerIFvRKN3ndn4NameERKNS0_5BlockEN5boost6chrono8durationIlNS7_5ratioILl1ELl1000EEEEEbENS7_3_bi6bind_tIvNS7_4_mfi3mf4IvNS0_4mgmt10DispatcherES3_S6_SC_bEENSE_5list5INSE_5valueIPSJ_EENS7_3argILi1EEENSP_ILi2EEENSP_ILi3EEENSP_ILi4EEEEEEEE9_M_invokeERKSt9_Any_dataS3_S6_OSC_Ob@Base 0.4.1
 _ZNSt17_Function_handlerIFvRKN3ndn4NameERKNS0_8InterestEESt5_BindIFSt7_Mem_fnIMNS0_4mgmt10DispatcherEFvS3_S6_RKSt8functionIFvS3_S6_PKNSA_17ControlParametersERKSC_IFvRKNSt7__cxx1112basic_stringIcSt11char_traitsIcESaIcEEEEERKSC_IFvNSA_11RejectReplyEEEEERKSC_IFvSN_S3_S6_SF_EERKSC_IFvSS_S6_EEEEPSB_St12_PlaceholderILi1EES1D_ILi2EESY_S12_S16_EEE9_M_invokeERKSt9_Any_dataS3_S6_@Base 0.4.1
 _ZNSt17_Function_handlerIFvRKN3ndn4NameERKNS0_8InterestEESt5_BindIFSt7_Mem_fnIMNS0_4mgmt10DispatcherEFvS3_S6_RKSt8functionIS7_EEEPSB_St12_PlaceholderILi1EESK_ILi2EESD_EEE9_M_invokeERKSt9_Any_dataS3_S6_@Base 0.4.1
 _ZNSt17_Function_handlerIFvRKN3ndn4mgmt15ControlResponseEESt5_BindIFSt7_Mem_fnIMNS1_10DispatcherEFvS4_RKNS0_8InterestEbEEPS8_St12_PlaceholderILi1EES9_bEEE9_M_invokeERKSt9_Any_dataS4_@Base 0.4.1
 _ZNSt17_Function_handlerIFvRKN3ndn4mgmt15ControlResponseEEZNS0_4Face4Impl14registerPrefixERKNS0_4NameESt10shared_ptrINS0_20InterestFilterRecordEERKSt8functionIFvSA_EERKSE_IFvSA_RKNSt7__cxx1112basic_stringIcSt11char_traitsIcESaIcEEEEEmRKNS0_3nfd14CommandOptionsEEUlS4_E0_E9_M_invokeERKSt9_Any_dataS4_@Base 0.4.1
 _ZNSt17_Function_handlerIFvRKN3ndn4mgmt15ControlResponseEEZNS0_4Face4Impl21asyncUnregisterPrefixEPKNS0_18RegisteredPrefixIdERKSt8functionIFvvEERKSB_IFvRKNSt7__cxx1112basic_stringIcSt11char_traitsIcESaIcEEEEEEUlS4_E0_E9_M_invokeERKSt9_Any_dataS4_@Base 0.4.1
 _ZNSt17_Function_handlerIFvRKN3ndn5BlockEESt5_BindIFSt7_Mem_fnIMNS0_4mgmt10DispatcherEFvS3_RKNS0_4NameEEEPS8_St12_PlaceholderILi1EES9_EEE9_M_invokeERKSt9_Any_dataS3_@Base 0.4.1
 _ZNSt17_Function_handlerIFvRKN3ndn5BlockEEZNS0_4Face4Impl15ensureConnectedEbEUlS3_E_E9_M_invokeERKSt9_Any_dataS3_@Base 0.4.1
 _ZNSt17_Function_handlerIFvRKN3ndn8InterestEESt5_BindIFSt7_Mem_fnIMNS0_8security9ValidatorEFvS3_iRKSt8functionIFvRKNSt7__cxx1112basic_stringIcSt11char_traitsIcESaIcEEEEERKSt10shared_ptrINS7_17ValidationRequestEEEEPS8_St12_PlaceholderILi1EEiSJ_SO_EEE9_M_invokeERKSt9_Any_dataS3_@Base 0.4.1
 _ZNSt17_Function_handlerIFvRKN3ndn8InterestEESt5_BindIFSt8functionIFvjRKNSt7__cxx1112basic_stringIcSt11char_traitsIcESaIcEEEEENS0_4util14SegmentFetcher9ErrorCodeEPKcEEE9_M_invokeERKSt9_Any_dataS3_@Base 0.4.1
 _ZNSt17_Function_handlerIFvRKN3ndn8InterestERKNS0_2lp4NackEESt5_BindIFSt7_Mem_fnIMNS0_4util14SegmentFetcherEFvS3_S7_jSt10shared_ptrISC_EEEPSC_St12_PlaceholderILi1EESJ_ILi2EEiSE_EEE9_M_invokeERKSt9_Any_dataS3_S7_@Base 0.4.1
 _ZNSt17_Function_handlerIFvRKN3ndn8InterestERKNS0_2lp4NackEESt5_BindIFSt7_Mem_fnIMNS0_4util14SegmentFetcherEFvS3_S7_jSt10shared_ptrISC_EEEPSC_St12_PlaceholderILi1EESJ_ILi2EEjSE_EEE9_M_invokeERKSt9_Any_dataS3_S7_@Base 0.4.1
 _ZNSt17_Function_handlerIFvRKN3ndn8InterestERKNS0_2lp4NackEESt5_BindIFSt7_Mem_fnIMNS0_8security9ValidatorEFvS3_S7_iRKSt8functionIFvRKNSt7__cxx1112basic_stringIcSt11char_traitsIcESaIcEEEEERKSt10shared_ptrINSB_17ValidationRequestEEEEPSC_St12_PlaceholderILi1EESZ_ILi2EEiSN_SS_EEE9_M_invokeERKSt9_Any_dataS3_S7_@Base 0.4.1
 _ZNSt17_Function_handlerIFvRKN3ndn8InterestERKNS0_4DataEESt5_BindIFSt7_Mem_fnIMNS0_4util14SegmentFetcherEFvS3_S6_bSt10shared_ptrISB_EEEPSB_St12_PlaceholderILi1EESI_ILi2EEbSD_EEE9_M_invokeERKSt9_Any_dataS3_S6_@Base 0.4.1
 _ZNSt17_Function_handlerIFvRKN3ndn8InterestERKNS0_4DataEESt5_BindIFSt7_Mem_fnIMNS0_8security9ValidatorEFvS3_S6_RKSt10shared_ptrINSA_17ValidationRequestEEEEPSB_St12_PlaceholderILi1EESL_ILi2EESE_EEE9_M_invokeERKSt9_Any_dataS3_S6_@Base 0.4.1
 _ZNSt17_Function_handlerIFvRKN5boost4asio2ip7addressEESt5_BindIFSt7_Mem_fnIMN3ndn4util22IpHostCanonizeProviderINS2_3tcpEEEKFvSt10shared_ptrINSA_7FaceUriEERKSt8functionIFvRKSF_EERKSH_IFvRKNSt7__cxx1112basic_stringIcSt11char_traitsIcESaIcEEEEES5_EEPKSD_SG_SL_SX_St12_PlaceholderILi1EEEEE9_M_invokeERKSt9_Any_dataS5_@Base 0.4.1
 _ZNSt17_Function_handlerIFvRKN5boost4asio2ip7addressEESt5_BindIFSt7_Mem_fnIMN3ndn4util22IpHostCanonizeProviderINS2_3udpEEEKFvSt10shared_ptrINSA_7FaceUriEERKSt8functionIFvRKSF_EERKSH_IFvRKNSt7__cxx1112basic_stringIcSt11char_traitsIcESaIcEEEEES5_EEPKSD_SG_SL_SX_St12_PlaceholderILi1EEEEE9_M_invokeERKSt9_Any_dataS5_@Base 0.4.1
 _ZNSt17_Function_handlerIFvRKNSt7__cxx1112basic_stringIcSt11char_traitsIcESaIcEEEESt5_BindIFSt7_Mem_fnIMN3ndn4util22IpHostCanonizeProviderIN5boost4asio2ip3tcpEEEKFvSt10shared_ptrINSC_7FaceUriEERKSt8functionIS8_ES7_EEPKSI_SL_SN_St12_PlaceholderILi1EEEEE9_M_invokeERKSt9_Any_dataS7_@Base 0.4.1
 _ZNSt17_Function_handlerIFvRKNSt7__cxx1112basic_stringIcSt11char_traitsIcESaIcEEEESt5_BindIFSt7_Mem_fnIMN3ndn4util22IpHostCanonizeProviderIN5boost4asio2ip3udpEEEKFvSt10shared_ptrINSC_7FaceUriEERKSt8functionIS8_ES7_EEPKSI_SL_SN_St12_PlaceholderILi1EEEEE9_M_invokeERKSt9_Any_dataS7_@Base 0.4.1
 _ZNSt17_Function_handlerIFvRKNSt7__cxx1112basic_stringIcSt11char_traitsIcESaIcEEEESt5_BindIFSt8functionIFvRKSt10shared_ptrIKN3ndn4DataEES7_EESF_St12_PlaceholderILi1EEEEE9_M_invokeERKSt9_Any_dataS7_@Base 0.4.1
 _ZNSt17_Function_handlerIFvRKNSt7__cxx1112basic_stringIcSt11char_traitsIcESaIcEEEESt5_BindIFSt8functionIFvRKSt10shared_ptrIKN3ndn8InterestEES7_EESF_St12_PlaceholderILi1EEEEE9_M_invokeERKSt9_Any_dataS7_@Base 0.4.1
 _ZNSt17_Function_handlerIFvRKNSt7__cxx1112basic_stringIcSt11char_traitsIcESaIcEEEESt5_BindIFSt8functionIFvS7_RKN3ndn4NameERKNSB_8InterestEPKNSB_4mgmt17ControlParametersEEESt12_PlaceholderILi1EESC_SF_DnEEE9_M_invokeERKSt9_Any_dataS7_@Base 0.4.1
 _ZNSt17_Function_handlerIFvRKNSt7__cxx1112basic_stringIcSt11char_traitsIcESaIcEEEESt5_BindIFSt8functionIFvS7_RKN3ndn4NameERKNSB_8InterestEPKNSB_4mgmt17ControlParametersEEESt12_PlaceholderILi1EESC_SF_PSJ_EEE9_M_invokeERKSt9_Any_dataS7_@Base 0.4.1
 _ZNSt17_Function_handlerIFvRKNSt7__cxx1112basic_stringIcSt11char_traitsIcESaIcEEERKN3ndn4NameERKNS8_8InterestEPKNS8_4mgmt17ControlParametersEESt5_BindIFSt7_Mem_fnIMNSF_10DispatcherEFvS7_SB_SE_RKSt8functionIFvSB_SE_RNSF_20StatusDatasetContextEEEEEPSM_St12_PlaceholderILi1EESY_ILi2EESY_ILi3EESR_EEE9_M_invokeERKSt9_Any_dataS7_SB_SE_OSI_@Base 0.4.1
 _ZNSt17_Function_handlerIFvRKSt10shared_ptrIKN3ndn4DataEEESt5_BindIFSt7_Mem_fnIMNS1_4util14SegmentFetcherEFvS4_bRKNS1_8InterestES0_ISB_EEEPSB_St12_PlaceholderILi1EEbSC_SF_EEE9_M_invokeERKSt9_Any_dataS6_@Base 0.4.1
 _ZNSt17_Function_handlerIFvRKSt10shared_ptrIKN3ndn4DataEEESt5_BindIFSt7_Mem_fnIMNS1_8security14ValidatorRegexEFvS6_S6_RKSt8functionIS7_ERKSC_IFvS6_RKNSt7__cxx1112basic_stringIcSt11char_traitsIcESaIcEEEEEEEPSB_St12_PlaceholderILi1EES4_SD_SP_EEE9_M_invokeERKSt9_Any_dataS6_@Base 0.4.1
 _ZNSt17_Function_handlerIFvRKSt10shared_ptrIKN3ndn4DataEEESt5_BindIFSt7_Mem_fnIMNS1_8security15ValidatorConfigEFvS6_RKS0_IKNS1_8InterestEERKSt8functionIFvSG_EERKSH_IFvSG_RKNSt7__cxx1112basic_stringIcSt11char_traitsIcESaIcEEEEEEEPSB_St12_PlaceholderILi1EESE_SJ_SV_EEE9_M_invokeERKSt9_Any_dataS6_@Base 0.4.1
 _ZNSt17_Function_handlerIFvRKSt10shared_ptrIKN3ndn4DataEEESt5_BindIFSt7_Mem_fnIMNS1_8security15ValidatorConfigEFvS6_S6_RKSt8functionIS7_ERKSC_IFvS6_RKNSt7__cxx1112basic_stringIcSt11char_traitsIcESaIcEEEEEEEPSB_St12_PlaceholderILi1EES4_SD_SP_EEE9_M_invokeERKSt9_Any_dataS6_@Base 0.4.1
 _ZNSt17_Function_handlerIFvRKSt10shared_ptrIKN3ndn4DataEERKNSt7__cxx1112basic_stringIcSt11char_traitsIcESaIcEEEESt5_BindIFSt7_Mem_fnIMNS1_4util14SegmentFetcherEFvS4_EEPSJ_St12_PlaceholderILi1EEEEE9_M_invokeERKSt9_Any_dataS6_SE_@Base 0.4.1
 _ZNSt17_Function_handlerIFvRKSt10shared_ptrIKN3ndn4DataEERKNSt7__cxx1112basic_stringIcSt11char_traitsIcESaIcEEEESt5_BindIFSt7_Mem_fnIMNS1_8security14ValidatorRegexEFvS6_SE_S6_RKSt8functionISF_EEEPSJ_St12_PlaceholderILi1EESS_ILi2EES4_SL_EEE9_M_invokeERKSt9_Any_dataS6_SE_@Base 0.4.1
 _ZNSt17_Function_handlerIFvRKSt10shared_ptrIKN3ndn4DataEERKNSt7__cxx1112basic_stringIcSt11char_traitsIcESaIcEEEESt5_BindIFSt7_Mem_fnIMNS1_8security15ValidatorConfigEFvS6_SE_RKS0_IKNS1_8InterestEERKSt8functionIFvSO_SE_EEEEPSJ_St12_PlaceholderILi1EESY_ILi2EESM_SR_EEE9_M_invokeERKSt9_Any_dataS6_SE_@Base 0.4.1
 _ZNSt17_Function_handlerIFvRKSt10shared_ptrIKN3ndn4DataEERKNSt7__cxx1112basic_stringIcSt11char_traitsIcESaIcEEEESt5_BindIFSt7_Mem_fnIMNS1_8security15ValidatorConfigEFvS6_SE_S6_RKSt8functionISF_EEEPSJ_St12_PlaceholderILi1EESS_ILi2EES4_SL_EEE9_M_invokeERKSt9_Any_dataS6_SE_@Base 0.4.1
 _ZNSt17_Function_handlerIFvRKSt10shared_ptrIKN3ndn8InterestEEESt5_BindIFSt7_Mem_fnIMNS1_8security15ValidatorConfigEFvS6_RKNS1_4NameERKSt8functionIS7_ERKSF_IFvS6_RKNSt7__cxx1112basic_stringIcSt11char_traitsIcESaIcEEEEEEEPSB_St12_PlaceholderILi1EESC_SG_SS_EEE9_M_invokeERKSt9_Any_dataS6_@Base 0.4.1
 _ZNSt17_Function_handlerIFvjRKNSt7__cxx1112basic_stringIcSt11char_traitsIcESaIcEEEESt5_BindIFSt7_Mem_fnIMN3ndn3nfd10ControllerEFvRKSt8functionIS8_EjS5_EEPSD_SF_St12_PlaceholderILi1EESM_ILi2EEEEE9_M_invokeERKSt9_Any_dataOjS7_@Base 0.4.1
 _ZNSt17_Function_handlerIFvvESt5_BindIFSt7_Mem_fnIMN3ndn3dns8ResolverEFvRKSt10shared_ptrIS5_EEEPS5_S7_EEE9_M_invokeERKSt9_Any_data@Base 0.4.1
 _ZNSt17_Function_handlerIFvvESt5_BindIFSt7_Mem_fnIMN3ndn4util14SegmentFetcherEFvNS3_8InterestEjSt10shared_ptrIS5_EEEPS5_S6_jS8_EEE9_M_invokeERKSt9_Any_data@Base 0.4.1
 _ZNSt17_Function_handlerIFvvESt5_BindIFSt7_Mem_fnIMN3ndn4util20InMemoryStorageEntryEFvvEEPS5_EEE9_M_invokeERKSt9_Any_data@Base 0.4.1
 _ZNSt17_Function_handlerIFvvESt5_BindIFSt7_Mem_fnIMN3ndn4util6signal6SignalINS3_26ContainerWithOnEmptySignalISt10shared_ptrINS3_15PendingInterestEEEEJEEEFvSt14_List_iteratorINSC_4SlotEEEEPSC_SF_EEE9_M_invokeERKSt9_Any_data@Base 0.4.1
 _ZNSt17_Function_handlerIFvvESt5_BindIFSt7_Mem_fnIMN3ndn4util6signal6SignalINS3_26ContainerWithOnEmptySignalISt10shared_ptrINS3_16RegisteredPrefixEEEEJEEEFvSt14_List_iteratorINSC_4SlotEEEEPSC_SF_EEE9_M_invokeERKSt9_Any_data@Base 0.4.1
 _ZNSt17_Function_handlerIFvvESt5_BindIFSt7_Mem_fnIMN3ndn4util6signal6SignalINS4_15DummyClientFace9TransportEJNS3_5BlockEEEEFvSt14_List_iteratorINSA_4SlotEEEEPSA_SD_EEE9_M_invokeERKSt9_Any_data@Base 0.4.1
 _ZNSt17_Function_handlerIFvvESt5_BindIFSt7_Mem_fnIMN3ndn4util6signal6SignalINS4_15DummyClientFaceEJNS3_2lp4NackEEEEFvSt14_List_iteratorINSA_4SlotEEEEPSA_SD_EEE9_M_invokeERKSt9_Any_data@Base 0.4.1
 _ZNSt17_Function_handlerIFvvESt5_BindIFSt7_Mem_fnIMN3ndn4util6signal6SignalINS4_15DummyClientFaceEJNS3_4DataEEEEFvSt14_List_iteratorINS9_4SlotEEEEPS9_SC_EEE9_M_invokeERKSt9_Any_data@Base 0.4.1
 _ZNSt17_Function_handlerIFvvESt5_BindIFSt7_Mem_fnIMN3ndn4util6signal6SignalINS4_15DummyClientFaceEJNS3_8InterestEEEEFvSt14_List_iteratorINS9_4SlotEEEEPS9_SC_EEE9_M_invokeERKSt9_Any_data@Base 0.4.1
 _ZNSt17_Function_handlerIFvvESt5_BindIFSt7_Mem_fnIMN3ndn8security19CertificateCacheTtlEFvRKNS3_4NameEEEPS5_S6_EEE9_M_invokeERKSt9_Any_data@Base 0.4.1
 _ZNSt17_Function_handlerIFvvEZN3ndn15PendingInterestC4ESt10shared_ptrIKNS1_8InterestEERKSt8functionIFvRS5_RKNS1_4DataEEERKS7_IFvS8_RKNS1_2lp4NackEEERKS7_IFvS8_EERNS1_4util9scheduler9SchedulerEEUlvE_E9_M_invokeERKSt9_Any_data@Base 0.4.1
 _ZNSt17_Function_handlerIFvvEZN3ndn4Face4Impl20asyncExpressInterestESt10shared_ptrIKNS1_8InterestEERKSt8functionIFvRS6_RKNS1_4DataEEERKS8_IFvS9_RKNS1_2lp4NackEEERKS8_IFvS9_EEEUlvE_E9_M_invokeERKSt9_Any_data@Base 0.4.1
 _ZNSt17_Function_handlerIFvvEZN3ndn4Face4ImplC4ERS2_EUlvE_E9_M_invokeERKSt9_Any_data@Base 0.4.1
 _ZNSt19_Sp_counted_deleterIPvN5boost4asio6detail10socket_ops12noop_deleterESaIvELN9__gnu_cxx12_Lock_policyE2EE10_M_destroyEv@Base 0.4.1
 _ZNSt19_Sp_counted_deleterIPvN5boost4asio6detail10socket_ops12noop_deleterESaIvELN9__gnu_cxx12_Lock_policyE2EE10_M_disposeEv@Base 0.4.1
 _ZNSt19_Sp_counted_deleterIPvN5boost4asio6detail10socket_ops12noop_deleterESaIvELN9__gnu_cxx12_Lock_policyE2EE14_M_get_deleterERKSt9type_info@Base 0.4.1
 _ZNSt19_Sp_counted_deleterIPvN5boost4asio6detail10socket_ops12noop_deleterESaIvELN9__gnu_cxx12_Lock_policyE2EED0Ev@Base 0.4.1
 _ZNSt19_Sp_counted_deleterIPvN5boost4asio6detail10socket_ops12noop_deleterESaIvELN9__gnu_cxx12_Lock_policyE2EED1Ev@Base 0.4.1
 _ZNSt19_Sp_counted_deleterIPvN5boost4asio6detail10socket_ops12noop_deleterESaIvELN9__gnu_cxx12_Lock_policyE2EED2Ev@Base 0.4.1
 _ZNSt19istreambuf_iteratorIcSt11char_traitsIcEEppEv@Base 0.4.1
 _ZNSt20__uninitialized_copyILb0EE13__uninit_copyIN9__gnu_cxx17__normal_iteratorIPKN3ndn5BlockESt6vectorIS5_SaIS5_EEEEPS5_EET0_T_SE_SD_@Base 0.4.1
 _ZNSt20__uninitialized_copyILb0EE13__uninit_copyIPKN5boost16re_detail_10610014recursion_infoINS2_13match_resultsIN9__gnu_cxx17__normal_iteratorIPKcNSt7__cxx1112basic_stringIcSt11char_traitsIcESaIcEEEEESaINS2_9sub_matchISG_EEEEEEEPSL_EET0_T_SQ_SP_@Base 0.4.1
 _ZNSt20__uninitialized_copyILb0EE13__uninit_copyISt13move_iteratorIPNSt7__cxx1112basic_stringIcSt11char_traitsIcESaIcEEEES9_EET0_T_SC_SB_@Base 0.4.1
 _ZNSt23_Sp_counted_ptr_inplaceIN3ndn12TcpTransportESaIS1_ELN9__gnu_cxx12_Lock_policyE2EE10_M_destroyEv@Base 0.4.1
 _ZNSt23_Sp_counted_ptr_inplaceIN3ndn12TcpTransportESaIS1_ELN9__gnu_cxx12_Lock_policyE2EE10_M_disposeEv@Base 0.4.1
 _ZNSt23_Sp_counted_ptr_inplaceIN3ndn12TcpTransportESaIS1_ELN9__gnu_cxx12_Lock_policyE2EE14_M_get_deleterERKSt9type_info@Base 0.4.1
 _ZNSt23_Sp_counted_ptr_inplaceIN3ndn12TcpTransportESaIS1_ELN9__gnu_cxx12_Lock_policyE2EED0Ev@Base 0.4.1
 _ZNSt23_Sp_counted_ptr_inplaceIN3ndn12TcpTransportESaIS1_ELN9__gnu_cxx12_Lock_policyE2EED1Ev@Base 0.4.1
 _ZNSt23_Sp_counted_ptr_inplaceIN3ndn12TcpTransportESaIS1_ELN9__gnu_cxx12_Lock_policyE2EED2Ev@Base 0.4.1
 _ZNSt23_Sp_counted_ptr_inplaceIN3ndn13OBufferStreamESaIS1_ELN9__gnu_cxx12_Lock_policyE2EE10_M_destroyEv@Base 0.4.1
 _ZNSt23_Sp_counted_ptr_inplaceIN3ndn13OBufferStreamESaIS1_ELN9__gnu_cxx12_Lock_policyE2EE10_M_disposeEv@Base 0.4.1
 _ZNSt23_Sp_counted_ptr_inplaceIN3ndn13OBufferStreamESaIS1_ELN9__gnu_cxx12_Lock_policyE2EE14_M_get_deleterERKSt9type_info@Base 0.4.1
 _ZNSt23_Sp_counted_ptr_inplaceIN3ndn13OBufferStreamESaIS1_ELN9__gnu_cxx12_Lock_policyE2EED0Ev@Base 0.4.1
 _ZNSt23_Sp_counted_ptr_inplaceIN3ndn13OBufferStreamESaIS1_ELN9__gnu_cxx12_Lock_policyE2EED1Ev@Base 0.4.1
 _ZNSt23_Sp_counted_ptr_inplaceIN3ndn13OBufferStreamESaIS1_ELN9__gnu_cxx12_Lock_policyE2EED2Ev@Base 0.4.1
 _ZNSt23_Sp_counted_ptr_inplaceIN3ndn13UnixTransportESaIS1_ELN9__gnu_cxx12_Lock_policyE2EE10_M_destroyEv@Base 0.4.1
 _ZNSt23_Sp_counted_ptr_inplaceIN3ndn13UnixTransportESaIS1_ELN9__gnu_cxx12_Lock_policyE2EE10_M_disposeEv@Base 0.4.1
 _ZNSt23_Sp_counted_ptr_inplaceIN3ndn13UnixTransportESaIS1_ELN9__gnu_cxx12_Lock_policyE2EE14_M_get_deleterERKSt9type_info@Base 0.4.1
 _ZNSt23_Sp_counted_ptr_inplaceIN3ndn13UnixTransportESaIS1_ELN9__gnu_cxx12_Lock_policyE2EED0Ev@Base 0.4.1
 _ZNSt23_Sp_counted_ptr_inplaceIN3ndn13UnixTransportESaIS1_ELN9__gnu_cxx12_Lock_policyE2EED1Ev@Base 0.4.1
 _ZNSt23_Sp_counted_ptr_inplaceIN3ndn13UnixTransportESaIS1_ELN9__gnu_cxx12_Lock_policyE2EED2Ev@Base 0.4.1
 _ZNSt23_Sp_counted_ptr_inplaceIN3ndn15PendingInterestESaIS1_ELN9__gnu_cxx12_Lock_policyE2EE10_M_destroyEv@Base 0.4.1
 _ZNSt23_Sp_counted_ptr_inplaceIN3ndn15PendingInterestESaIS1_ELN9__gnu_cxx12_Lock_policyE2EE10_M_disposeEv@Base 0.4.1
 _ZNSt23_Sp_counted_ptr_inplaceIN3ndn15PendingInterestESaIS1_ELN9__gnu_cxx12_Lock_policyE2EE14_M_get_deleterERKSt9type_info@Base 0.4.1
 _ZNSt23_Sp_counted_ptr_inplaceIN3ndn15PendingInterestESaIS1_ELN9__gnu_cxx12_Lock_policyE2EED0Ev@Base 0.4.1
 _ZNSt23_Sp_counted_ptr_inplaceIN3ndn15PendingInterestESaIS1_ELN9__gnu_cxx12_Lock_policyE2EED1Ev@Base 0.4.1
 _ZNSt23_Sp_counted_ptr_inplaceIN3ndn15PendingInterestESaIS1_ELN9__gnu_cxx12_Lock_policyE2EED2Ev@Base 0.4.1
 _ZNSt23_Sp_counted_ptr_inplaceIN3ndn15RegexTopMatcherESaIS1_ELN9__gnu_cxx12_Lock_policyE2EE10_M_destroyEv@Base 0.4.1
 _ZNSt23_Sp_counted_ptr_inplaceIN3ndn15RegexTopMatcherESaIS1_ELN9__gnu_cxx12_Lock_policyE2EE10_M_disposeEv@Base 0.4.1
 _ZNSt23_Sp_counted_ptr_inplaceIN3ndn15RegexTopMatcherESaIS1_ELN9__gnu_cxx12_Lock_policyE2EE14_M_get_deleterERKSt9type_info@Base 0.4.1
 _ZNSt23_Sp_counted_ptr_inplaceIN3ndn15RegexTopMatcherESaIS1_ELN9__gnu_cxx12_Lock_policyE2EED0Ev@Base 0.4.1
 _ZNSt23_Sp_counted_ptr_inplaceIN3ndn15RegexTopMatcherESaIS1_ELN9__gnu_cxx12_Lock_policyE2EED1Ev@Base 0.4.1
 _ZNSt23_Sp_counted_ptr_inplaceIN3ndn15RegexTopMatcherESaIS1_ELN9__gnu_cxx12_Lock_policyE2EED2Ev@Base 0.4.1
 _ZNSt23_Sp_counted_ptr_inplaceIN3ndn16RegisteredPrefixESaIS1_ELN9__gnu_cxx12_Lock_policyE2EE10_M_destroyEv@Base 0.4.1
 _ZNSt23_Sp_counted_ptr_inplaceIN3ndn16RegisteredPrefixESaIS1_ELN9__gnu_cxx12_Lock_policyE2EE10_M_disposeEv@Base 0.4.1
 _ZNSt23_Sp_counted_ptr_inplaceIN3ndn16RegisteredPrefixESaIS1_ELN9__gnu_cxx12_Lock_policyE2EE14_M_get_deleterERKSt9type_info@Base 0.4.1
 _ZNSt23_Sp_counted_ptr_inplaceIN3ndn16RegisteredPrefixESaIS1_ELN9__gnu_cxx12_Lock_policyE2EED0Ev@Base 0.4.1
 _ZNSt23_Sp_counted_ptr_inplaceIN3ndn16RegisteredPrefixESaIS1_ELN9__gnu_cxx12_Lock_policyE2EED1Ev@Base 0.4.1
 _ZNSt23_Sp_counted_ptr_inplaceIN3ndn16RegisteredPrefixESaIS1_ELN9__gnu_cxx12_Lock_policyE2EED2Ev@Base 0.4.1
 _ZNSt23_Sp_counted_ptr_inplaceIN3ndn18RegexPseudoMatcherESaIS1_ELN9__gnu_cxx12_Lock_policyE2EE10_M_destroyEv@Base 0.4.1
 _ZNSt23_Sp_counted_ptr_inplaceIN3ndn18RegexPseudoMatcherESaIS1_ELN9__gnu_cxx12_Lock_policyE2EE10_M_disposeEv@Base 0.4.1
 _ZNSt23_Sp_counted_ptr_inplaceIN3ndn18RegexPseudoMatcherESaIS1_ELN9__gnu_cxx12_Lock_policyE2EE14_M_get_deleterERKSt9type_info@Base 0.4.1
 _ZNSt23_Sp_counted_ptr_inplaceIN3ndn18RegexPseudoMatcherESaIS1_ELN9__gnu_cxx12_Lock_policyE2EED0Ev@Base 0.4.1
 _ZNSt23_Sp_counted_ptr_inplaceIN3ndn18RegexPseudoMatcherESaIS1_ELN9__gnu_cxx12_Lock_policyE2EED1Ev@Base 0.4.1
 _ZNSt23_Sp_counted_ptr_inplaceIN3ndn18RegexPseudoMatcherESaIS1_ELN9__gnu_cxx12_Lock_policyE2EED2Ev@Base 0.4.1
 _ZNSt23_Sp_counted_ptr_inplaceIN3ndn18RegexRepeatMatcherESaIS1_ELN9__gnu_cxx12_Lock_policyE2EE10_M_destroyEv@Base 0.4.1
 _ZNSt23_Sp_counted_ptr_inplaceIN3ndn18RegexRepeatMatcherESaIS1_ELN9__gnu_cxx12_Lock_policyE2EE10_M_disposeEv@Base 0.4.1
 _ZNSt23_Sp_counted_ptr_inplaceIN3ndn18RegexRepeatMatcherESaIS1_ELN9__gnu_cxx12_Lock_policyE2EE14_M_get_deleterERKSt9type_info@Base 0.4.1
 _ZNSt23_Sp_counted_ptr_inplaceIN3ndn18RegexRepeatMatcherESaIS1_ELN9__gnu_cxx12_Lock_policyE2EED0Ev@Base 0.4.1
 _ZNSt23_Sp_counted_ptr_inplaceIN3ndn18RegexRepeatMatcherESaIS1_ELN9__gnu_cxx12_Lock_policyE2EED1Ev@Base 0.4.1
 _ZNSt23_Sp_counted_ptr_inplaceIN3ndn18RegexRepeatMatcherESaIS1_ELN9__gnu_cxx12_Lock_policyE2EED2Ev@Base 0.4.1
 _ZNSt23_Sp_counted_ptr_inplaceIN3ndn19RegexBackrefManagerESaIS1_ELN9__gnu_cxx12_Lock_policyE2EE10_M_destroyEv@Base 0.4.1
 _ZNSt23_Sp_counted_ptr_inplaceIN3ndn19RegexBackrefManagerESaIS1_ELN9__gnu_cxx12_Lock_policyE2EE10_M_disposeEv@Base 0.4.1
 _ZNSt23_Sp_counted_ptr_inplaceIN3ndn19RegexBackrefManagerESaIS1_ELN9__gnu_cxx12_Lock_policyE2EE14_M_get_deleterERKSt9type_info@Base 0.4.1
 _ZNSt23_Sp_counted_ptr_inplaceIN3ndn19RegexBackrefManagerESaIS1_ELN9__gnu_cxx12_Lock_policyE2EED0Ev@Base 0.4.1
 _ZNSt23_Sp_counted_ptr_inplaceIN3ndn19RegexBackrefManagerESaIS1_ELN9__gnu_cxx12_Lock_policyE2EED1Ev@Base 0.4.1
 _ZNSt23_Sp_counted_ptr_inplaceIN3ndn19RegexBackrefManagerESaIS1_ELN9__gnu_cxx12_Lock_policyE2EED2Ev@Base 0.4.1
 _ZNSt23_Sp_counted_ptr_inplaceIN3ndn19RegexBackrefMatcherESaIS1_ELN9__gnu_cxx12_Lock_policyE2EE10_M_destroyEv@Base 0.4.1
 _ZNSt23_Sp_counted_ptr_inplaceIN3ndn19RegexBackrefMatcherESaIS1_ELN9__gnu_cxx12_Lock_policyE2EE10_M_disposeEv@Base 0.4.1
 _ZNSt23_Sp_counted_ptr_inplaceIN3ndn19RegexBackrefMatcherESaIS1_ELN9__gnu_cxx12_Lock_policyE2EE14_M_get_deleterERKSt9type_info@Base 0.4.1
 _ZNSt23_Sp_counted_ptr_inplaceIN3ndn19RegexBackrefMatcherESaIS1_ELN9__gnu_cxx12_Lock_policyE2EED0Ev@Base 0.4.1
 _ZNSt23_Sp_counted_ptr_inplaceIN3ndn19RegexBackrefMatcherESaIS1_ELN9__gnu_cxx12_Lock_policyE2EED1Ev@Base 0.4.1
 _ZNSt23_Sp_counted_ptr_inplaceIN3ndn19RegexBackrefMatcherESaIS1_ELN9__gnu_cxx12_Lock_policyE2EED2Ev@Base 0.4.1
 _ZNSt23_Sp_counted_ptr_inplaceIN3ndn19StreamTransportImplINS0_13UnixTransportEN5boost4asio5local15stream_protocolEEESaIS7_ELN9__gnu_cxx12_Lock_policyE2EE10_M_destroyEv@Base 0.4.1
 _ZNSt23_Sp_counted_ptr_inplaceIN3ndn19StreamTransportImplINS0_13UnixTransportEN5boost4asio5local15stream_protocolEEESaIS7_ELN9__gnu_cxx12_Lock_policyE2EE10_M_disposeEv@Base 0.4.1
 _ZNSt23_Sp_counted_ptr_inplaceIN3ndn19StreamTransportImplINS0_13UnixTransportEN5boost4asio5local15stream_protocolEEESaIS7_ELN9__gnu_cxx12_Lock_policyE2EE14_M_get_deleterERKSt9type_info@Base 0.4.1
 _ZNSt23_Sp_counted_ptr_inplaceIN3ndn19StreamTransportImplINS0_13UnixTransportEN5boost4asio5local15stream_protocolEEESaIS7_ELN9__gnu_cxx12_Lock_policyE2EED0Ev@Base 0.4.1
 _ZNSt23_Sp_counted_ptr_inplaceIN3ndn19StreamTransportImplINS0_13UnixTransportEN5boost4asio5local15stream_protocolEEESaIS7_ELN9__gnu_cxx12_Lock_policyE2EED1Ev@Base 0.4.1
 _ZNSt23_Sp_counted_ptr_inplaceIN3ndn19StreamTransportImplINS0_13UnixTransportEN5boost4asio5local15stream_protocolEEESaIS7_ELN9__gnu_cxx12_Lock_policyE2EED2Ev@Base 0.4.1
 _ZNSt23_Sp_counted_ptr_inplaceIN3ndn20InterestFilterRecordESaIS1_ELN9__gnu_cxx12_Lock_policyE2EE10_M_destroyEv@Base 0.4.1
 _ZNSt23_Sp_counted_ptr_inplaceIN3ndn20InterestFilterRecordESaIS1_ELN9__gnu_cxx12_Lock_policyE2EE10_M_disposeEv@Base 0.4.1
 _ZNSt23_Sp_counted_ptr_inplaceIN3ndn20InterestFilterRecordESaIS1_ELN9__gnu_cxx12_Lock_policyE2EE14_M_get_deleterERKSt9type_info@Base 0.4.1
 _ZNSt23_Sp_counted_ptr_inplaceIN3ndn20InterestFilterRecordESaIS1_ELN9__gnu_cxx12_Lock_policyE2EED0Ev@Base 0.4.1
 _ZNSt23_Sp_counted_ptr_inplaceIN3ndn20InterestFilterRecordESaIS1_ELN9__gnu_cxx12_Lock_policyE2EED1Ev@Base 0.4.1
 _ZNSt23_Sp_counted_ptr_inplaceIN3ndn20InterestFilterRecordESaIS1_ELN9__gnu_cxx12_Lock_policyE2EED2Ev@Base 0.4.1
 _ZNSt23_Sp_counted_ptr_inplaceIN3ndn21RegexComponentMatcherESaIS1_ELN9__gnu_cxx12_Lock_policyE2EE10_M_destroyEv@Base 0.4.1
 _ZNSt23_Sp_counted_ptr_inplaceIN3ndn21RegexComponentMatcherESaIS1_ELN9__gnu_cxx12_Lock_policyE2EE10_M_disposeEv@Base 0.4.1
 _ZNSt23_Sp_counted_ptr_inplaceIN3ndn21RegexComponentMatcherESaIS1_ELN9__gnu_cxx12_Lock_policyE2EE14_M_get_deleterERKSt9type_info@Base 0.4.1
 _ZNSt23_Sp_counted_ptr_inplaceIN3ndn21RegexComponentMatcherESaIS1_ELN9__gnu_cxx12_Lock_policyE2EED0Ev@Base 0.4.1
 _ZNSt23_Sp_counted_ptr_inplaceIN3ndn21RegexComponentMatcherESaIS1_ELN9__gnu_cxx12_Lock_policyE2EED1Ev@Base 0.4.1
 _ZNSt23_Sp_counted_ptr_inplaceIN3ndn21RegexComponentMatcherESaIS1_ELN9__gnu_cxx12_Lock_policyE2EED2Ev@Base 0.4.1
 _ZNSt23_Sp_counted_ptr_inplaceIN3ndn23RegexPatternListMatcherESaIS1_ELN9__gnu_cxx12_Lock_policyE2EE10_M_destroyEv@Base 0.4.1
 _ZNSt23_Sp_counted_ptr_inplaceIN3ndn23RegexPatternListMatcherESaIS1_ELN9__gnu_cxx12_Lock_policyE2EE10_M_disposeEv@Base 0.4.1
 _ZNSt23_Sp_counted_ptr_inplaceIN3ndn23RegexPatternListMatcherESaIS1_ELN9__gnu_cxx12_Lock_policyE2EE14_M_get_deleterERKSt9type_info@Base 0.4.1
 _ZNSt23_Sp_counted_ptr_inplaceIN3ndn23RegexPatternListMatcherESaIS1_ELN9__gnu_cxx12_Lock_policyE2EED0Ev@Base 0.4.1
 _ZNSt23_Sp_counted_ptr_inplaceIN3ndn23RegexPatternListMatcherESaIS1_ELN9__gnu_cxx12_Lock_policyE2EED1Ev@Base 0.4.1
 _ZNSt23_Sp_counted_ptr_inplaceIN3ndn23RegexPatternListMatcherESaIS1_ELN9__gnu_cxx12_Lock_policyE2EED2Ev@Base 0.4.1
 _ZNSt23_Sp_counted_ptr_inplaceIN3ndn24RegexComponentSetMatcherESaIS1_ELN9__gnu_cxx12_Lock_policyE2EE10_M_destroyEv@Base 0.4.1
 _ZNSt23_Sp_counted_ptr_inplaceIN3ndn24RegexComponentSetMatcherESaIS1_ELN9__gnu_cxx12_Lock_policyE2EE10_M_disposeEv@Base 0.4.1
 _ZNSt23_Sp_counted_ptr_inplaceIN3ndn24RegexComponentSetMatcherESaIS1_ELN9__gnu_cxx12_Lock_policyE2EE14_M_get_deleterERKSt9type_info@Base 0.4.1
 _ZNSt23_Sp_counted_ptr_inplaceIN3ndn24RegexComponentSetMatcherESaIS1_ELN9__gnu_cxx12_Lock_policyE2EED0Ev@Base 0.4.1
 _ZNSt23_Sp_counted_ptr_inplaceIN3ndn24RegexComponentSetMatcherESaIS1_ELN9__gnu_cxx12_Lock_policyE2EED1Ev@Base 0.4.1
 _ZNSt23_Sp_counted_ptr_inplaceIN3ndn24RegexComponentSetMatcherESaIS1_ELN9__gnu_cxx12_Lock_policyE2EED2Ev@Base 0.4.1
 _ZNSt23_Sp_counted_ptr_inplaceIN3ndn2lp4NackESaIS2_ELN9__gnu_cxx12_Lock_policyE2EE10_M_destroyEv@Base 0.4.1
 _ZNSt23_Sp_counted_ptr_inplaceIN3ndn2lp4NackESaIS2_ELN9__gnu_cxx12_Lock_policyE2EE10_M_disposeEv@Base 0.4.1
 _ZNSt23_Sp_counted_ptr_inplaceIN3ndn2lp4NackESaIS2_ELN9__gnu_cxx12_Lock_policyE2EE14_M_get_deleterERKSt9type_info@Base 0.4.1
 _ZNSt23_Sp_counted_ptr_inplaceIN3ndn2lp4NackESaIS2_ELN9__gnu_cxx12_Lock_policyE2EED0Ev@Base 0.4.1
 _ZNSt23_Sp_counted_ptr_inplaceIN3ndn2lp4NackESaIS2_ELN9__gnu_cxx12_Lock_policyE2EED1Ev@Base 0.4.1
 _ZNSt23_Sp_counted_ptr_inplaceIN3ndn2lp4NackESaIS2_ELN9__gnu_cxx12_Lock_policyE2EED2Ev@Base 0.4.1
 _ZNSt23_Sp_counted_ptr_inplaceIN3ndn31StreamTransportWithResolverImplINS0_12TcpTransportEN5boost4asio2ip3tcpEEESaIS7_ELN9__gnu_cxx12_Lock_policyE2EE10_M_destroyEv@Base 0.4.1
 _ZNSt23_Sp_counted_ptr_inplaceIN3ndn31StreamTransportWithResolverImplINS0_12TcpTransportEN5boost4asio2ip3tcpEEESaIS7_ELN9__gnu_cxx12_Lock_policyE2EE10_M_disposeEv@Base 0.4.1
 _ZNSt23_Sp_counted_ptr_inplaceIN3ndn31StreamTransportWithResolverImplINS0_12TcpTransportEN5boost4asio2ip3tcpEEESaIS7_ELN9__gnu_cxx12_Lock_policyE2EE14_M_get_deleterERKSt9type_info@Base 0.4.1
 _ZNSt23_Sp_counted_ptr_inplaceIN3ndn31StreamTransportWithResolverImplINS0_12TcpTransportEN5boost4asio2ip3tcpEEESaIS7_ELN9__gnu_cxx12_Lock_policyE2EED0Ev@Base 0.4.1
 _ZNSt23_Sp_counted_ptr_inplaceIN3ndn31StreamTransportWithResolverImplINS0_12TcpTransportEN5boost4asio2ip3tcpEEESaIS7_ELN9__gnu_cxx12_Lock_policyE2EED1Ev@Base 0.4.1
 _ZNSt23_Sp_counted_ptr_inplaceIN3ndn31StreamTransportWithResolverImplINS0_12TcpTransportEN5boost4asio2ip3tcpEEESaIS7_ELN9__gnu_cxx12_Lock_policyE2EED2Ev@Base 0.4.1
 _ZNSt23_Sp_counted_ptr_inplaceIN3ndn3dns8ResolverESaIS2_ELN9__gnu_cxx12_Lock_policyE2EE10_M_destroyEv@Base 0.4.1
 _ZNSt23_Sp_counted_ptr_inplaceIN3ndn3dns8ResolverESaIS2_ELN9__gnu_cxx12_Lock_policyE2EE10_M_disposeEv@Base 0.4.1
 _ZNSt23_Sp_counted_ptr_inplaceIN3ndn3dns8ResolverESaIS2_ELN9__gnu_cxx12_Lock_policyE2EE14_M_get_deleterERKSt9type_info@Base 0.4.1
 _ZNSt23_Sp_counted_ptr_inplaceIN3ndn3dns8ResolverESaIS2_ELN9__gnu_cxx12_Lock_policyE2EED0Ev@Base 0.4.1
 _ZNSt23_Sp_counted_ptr_inplaceIN3ndn3dns8ResolverESaIS2_ELN9__gnu_cxx12_Lock_policyE2EED1Ev@Base 0.4.1
 _ZNSt23_Sp_counted_ptr_inplaceIN3ndn3dns8ResolverESaIS2_ELN9__gnu_cxx12_Lock_policyE2EED2Ev@Base 0.4.1
 _ZNSt23_Sp_counted_ptr_inplaceIN3ndn3nfd18RibRegisterCommandESaIS2_ELN9__gnu_cxx12_Lock_policyE2EE10_M_destroyEv@Base 0.4.1
 _ZNSt23_Sp_counted_ptr_inplaceIN3ndn3nfd18RibRegisterCommandESaIS2_ELN9__gnu_cxx12_Lock_policyE2EE10_M_disposeEv@Base 0.4.1
 _ZNSt23_Sp_counted_ptr_inplaceIN3ndn3nfd18RibRegisterCommandESaIS2_ELN9__gnu_cxx12_Lock_policyE2EE14_M_get_deleterERKSt9type_info@Base 0.4.1
 _ZNSt23_Sp_counted_ptr_inplaceIN3ndn3nfd18RibRegisterCommandESaIS2_ELN9__gnu_cxx12_Lock_policyE2EED0Ev@Base 0.4.1
 _ZNSt23_Sp_counted_ptr_inplaceIN3ndn3nfd18RibRegisterCommandESaIS2_ELN9__gnu_cxx12_Lock_policyE2EED1Ev@Base 0.4.1
 _ZNSt23_Sp_counted_ptr_inplaceIN3ndn3nfd18RibRegisterCommandESaIS2_ELN9__gnu_cxx12_Lock_policyE2EED2Ev@Base 0.4.1
 _ZNSt23_Sp_counted_ptr_inplaceIN3ndn3nfd20RibUnregisterCommandESaIS2_ELN9__gnu_cxx12_Lock_policyE2EE10_M_destroyEv@Base 0.4.1
 _ZNSt23_Sp_counted_ptr_inplaceIN3ndn3nfd20RibUnregisterCommandESaIS2_ELN9__gnu_cxx12_Lock_policyE2EE10_M_disposeEv@Base 0.4.1
 _ZNSt23_Sp_counted_ptr_inplaceIN3ndn3nfd20RibUnregisterCommandESaIS2_ELN9__gnu_cxx12_Lock_policyE2EE14_M_get_deleterERKSt9type_info@Base 0.4.1
 _ZNSt23_Sp_counted_ptr_inplaceIN3ndn3nfd20RibUnregisterCommandESaIS2_ELN9__gnu_cxx12_Lock_policyE2EED0Ev@Base 0.4.1
 _ZNSt23_Sp_counted_ptr_inplaceIN3ndn3nfd20RibUnregisterCommandESaIS2_ELN9__gnu_cxx12_Lock_policyE2EED1Ev@Base 0.4.1
 _ZNSt23_Sp_counted_ptr_inplaceIN3ndn3nfd20RibUnregisterCommandESaIS2_ELN9__gnu_cxx12_Lock_policyE2EED2Ev@Base 0.4.1
 _ZNSt23_Sp_counted_ptr_inplaceIN3ndn4DataESaIS1_ELN9__gnu_cxx12_Lock_policyE2EE10_M_destroyEv@Base 0.4.1
 _ZNSt23_Sp_counted_ptr_inplaceIN3ndn4DataESaIS1_ELN9__gnu_cxx12_Lock_policyE2EE10_M_disposeEv@Base 0.4.1
 _ZNSt23_Sp_counted_ptr_inplaceIN3ndn4DataESaIS1_ELN9__gnu_cxx12_Lock_policyE2EE14_M_get_deleterERKSt9type_info@Base 0.4.1
 _ZNSt23_Sp_counted_ptr_inplaceIN3ndn4DataESaIS1_ELN9__gnu_cxx12_Lock_policyE2EED0Ev@Base 0.4.1
 _ZNSt23_Sp_counted_ptr_inplaceIN3ndn4DataESaIS1_ELN9__gnu_cxx12_Lock_policyE2EED1Ev@Base 0.4.1
 _ZNSt23_Sp_counted_ptr_inplaceIN3ndn4DataESaIS1_ELN9__gnu_cxx12_Lock_policyE2EED2Ev@Base 0.4.1
 _ZNSt23_Sp_counted_ptr_inplaceIN3ndn4Face4ImplESaIS2_ELN9__gnu_cxx12_Lock_policyE2EE10_M_destroyEv@Base 0.4.1
 _ZNSt23_Sp_counted_ptr_inplaceIN3ndn4Face4ImplESaIS2_ELN9__gnu_cxx12_Lock_policyE2EE10_M_disposeEv@Base 0.4.1
 _ZNSt23_Sp_counted_ptr_inplaceIN3ndn4Face4ImplESaIS2_ELN9__gnu_cxx12_Lock_policyE2EE14_M_get_deleterERKSt9type_info@Base 0.4.1
 _ZNSt23_Sp_counted_ptr_inplaceIN3ndn4Face4ImplESaIS2_ELN9__gnu_cxx12_Lock_policyE2EED0Ev@Base 0.4.1
 _ZNSt23_Sp_counted_ptr_inplaceIN3ndn4Face4ImplESaIS2_ELN9__gnu_cxx12_Lock_policyE2EED1Ev@Base 0.4.1
 _ZNSt23_Sp_counted_ptr_inplaceIN3ndn4Face4ImplESaIS2_ELN9__gnu_cxx12_Lock_policyE2EED2Ev@Base 0.4.1
 _ZNSt23_Sp_counted_ptr_inplaceIN3ndn4LinkESaIS1_ELN9__gnu_cxx12_Lock_policyE2EE10_M_destroyEv@Base 0.4.1
 _ZNSt23_Sp_counted_ptr_inplaceIN3ndn4LinkESaIS1_ELN9__gnu_cxx12_Lock_policyE2EE10_M_disposeEv@Base 0.4.1
 _ZNSt23_Sp_counted_ptr_inplaceIN3ndn4LinkESaIS1_ELN9__gnu_cxx12_Lock_policyE2EE14_M_get_deleterERKSt9type_info@Base 0.4.1
 _ZNSt23_Sp_counted_ptr_inplaceIN3ndn4LinkESaIS1_ELN9__gnu_cxx12_Lock_policyE2EED0Ev@Base 0.4.1
 _ZNSt23_Sp_counted_ptr_inplaceIN3ndn4LinkESaIS1_ELN9__gnu_cxx12_Lock_policyE2EED1Ev@Base 0.4.1
 _ZNSt23_Sp_counted_ptr_inplaceIN3ndn4LinkESaIS1_ELN9__gnu_cxx12_Lock_policyE2EED2Ev@Base 0.4.1
 _ZNSt23_Sp_counted_ptr_inplaceIN3ndn4util15DummyClientFace9TransportESaIS3_ELN9__gnu_cxx12_Lock_policyE2EE10_M_destroyEv@Base 0.4.1
 _ZNSt23_Sp_counted_ptr_inplaceIN3ndn4util15DummyClientFace9TransportESaIS3_ELN9__gnu_cxx12_Lock_policyE2EE10_M_disposeEv@Base 0.4.1
 _ZNSt23_Sp_counted_ptr_inplaceIN3ndn4util15DummyClientFace9TransportESaIS3_ELN9__gnu_cxx12_Lock_policyE2EE14_M_get_deleterERKSt9type_info@Base 0.4.1
 _ZNSt23_Sp_counted_ptr_inplaceIN3ndn4util15DummyClientFace9TransportESaIS3_ELN9__gnu_cxx12_Lock_policyE2EED0Ev@Base 0.4.1
 _ZNSt23_Sp_counted_ptr_inplaceIN3ndn4util15DummyClientFace9TransportESaIS3_ELN9__gnu_cxx12_Lock_policyE2EED1Ev@Base 0.4.1
 _ZNSt23_Sp_counted_ptr_inplaceIN3ndn4util15DummyClientFace9TransportESaIS3_ELN9__gnu_cxx12_Lock_policyE2EED2Ev@Base 0.4.1
 _ZNSt23_Sp_counted_ptr_inplaceIN3ndn4util19TcpCanonizeProviderESaIS2_ELN9__gnu_cxx12_Lock_policyE2EE10_M_destroyEv@Base 0.4.1
 _ZNSt23_Sp_counted_ptr_inplaceIN3ndn4util19TcpCanonizeProviderESaIS2_ELN9__gnu_cxx12_Lock_policyE2EE10_M_disposeEv@Base 0.4.1
 _ZNSt23_Sp_counted_ptr_inplaceIN3ndn4util19TcpCanonizeProviderESaIS2_ELN9__gnu_cxx12_Lock_policyE2EE14_M_get_deleterERKSt9type_info@Base 0.4.1
 _ZNSt23_Sp_counted_ptr_inplaceIN3ndn4util19TcpCanonizeProviderESaIS2_ELN9__gnu_cxx12_Lock_policyE2EED0Ev@Base 0.4.1
 _ZNSt23_Sp_counted_ptr_inplaceIN3ndn4util19TcpCanonizeProviderESaIS2_ELN9__gnu_cxx12_Lock_policyE2EED1Ev@Base 0.4.1
 _ZNSt23_Sp_counted_ptr_inplaceIN3ndn4util19TcpCanonizeProviderESaIS2_ELN9__gnu_cxx12_Lock_policyE2EED2Ev@Base 0.4.1
 _ZNSt23_Sp_counted_ptr_inplaceIN3ndn4util19UdpCanonizeProviderESaIS2_ELN9__gnu_cxx12_Lock_policyE2EE10_M_destroyEv@Base 0.4.1
 _ZNSt23_Sp_counted_ptr_inplaceIN3ndn4util19UdpCanonizeProviderESaIS2_ELN9__gnu_cxx12_Lock_policyE2EE10_M_disposeEv@Base 0.4.1
 _ZNSt23_Sp_counted_ptr_inplaceIN3ndn4util19UdpCanonizeProviderESaIS2_ELN9__gnu_cxx12_Lock_policyE2EE14_M_get_deleterERKSt9type_info@Base 0.4.1
 _ZNSt23_Sp_counted_ptr_inplaceIN3ndn4util19UdpCanonizeProviderESaIS2_ELN9__gnu_cxx12_Lock_policyE2EED0Ev@Base 0.4.1
 _ZNSt23_Sp_counted_ptr_inplaceIN3ndn4util19UdpCanonizeProviderESaIS2_ELN9__gnu_cxx12_Lock_policyE2EED1Ev@Base 0.4.1
 _ZNSt23_Sp_counted_ptr_inplaceIN3ndn4util19UdpCanonizeProviderESaIS2_ELN9__gnu_cxx12_Lock_policyE2EED2Ev@Base 0.4.1
 _ZNSt23_Sp_counted_ptr_inplaceIN3ndn4util21EtherCanonizeProviderESaIS2_ELN9__gnu_cxx12_Lock_policyE2EE10_M_destroyEv@Base 0.4.1
 _ZNSt23_Sp_counted_ptr_inplaceIN3ndn4util21EtherCanonizeProviderESaIS2_ELN9__gnu_cxx12_Lock_policyE2EE10_M_disposeEv@Base 0.4.1
 _ZNSt23_Sp_counted_ptr_inplaceIN3ndn4util21EtherCanonizeProviderESaIS2_ELN9__gnu_cxx12_Lock_policyE2EE14_M_get_deleterERKSt9type_info@Base 0.4.1
 _ZNSt23_Sp_counted_ptr_inplaceIN3ndn4util21EtherCanonizeProviderESaIS2_ELN9__gnu_cxx12_Lock_policyE2EED0Ev@Base 0.4.1
 _ZNSt23_Sp_counted_ptr_inplaceIN3ndn4util21EtherCanonizeProviderESaIS2_ELN9__gnu_cxx12_Lock_policyE2EED1Ev@Base 0.4.1
 _ZNSt23_Sp_counted_ptr_inplaceIN3ndn4util21EtherCanonizeProviderESaIS2_ELN9__gnu_cxx12_Lock_policyE2EED2Ev@Base 0.4.1
 _ZNSt23_Sp_counted_ptr_inplaceIN3ndn4util7FaceUriESaIS2_ELN9__gnu_cxx12_Lock_policyE2EE10_M_destroyEv@Base 0.4.1
 _ZNSt23_Sp_counted_ptr_inplaceIN3ndn4util7FaceUriESaIS2_ELN9__gnu_cxx12_Lock_policyE2EE10_M_disposeEv@Base 0.4.1
 _ZNSt23_Sp_counted_ptr_inplaceIN3ndn4util7FaceUriESaIS2_ELN9__gnu_cxx12_Lock_policyE2EE14_M_get_deleterERKSt9type_info@Base 0.4.1
 _ZNSt23_Sp_counted_ptr_inplaceIN3ndn4util7FaceUriESaIS2_ELN9__gnu_cxx12_Lock_policyE2EED0Ev@Base 0.4.1
 _ZNSt23_Sp_counted_ptr_inplaceIN3ndn4util7FaceUriESaIS2_ELN9__gnu_cxx12_Lock_policyE2EED1Ev@Base 0.4.1
 _ZNSt23_Sp_counted_ptr_inplaceIN3ndn4util7FaceUriESaIS2_ELN9__gnu_cxx12_Lock_policyE2EED2Ev@Base 0.4.1
 _ZNSt23_Sp_counted_ptr_inplaceIN3ndn4util9scheduler9EventInfoESaIS3_ELN9__gnu_cxx12_Lock_policyE2EE10_M_destroyEv@Base 0.4.1
 _ZNSt23_Sp_counted_ptr_inplaceIN3ndn4util9scheduler9EventInfoESaIS3_ELN9__gnu_cxx12_Lock_policyE2EE10_M_disposeEv@Base 0.4.1
 _ZNSt23_Sp_counted_ptr_inplaceIN3ndn4util9scheduler9EventInfoESaIS3_ELN9__gnu_cxx12_Lock_policyE2EE14_M_get_deleterERKSt9type_info@Base 0.4.1
 _ZNSt23_Sp_counted_ptr_inplaceIN3ndn4util9scheduler9EventInfoESaIS3_ELN9__gnu_cxx12_Lock_policyE2EED0Ev@Base 0.4.1
 _ZNSt23_Sp_counted_ptr_inplaceIN3ndn4util9scheduler9EventInfoESaIS3_ELN9__gnu_cxx12_Lock_policyE2EED1Ev@Base 0.4.1
 _ZNSt23_Sp_counted_ptr_inplaceIN3ndn4util9scheduler9EventInfoESaIS3_ELN9__gnu_cxx12_Lock_policyE2EED2Ev@Base 0.4.1
 _ZNSt23_Sp_counted_ptr_inplaceIN3ndn6BufferESaIS1_ELN9__gnu_cxx12_Lock_policyE2EE10_M_destroyEv@Base 0.4.1
 _ZNSt23_Sp_counted_ptr_inplaceIN3ndn6BufferESaIS1_ELN9__gnu_cxx12_Lock_policyE2EE10_M_disposeEv@Base 0.4.1
 _ZNSt23_Sp_counted_ptr_inplaceIN3ndn6BufferESaIS1_ELN9__gnu_cxx12_Lock_policyE2EE14_M_get_deleterERKSt9type_info@Base 0.4.1
 _ZNSt23_Sp_counted_ptr_inplaceIN3ndn6BufferESaIS1_ELN9__gnu_cxx12_Lock_policyE2EED0Ev@Base 0.4.1
 _ZNSt23_Sp_counted_ptr_inplaceIN3ndn6BufferESaIS1_ELN9__gnu_cxx12_Lock_policyE2EED1Ev@Base 0.4.1
 _ZNSt23_Sp_counted_ptr_inplaceIN3ndn6BufferESaIS1_ELN9__gnu_cxx12_Lock_policyE2EED2Ev@Base 0.4.1
 _ZNSt23_Sp_counted_ptr_inplaceIN3ndn8InterestESaIS1_ELN9__gnu_cxx12_Lock_policyE2EE10_M_destroyEv@Base 0.4.1
 _ZNSt23_Sp_counted_ptr_inplaceIN3ndn8InterestESaIS1_ELN9__gnu_cxx12_Lock_policyE2EE10_M_disposeEv@Base 0.4.1
 _ZNSt23_Sp_counted_ptr_inplaceIN3ndn8InterestESaIS1_ELN9__gnu_cxx12_Lock_policyE2EE14_M_get_deleterERKSt9type_info@Base 0.4.1
 _ZNSt23_Sp_counted_ptr_inplaceIN3ndn8InterestESaIS1_ELN9__gnu_cxx12_Lock_policyE2EED0Ev@Base 0.4.1
 _ZNSt23_Sp_counted_ptr_inplaceIN3ndn8InterestESaIS1_ELN9__gnu_cxx12_Lock_policyE2EED1Ev@Base 0.4.1
 _ZNSt23_Sp_counted_ptr_inplaceIN3ndn8InterestESaIS1_ELN9__gnu_cxx12_Lock_policyE2EED2Ev@Base 0.4.1
 _ZNSt23_Sp_counted_ptr_inplaceIN3ndn8encoding12EncodingImplILb1EEESaIS3_ELN9__gnu_cxx12_Lock_policyE2EE10_M_destroyEv@Base 0.4.1
 _ZNSt23_Sp_counted_ptr_inplaceIN3ndn8encoding12EncodingImplILb1EEESaIS3_ELN9__gnu_cxx12_Lock_policyE2EE10_M_disposeEv@Base 0.4.1
 _ZNSt23_Sp_counted_ptr_inplaceIN3ndn8encoding12EncodingImplILb1EEESaIS3_ELN9__gnu_cxx12_Lock_policyE2EE14_M_get_deleterERKSt9type_info@Base 0.4.1
 _ZNSt23_Sp_counted_ptr_inplaceIN3ndn8encoding12EncodingImplILb1EEESaIS3_ELN9__gnu_cxx12_Lock_policyE2EED0Ev@Base 0.4.1
 _ZNSt23_Sp_counted_ptr_inplaceIN3ndn8encoding12EncodingImplILb1EEESaIS3_ELN9__gnu_cxx12_Lock_policyE2EED1Ev@Base 0.4.1
 _ZNSt23_Sp_counted_ptr_inplaceIN3ndn8encoding12EncodingImplILb1EEESaIS3_ELN9__gnu_cxx12_Lock_policyE2EED2Ev@Base 0.4.1
 _ZNSt23_Sp_counted_ptr_inplaceIN3ndn8security17ValidationRequestESaIS2_ELN9__gnu_cxx12_Lock_policyE2EE10_M_destroyEv@Base 0.4.1
 _ZNSt23_Sp_counted_ptr_inplaceIN3ndn8security17ValidationRequestESaIS2_ELN9__gnu_cxx12_Lock_policyE2EE10_M_disposeEv@Base 0.4.1
 _ZNSt23_Sp_counted_ptr_inplaceIN3ndn8security17ValidationRequestESaIS2_ELN9__gnu_cxx12_Lock_policyE2EE14_M_get_deleterERKSt9type_info@Base 0.4.1
 _ZNSt23_Sp_counted_ptr_inplaceIN3ndn8security17ValidationRequestESaIS2_ELN9__gnu_cxx12_Lock_policyE2EED0Ev@Base 0.4.1
 _ZNSt23_Sp_counted_ptr_inplaceIN3ndn8security17ValidationRequestESaIS2_ELN9__gnu_cxx12_Lock_policyE2EED1Ev@Base 0.4.1
 _ZNSt23_Sp_counted_ptr_inplaceIN3ndn8security17ValidationRequestESaIS2_ELN9__gnu_cxx12_Lock_policyE2EED2Ev@Base 0.4.1
 _ZNSt23_Sp_counted_ptr_inplaceIN3ndn8security19CertificateCacheTtlESaIS2_ELN9__gnu_cxx12_Lock_policyE2EE10_M_destroyEv@Base 0.4.1
 _ZNSt23_Sp_counted_ptr_inplaceIN3ndn8security19CertificateCacheTtlESaIS2_ELN9__gnu_cxx12_Lock_policyE2EE10_M_disposeEv@Base 0.4.1
 _ZNSt23_Sp_counted_ptr_inplaceIN3ndn8security19CertificateCacheTtlESaIS2_ELN9__gnu_cxx12_Lock_policyE2EE14_M_get_deleterERKSt9type_info@Base 0.4.1
 _ZNSt23_Sp_counted_ptr_inplaceIN3ndn8security19CertificateCacheTtlESaIS2_ELN9__gnu_cxx12_Lock_policyE2EED0Ev@Base 0.4.1
 _ZNSt23_Sp_counted_ptr_inplaceIN3ndn8security19CertificateCacheTtlESaIS2_ELN9__gnu_cxx12_Lock_policyE2EED1Ev@Base 0.4.1
 _ZNSt23_Sp_counted_ptr_inplaceIN3ndn8security19CertificateCacheTtlESaIS2_ELN9__gnu_cxx12_Lock_policyE2EED2Ev@Base 0.4.1
 _ZNSt23_Sp_counted_ptr_inplaceIN3ndn8security2v119IdentityCertificateESaIS3_ELN9__gnu_cxx12_Lock_policyE2EE10_M_destroyEv@Base 0.4.1
 _ZNSt23_Sp_counted_ptr_inplaceIN3ndn8security2v119IdentityCertificateESaIS3_ELN9__gnu_cxx12_Lock_policyE2EE10_M_disposeEv@Base 0.4.1
 _ZNSt23_Sp_counted_ptr_inplaceIN3ndn8security2v119IdentityCertificateESaIS3_ELN9__gnu_cxx12_Lock_policyE2EE14_M_get_deleterERKSt9type_info@Base 0.4.1
